GAS LISTING /tmp/ccnX4DXE.s 			page 1


   1              		.file	"__print.cpp"
   2              		.option pic
   3              		.option norelax
   4              		.text
   5              	.Ltext0:
   6              		.align	2
   7              		.globl	_Z14__print_stringPKc
   9              	_Z14__print_stringPKc:
  10              	.LFB59:
  11              		.file 1 "src/__print.cpp"
   1:src/__print.cpp **** //
   2:src/__print.cpp **** // Created by os on 9/6/22.
   3:src/__print.cpp **** //
   4:src/__print.cpp **** 
   5:src/__print.cpp **** #include "../lib/hw.h"
   6:src/__print.cpp **** #include "../h/uart.hpp"
   7:src/__print.cpp **** #include "../h/__print.hpp"
   8:src/__print.cpp **** 
   9:src/__print.cpp **** void __print_string(char const *string) {
  12              		.loc 1 9 41
  13              		.cfi_startproc
  14              	.LVL0:
  15 0000 130101FE 		addi	sp,sp,-32
  16              		.cfi_def_cfa_offset 32
  17 0004 233C1100 		sd	ra,24(sp)
  18 0008 23388100 		sd	s0,16(sp)
  19 000c 23349100 		sd	s1,8(sp)
  20              		.cfi_offset 1, -8
  21              		.cfi_offset 8, -16
  22              		.cfi_offset 9, -24
  23 0010 13040102 		addi	s0,sp,32
  24              		.cfi_def_cfa 8, 0
  25 0014 93040500 		mv	s1,a0
  10:src/__print.cpp ****     for (char const *c = string; *c != '\0'; c++) Uart::txPut(*c);
  26              		.loc 1 10 5
  27              	.LVL1:
  28              	.L3:
  29              	.LBB2:
  30              		.loc 1 10 37 discriminator 3
  31              		.loc 1 10 34 is_stmt 0 discriminator 3
  32 0018 03C50400 		lbu	a0,0(s1)
  33              		.loc 1 10 37 discriminator 3
  34 001c 630A0500 		beqz	a0,.L1
  35              		.loc 1 10 51 is_stmt 1 discriminator 2
  36              		.loc 1 10 62 is_stmt 0 discriminator 2
  37 0020 97000000 		call	_ZN4Uart5txPutEc@plt
  37      E7800000 
  38              	.LVL2:
  39              		.loc 1 10 5 is_stmt 1 discriminator 2
  40 0028 93841400 		addi	s1,s1,1
  41              	.LVL3:
  42 002c 6FF0DFFE 		j	.L3
  43              	.L1:
  44              	.LBE2:
  11:src/__print.cpp **** }
  45              		.loc 1 11 1 is_stmt 0
  46 0030 83308101 		ld	ra,24(sp)
GAS LISTING /tmp/ccnX4DXE.s 			page 2


  47              		.cfi_restore 1
  48 0034 03340101 		ld	s0,16(sp)
  49              		.cfi_restore 8
  50              		.cfi_def_cfa 2, 32
  51 0038 83348100 		ld	s1,8(sp)
  52              		.cfi_restore 9
  53              	.LVL4:
  54 003c 13010102 		addi	sp,sp,32
  55              		.cfi_def_cfa_offset 0
  56 0040 67800000 		jr	ra
  57              		.cfi_endproc
  58              	.LFE59:
  60              		.align	2
  61              		.globl	_Z14__print_uint64m
  63              	_Z14__print_uint64m:
  64              	.LFB60:
  12:src/__print.cpp **** 
  13:src/__print.cpp **** void __print_uint64(uint64 integer) {
  65              		.loc 1 13 37 is_stmt 1
  66              		.cfi_startproc
  67              	.LVL5:
  68 0044 130101FC 		addi	sp,sp,-64
  69              		.cfi_def_cfa_offset 64
  70 0048 233C1102 		sd	ra,56(sp)
  71 004c 23388102 		sd	s0,48(sp)
  72 0050 23349102 		sd	s1,40(sp)
  73              		.cfi_offset 1, -8
  74              		.cfi_offset 8, -16
  75              		.cfi_offset 9, -24
  76 0054 13040104 		addi	s0,sp,64
  77              		.cfi_def_cfa 8, 0
  14:src/__print.cpp ****     static char digits[] = "0123456789";
  78              		.loc 1 14 5
  15:src/__print.cpp ****     char output[20];
  79              		.loc 1 15 5
  16:src/__print.cpp ****     int i = 0;
  80              		.loc 1 16 5
  81              	.LVL6:
  82              		.loc 1 16 9 is_stmt 0
  83 0058 93040000 		li	s1,0
  84              	.LVL7:
  85              	.L6:
  17:src/__print.cpp ****     do {
  86              		.loc 1 17 5 is_stmt 1
  18:src/__print.cpp ****         output[i++] = digits[integer % 10];
  87              		.loc 1 18 9
  88              		.loc 1 18 38 is_stmt 0
  89 005c 9306A000 		li	a3,10
  90 0060 3376D502 		remu	a2,a0,a3
  91              	.LVL8:
  92              		.loc 1 18 42
  93 0064 17070000 		lla	a4,.LANCHOR0
  93      13070700 
  94 006c 3307C700 		add	a4,a4,a2
  95 0070 03470700 		lbu	a4,0(a4)
  96              		.loc 1 18 21
  97 0074 130604FE 		addi	a2,s0,-32
GAS LISTING /tmp/ccnX4DXE.s 			page 3


  98 0078 B3079600 		add	a5,a2,s1
  99 007c 9B841400 		addiw	s1,s1,1
 100              	.LVL9:
 101 0080 2384E7FE 		sb	a4,-24(a5)
  19:src/__print.cpp ****     } while ((integer/=10) != 0);
 102              		.loc 1 19 28 is_stmt 1
 103 0084 13070500 		mv	a4,a0
 104              		.loc 1 19 22 is_stmt 0
 105 0088 3355D502 		divu	a0,a0,a3
 106              	.LVL10:
 107              		.loc 1 19 28
 108 008c 93079000 		li	a5,9
 109 0090 E3E6E7FC 		bgtu	a4,a5,.L6
 110              	.LVL11:
 111              	.L8:
  20:src/__print.cpp ****     while(--i >= 0) Uart::txPut(output[i]);
 112              		.loc 1 20 5 is_stmt 1
 113              		.loc 1 20 15
 114 0094 9B84F4FF 		addiw	s1,s1,-1
 115              	.LVL12:
 116 0098 63CE0400 		bltz	s1,.L5
 117              		.loc 1 20 21 discriminator 1
 118              		.loc 1 20 32 is_stmt 0 discriminator 1
 119 009c 930704FE 		addi	a5,s0,-32
 120 00a0 B3879700 		add	a5,a5,s1
 121 00a4 03C587FE 		lbu	a0,-24(a5)
 122 00a8 97000000 		call	_ZN4Uart5txPutEc@plt
 122      E7800000 
 123              	.LVL13:
 124 00b0 6FF05FFE 		j	.L8
 125              	.L5:
  21:src/__print.cpp **** }
 126              		.loc 1 21 1
 127 00b4 83308103 		ld	ra,56(sp)
 128              		.cfi_restore 1
 129 00b8 03340103 		ld	s0,48(sp)
 130              		.cfi_restore 8
 131              		.cfi_def_cfa 2, 64
 132 00bc 83348102 		ld	s1,40(sp)
 133              		.cfi_restore 9
 134 00c0 13010104 		addi	sp,sp,64
 135              		.cfi_def_cfa_offset 0
 136 00c4 67800000 		jr	ra
 137              		.cfi_endproc
 138              	.LFE60:
 140              		.align	2
 141              		.globl	_Z11__print_intx
 143              	_Z11__print_intx:
 144              	.LFB61:
  22:src/__print.cpp **** 
  23:src/__print.cpp **** void __print_int(long long int integer) {
 145              		.loc 1 23 41 is_stmt 1
 146              		.cfi_startproc
 147              	.LVL14:
 148 00c8 130101FE 		addi	sp,sp,-32
 149              		.cfi_def_cfa_offset 32
 150 00cc 233C1100 		sd	ra,24(sp)
GAS LISTING /tmp/ccnX4DXE.s 			page 4


 151 00d0 23388100 		sd	s0,16(sp)
 152 00d4 23349100 		sd	s1,8(sp)
 153              		.cfi_offset 1, -8
 154              		.cfi_offset 8, -16
 155              		.cfi_offset 9, -24
 156 00d8 13040102 		addi	s0,sp,32
 157              		.cfi_def_cfa 8, 0
 158 00dc 93040500 		mv	s1,a0
  24:src/__print.cpp ****     if (integer < 0) Uart::txPut('-'), integer *= -1;
 159              		.loc 1 24 5
 160 00e0 63420502 		bltz	a0,.L13
 161              	.LVL15:
 162              	.L11:
  25:src/__print.cpp ****     Uart::txPut(integer);
 163              		.loc 1 25 5
 164              		.loc 1 25 16 is_stmt 0
 165 00e4 13F5F40F 		andi	a0,s1,0xff
 166 00e8 97000000 		call	_ZN4Uart5txPutEc@plt
 166      E7800000 
 167              	.LVL16:
  26:src/__print.cpp **** }
 168              		.loc 1 26 1
 169 00f0 83308101 		ld	ra,24(sp)
 170              		.cfi_remember_state
 171              		.cfi_restore 1
 172 00f4 03340101 		ld	s0,16(sp)
 173              		.cfi_restore 8
 174              		.cfi_def_cfa 2, 32
 175 00f8 83348100 		ld	s1,8(sp)
 176              		.cfi_restore 9
 177              	.LVL17:
 178 00fc 13010102 		addi	sp,sp,32
 179              		.cfi_def_cfa_offset 0
 180 0100 67800000 		jr	ra
 181              	.LVL18:
 182              	.L13:
 183              		.cfi_restore_state
  24:src/__print.cpp ****     if (integer < 0) Uart::txPut('-'), integer *= -1;
 184              		.loc 1 24 22 is_stmt 1 discriminator 1
  24:src/__print.cpp ****     if (integer < 0) Uart::txPut('-'), integer *= -1;
 185              		.loc 1 24 33 is_stmt 0 discriminator 1
 186 0104 1305D002 		li	a0,45
 187 0108 97000000 		call	_ZN4Uart5txPutEc@plt
 187      E7800000 
 188              	.LVL19:
  24:src/__print.cpp ****     if (integer < 0) Uart::txPut('-'), integer *= -1;
 189              		.loc 1 24 48 discriminator 1
 190 0110 B3049040 		neg	s1,s1
 191              	.LVL20:
 192 0114 6FF01FFD 		j	.L11
 193              		.cfi_endproc
 194              	.LFE61:
 196              		.section	.rodata
 197              		.align	3
 198              		.set	.LANCHOR0,. + 0
 201              	_ZZ14__print_uint64mE6digits:
 202 0000 30313233 		.string	"0123456789"
GAS LISTING /tmp/ccnX4DXE.s 			page 5


 202      34353637 
 202      383900
 203              		.text
 204              	.Letext0:
 205              		.file 2 "src/../lib/hw.h"
 206              		.file 3 "src/../h/tcb.hpp"
 207              		.file 4 "src/../h/sem.hpp"
 208              		.file 5 "src/../h/list.hpp"
 209              		.file 6 "src/../h/uart.hpp"
 210              		.file 7 "src/../h/syscall_c.h"
GAS LISTING /tmp/ccnX4DXE.s 			page 6


DEFINED SYMBOLS
                            *ABS*:0000000000000000 __print.cpp
     /tmp/ccnX4DXE.s:9      .text:0000000000000000 _Z14__print_stringPKc
     /tmp/ccnX4DXE.s:13     .text:0000000000000000 .L0 
     /tmp/ccnX4DXE.s:15     .text:0000000000000000 .L0 
     /tmp/ccnX4DXE.s:16     .text:0000000000000004 .L0 
     /tmp/ccnX4DXE.s:20     .text:0000000000000010 .L0 
     /tmp/ccnX4DXE.s:21     .text:0000000000000010 .L0 
     /tmp/ccnX4DXE.s:22     .text:0000000000000010 .L0 
     /tmp/ccnX4DXE.s:24     .text:0000000000000014 .L0 
     /tmp/ccnX4DXE.s:30     .text:0000000000000018 .L0 
     /tmp/ccnX4DXE.s:31     .text:0000000000000018 .L0 
     /tmp/ccnX4DXE.s:32     .text:0000000000000018 .L0 
     /tmp/ccnX4DXE.s:34     .text:000000000000001c .L0 
     /tmp/ccnX4DXE.s:36     .text:0000000000000020 .L0 
     /tmp/ccnX4DXE.s:37     .text:0000000000000020 .L0 
     /tmp/ccnX4DXE.s:40     .text:0000000000000028 .L0 
     /tmp/ccnX4DXE.s:46     .text:0000000000000030 .L0 
     /tmp/ccnX4DXE.s:47     .text:0000000000000034 .L0 
     /tmp/ccnX4DXE.s:49     .text:0000000000000038 .L0 
     /tmp/ccnX4DXE.s:50     .text:0000000000000038 .L0 
     /tmp/ccnX4DXE.s:52     .text:000000000000003c .L0 
     /tmp/ccnX4DXE.s:55     .text:0000000000000040 .L0 
     /tmp/ccnX4DXE.s:57     .text:0000000000000044 .L0 
     /tmp/ccnX4DXE.s:63     .text:0000000000000044 _Z14__print_uint64m
     /tmp/ccnX4DXE.s:66     .text:0000000000000044 .L0 
     /tmp/ccnX4DXE.s:68     .text:0000000000000044 .L0 
     /tmp/ccnX4DXE.s:69     .text:0000000000000048 .L0 
     /tmp/ccnX4DXE.s:73     .text:0000000000000054 .L0 
     /tmp/ccnX4DXE.s:74     .text:0000000000000054 .L0 
     /tmp/ccnX4DXE.s:75     .text:0000000000000054 .L0 
     /tmp/ccnX4DXE.s:77     .text:0000000000000058 .L0 
     /tmp/ccnX4DXE.s:79     .text:0000000000000058 .L0 
     /tmp/ccnX4DXE.s:80     .text:0000000000000058 .L0 
     /tmp/ccnX4DXE.s:82     .text:0000000000000058 .L0 
     /tmp/ccnX4DXE.s:83     .text:0000000000000058 .L0 
     /tmp/ccnX4DXE.s:87     .text:000000000000005c .L0 
     /tmp/ccnX4DXE.s:88     .text:000000000000005c .L0 
     /tmp/ccnX4DXE.s:89     .text:000000000000005c .L0 
     /tmp/ccnX4DXE.s:93     .text:0000000000000064 .L0 
     /tmp/ccnX4DXE.s:97     .text:0000000000000074 .L0 
     /tmp/ccnX4DXE.s:103    .text:0000000000000084 .L0 
     /tmp/ccnX4DXE.s:105    .text:0000000000000088 .L0 
     /tmp/ccnX4DXE.s:108    .text:000000000000008c .L0 
     /tmp/ccnX4DXE.s:113    .text:0000000000000094 .L0 
     /tmp/ccnX4DXE.s:114    .text:0000000000000094 .L0 
     /tmp/ccnX4DXE.s:118    .text:000000000000009c .L0 
     /tmp/ccnX4DXE.s:119    .text:000000000000009c .L0 
     /tmp/ccnX4DXE.s:127    .text:00000000000000b4 .L0 
     /tmp/ccnX4DXE.s:128    .text:00000000000000b8 .L0 
     /tmp/ccnX4DXE.s:130    .text:00000000000000bc .L0 
     /tmp/ccnX4DXE.s:131    .text:00000000000000bc .L0 
     /tmp/ccnX4DXE.s:133    .text:00000000000000c0 .L0 
     /tmp/ccnX4DXE.s:135    .text:00000000000000c4 .L0 
     /tmp/ccnX4DXE.s:137    .text:00000000000000c8 .L0 
     /tmp/ccnX4DXE.s:143    .text:00000000000000c8 _Z11__print_intx
     /tmp/ccnX4DXE.s:146    .text:00000000000000c8 .L0 
GAS LISTING /tmp/ccnX4DXE.s 			page 7


     /tmp/ccnX4DXE.s:148    .text:00000000000000c8 .L0 
     /tmp/ccnX4DXE.s:149    .text:00000000000000cc .L0 
     /tmp/ccnX4DXE.s:153    .text:00000000000000d8 .L0 
     /tmp/ccnX4DXE.s:154    .text:00000000000000d8 .L0 
     /tmp/ccnX4DXE.s:155    .text:00000000000000d8 .L0 
     /tmp/ccnX4DXE.s:157    .text:00000000000000dc .L0 
     /tmp/ccnX4DXE.s:160    .text:00000000000000e0 .L0 
     /tmp/ccnX4DXE.s:164    .text:00000000000000e4 .L0 
     /tmp/ccnX4DXE.s:165    .text:00000000000000e4 .L0 
     /tmp/ccnX4DXE.s:169    .text:00000000000000f0 .L0 
     /tmp/ccnX4DXE.s:170    .text:00000000000000f4 .L0 
     /tmp/ccnX4DXE.s:171    .text:00000000000000f4 .L0 
     /tmp/ccnX4DXE.s:173    .text:00000000000000f8 .L0 
     /tmp/ccnX4DXE.s:174    .text:00000000000000f8 .L0 
     /tmp/ccnX4DXE.s:176    .text:00000000000000fc .L0 
     /tmp/ccnX4DXE.s:179    .text:0000000000000100 .L0 
     /tmp/ccnX4DXE.s:183    .text:0000000000000104 .L0 
     /tmp/ccnX4DXE.s:185    .text:0000000000000104 .L0 
     /tmp/ccnX4DXE.s:186    .text:0000000000000104 .L0 
     /tmp/ccnX4DXE.s:190    .text:0000000000000110 .L0 
     /tmp/ccnX4DXE.s:193    .text:0000000000000118 .L0 
     /tmp/ccnX4DXE.s:198    .rodata:0000000000000000 .LANCHOR0
     /tmp/ccnX4DXE.s:201    .rodata:0000000000000000 _ZZ14__print_uint64mE6digits
     /tmp/ccnX4DXE.s:211    .text:0000000000000118 .L0 
     /tmp/ccnX4DXE.s:93     .text:0000000000000064 .L0 
     /tmp/ccnX4DXE.s:43     .text:0000000000000030 .L1
     /tmp/ccnX4DXE.s:28     .text:0000000000000018 .L3
     /tmp/ccnX4DXE.s:85     .text:000000000000005c .L6
     /tmp/ccnX4DXE.s:125    .text:00000000000000b4 .L5
     /tmp/ccnX4DXE.s:111    .text:0000000000000094 .L8
     /tmp/ccnX4DXE.s:182    .text:0000000000000104 .L13
     /tmp/ccnX4DXE.s:162    .text:00000000000000e4 .L11
     /tmp/ccnX4DXE.s:1536   .debug_abbrev:0000000000000000 .Ldebug_abbrev0
     /tmp/ccnX4DXE.s:2765   .debug_str:0000000000000869 .LASF169
     /tmp/ccnX4DXE.s:2753   .debug_str:000000000000082d .LASF170
     /tmp/ccnX4DXE.s:2733   .debug_str:0000000000000797 .LASF171
     /tmp/ccnX4DXE.s:5      .text:0000000000000000 .Ltext0
     /tmp/ccnX4DXE.s:204    .text:0000000000000118 .Letext0
     /tmp/ccnX4DXE.s:2469   .debug_line:0000000000000000 .Ldebug_line0
     /tmp/ccnX4DXE.s:2597   .debug_str:00000000000003c1 .LASF0
     /tmp/ccnX4DXE.s:2621   .debug_str:000000000000045e .LASF1
     /tmp/ccnX4DXE.s:2705   .debug_str:00000000000006c8 .LASF2
     /tmp/ccnX4DXE.s:2553   .debug_str:0000000000000266 .LASF3
     /tmp/ccnX4DXE.s:2471   .debug_str:0000000000000000 .LASF4
     /tmp/ccnX4DXE.s:2715   .debug_str:0000000000000716 .LASF5
     /tmp/ccnX4DXE.s:2607   .debug_str:00000000000003f9 .LASF6
     /tmp/ccnX4DXE.s:2489   .debug_str:00000000000000aa .LASF7
     /tmp/ccnX4DXE.s:2679   .debug_str:00000000000005f3 .LASF8
     /tmp/ccnX4DXE.s:2615   .debug_str:0000000000000432 .LASF9
     /tmp/ccnX4DXE.s:2573   .debug_str:00000000000002e1 .LASF10
     /tmp/ccnX4DXE.s:2581   .debug_str:0000000000000327 .LASF11
     /tmp/ccnX4DXE.s:2517   .debug_str:000000000000016a .LASF12
     /tmp/ccnX4DXE.s:2565   .debug_str:00000000000002b6 .LASF13
     /tmp/ccnX4DXE.s:2531   .debug_str:00000000000001cf .LASF14
     /tmp/ccnX4DXE.s:2515   .debug_str:000000000000015a .LASF15
     /tmp/ccnX4DXE.s:2747   .debug_str:0000000000000810 .LASF16
     /tmp/ccnX4DXE.s:2551   .debug_str:0000000000000250 .LASF17
GAS LISTING /tmp/ccnX4DXE.s 			page 8


     /tmp/ccnX4DXE.s:2739   .debug_str:00000000000007d7 .LASF18
     /tmp/ccnX4DXE.s:2751   .debug_str:0000000000000825 .LASF80
     /tmp/ccnX4DXE.s:2813   .debug_str:0000000000000a71 .LASF19
     /tmp/ccnX4DXE.s:2769   .debug_str:0000000000000941 .LASF21
     /tmp/ccnX4DXE.s:2669   .debug_str:00000000000005bf .LASF172
     /tmp/ccnX4DXE.s:2647   .debug_str:0000000000000528 .LASF20
     /tmp/ccnX4DXE.s:2727   .debug_str:000000000000075f .LASF22
     /tmp/ccnX4DXE.s:2619   .debug_str:000000000000044a .LASF23
     /tmp/ccnX4DXE.s:2821   .debug_str:0000000000000aab .LASF24
     /tmp/ccnX4DXE.s:2583   .debug_str:0000000000000335 .LASF27
     /tmp/ccnX4DXE.s:2653   .debug_str:0000000000000551 .LASF29
     /tmp/ccnX4DXE.s:2499   .debug_str:00000000000000e1 .LASF25
     /tmp/ccnX4DXE.s:2783   .debug_str:0000000000000989 .LASF26
     /tmp/ccnX4DXE.s:2709   .debug_str:00000000000006e3 .LASF28
     /tmp/ccnX4DXE.s:2511   .debug_str:0000000000000133 .LASF30
     /tmp/ccnX4DXE.s:2755   .debug_str:000000000000083d .LASF31
     /tmp/ccnX4DXE.s:2561   .debug_str:0000000000000291 .LASF32
     /tmp/ccnX4DXE.s:2627   .debug_str:000000000000048d .LASF33
     /tmp/ccnX4DXE.s:2789   .debug_str:00000000000009db .LASF34
     /tmp/ccnX4DXE.s:2763   .debug_str:0000000000000861 .LASF173
     /tmp/ccnX4DXE.s:2543   .debug_str:0000000000000213 .LASF35
     /tmp/ccnX4DXE.s:2525   .debug_str:000000000000019d .LASF37
     /tmp/ccnX4DXE.s:2545   .debug_str:000000000000021c .LASF36
     /tmp/ccnX4DXE.s:2711   .debug_str:00000000000006ed .LASF38
     /tmp/ccnX4DXE.s:2633   .debug_str:00000000000004b8 .LASF115
     /tmp/ccnX4DXE.s:2587   .debug_str:000000000000035b .LASF117
     /tmp/ccnX4DXE.s:2665   .debug_str:00000000000005a1 .LASF39
     /tmp/ccnX4DXE.s:2787   .debug_str:00000000000009ba .LASF40
     /tmp/ccnX4DXE.s:2717   .debug_str:000000000000071d .LASF41
     /tmp/ccnX4DXE.s:2485   .debug_str:0000000000000092 .LASF42
     /tmp/ccnX4DXE.s:2817   .debug_str:0000000000000a95 .LASF43
     /tmp/ccnX4DXE.s:2579   .debug_str:000000000000031b .LASF44
     /tmp/ccnX4DXE.s:2507   .debug_str:0000000000000117 .LASF45
     /tmp/ccnX4DXE.s:2571   .debug_str:00000000000002d5 .LASF46
     /tmp/ccnX4DXE.s:2477   .debug_str:0000000000000023 .LASF47
     /tmp/ccnX4DXE.s:2641   .debug_str:00000000000004fb .LASF49
     /tmp/ccnX4DXE.s:2737   .debug_str:00000000000007c4 .LASF48
     /tmp/ccnX4DXE.s:2707   .debug_str:00000000000006d6 .LASF50
     /tmp/ccnX4DXE.s:2473   .debug_str:0000000000000007 .LASF75
     /tmp/ccnX4DXE.s:2723   .debug_str:0000000000000745 .LASF139
     /tmp/ccnX4DXE.s:2475   .debug_str:000000000000001e .LASF51
     /tmp/ccnX4DXE.s:2811   .debug_str:0000000000000a6c .LASF52
     /tmp/ccnX4DXE.s:2731   .debug_str:0000000000000791 .LASF53
     /tmp/ccnX4DXE.s:2749   .debug_str:000000000000081c .LASF54
     /tmp/ccnX4DXE.s:2667   .debug_str:00000000000005b7 .LASF55
     /tmp/ccnX4DXE.s:2771   .debug_str:000000000000095d .LASF56
     /tmp/ccnX4DXE.s:2781   .debug_str:0000000000000981 .LASF57
     /tmp/ccnX4DXE.s:2535   .debug_str:00000000000001e7 .LASF87
     /tmp/ccnX4DXE.s:2483   .debug_str:000000000000006a .LASF88
     /tmp/ccnX4DXE.s:2505   .debug_str:0000000000000109 .LASF58
     /tmp/ccnX4DXE.s:2629   .debug_str:000000000000049a .LASF60
     /tmp/ccnX4DXE.s:2563   .debug_str:00000000000002a7 .LASF59
     /tmp/ccnX4DXE.s:2815   .debug_str:0000000000000a7b .LASF61
     /tmp/ccnX4DXE.s:2697   .debug_str:000000000000068b .LASF62
     /tmp/ccnX4DXE.s:2735   .debug_str:00000000000007ba .LASF63
     /tmp/ccnX4DXE.s:2639   .debug_str:00000000000004e7 .LASF64
     /tmp/ccnX4DXE.s:2631   .debug_str:00000000000004b3 .LASF65
GAS LISTING /tmp/ccnX4DXE.s 			page 9


     /tmp/ccnX4DXE.s:2689   .debug_str:0000000000000654 .LASF66
     /tmp/ccnX4DXE.s:2673   .debug_str:00000000000005cd .LASF67
     /tmp/ccnX4DXE.s:2513   .debug_str:0000000000000148 .LASF68
     /tmp/ccnX4DXE.s:2501   .debug_str:00000000000000ed .LASF69
     /tmp/ccnX4DXE.s:2623   .debug_str:0000000000000471 .LASF70
     /tmp/ccnX4DXE.s:2575   .debug_str:00000000000002f1 .LASF71
     /tmp/ccnX4DXE.s:2659   .debug_str:0000000000000576 .LASF72
     /tmp/ccnX4DXE.s:2613   .debug_str:0000000000000425 .LASF73
     /tmp/ccnX4DXE.s:2555   .debug_str:000000000000026c .LASF74
     /tmp/ccnX4DXE.s:2509   .debug_str:0000000000000127 .LASF76
     /tmp/ccnX4DXE.s:2809   .debug_str:0000000000000a67 .LASF77
     /tmp/ccnX4DXE.s:2497   .debug_str:00000000000000dc .LASF78
     /tmp/ccnX4DXE.s:2797   .debug_str:0000000000000a15 .LASF79
     /tmp/ccnX4DXE.s:2539   .debug_str:00000000000001ff .LASF81
     /tmp/ccnX4DXE.s:2617   .debug_str:0000000000000445 .LASF82
     /tmp/ccnX4DXE.s:2519   .debug_str:0000000000000179 .LASF83
     /tmp/ccnX4DXE.s:2481   .debug_str:000000000000004b .LASF84
     /tmp/ccnX4DXE.s:2493   .debug_str:00000000000000bd .LASF85
     /tmp/ccnX4DXE.s:2479   .debug_str:0000000000000033 .LASF86
     /tmp/ccnX4DXE.s:2521   .debug_str:000000000000017e .LASF89
     /tmp/ccnX4DXE.s:2643   .debug_str:0000000000000508 .LASF174
     /tmp/ccnX4DXE.s:2743   .debug_str:0000000000000800 .LASF90
     /tmp/ccnX4DXE.s:2655   .debug_str:0000000000000568 .LASF91
     /tmp/ccnX4DXE.s:2649   .debug_str:000000000000053d .LASF92
     /tmp/ccnX4DXE.s:2741   .debug_str:00000000000007ed .LASF93
     /tmp/ccnX4DXE.s:2549   .debug_str:0000000000000239 .LASF94
     /tmp/ccnX4DXE.s:2537   .debug_str:00000000000001f5 .LASF175
     /tmp/ccnX4DXE.s:2699   .debug_str:0000000000000690 .LASF176
     /tmp/ccnX4DXE.s:2569   .debug_str:00000000000002cc .LASF95
     /tmp/ccnX4DXE.s:2591   .debug_str:0000000000000386 .LASF96
     /tmp/ccnX4DXE.s:2625   .debug_str:0000000000000485 .LASF97
     /tmp/ccnX4DXE.s:2719   .debug_str:0000000000000722 .LASF98
     /tmp/ccnX4DXE.s:2713   .debug_str:000000000000070c .LASF99
     /tmp/ccnX4DXE.s:2577   .debug_str:00000000000002fd .LASF100
     /tmp/ccnX4DXE.s:2677   .debug_str:00000000000005e9 .LASF101
     /tmp/ccnX4DXE.s:2585   .debug_str:0000000000000340 .LASF102
     /tmp/ccnX4DXE.s:2801   .debug_str:0000000000000a2a .LASF103
     /tmp/ccnX4DXE.s:2803   .debug_str:0000000000000a33 .LASF104
     /tmp/ccnX4DXE.s:2671   .debug_str:00000000000005c4 .LASF105
     /tmp/ccnX4DXE.s:2785   .debug_str:00000000000009a0 .LASF106
     /tmp/ccnX4DXE.s:2823   .debug_str:0000000000000ad2 .LASF107
     /tmp/ccnX4DXE.s:2687   .debug_str:000000000000063b .LASF108
     /tmp/ccnX4DXE.s:2759   .debug_str:000000000000084d .LASF109
     /tmp/ccnX4DXE.s:2691   .debug_str:0000000000000660 .LASF110
     /tmp/ccnX4DXE.s:2547   .debug_str:0000000000000230 .LASF111
     /tmp/ccnX4DXE.s:2773   .debug_str:0000000000000967 .LASF112
     /tmp/ccnX4DXE.s:2725   .debug_str:0000000000000756 .LASF113
     /tmp/ccnX4DXE.s:2675   .debug_str:00000000000005d5 .LASF114
     /tmp/ccnX4DXE.s:2599   .debug_str:00000000000003ce .LASF116
     /tmp/ccnX4DXE.s:2701   .debug_str:00000000000006a7 .LASF118
     /tmp/ccnX4DXE.s:2795   .debug_str:0000000000000a0f .LASF119
     /tmp/ccnX4DXE.s:2593   .debug_str:00000000000003a3 .LASF120
     /tmp/ccnX4DXE.s:2609   .debug_str:000000000000040b .LASF121
     /tmp/ccnX4DXE.s:2793   .debug_str:00000000000009fe .LASF122
     /tmp/ccnX4DXE.s:2729   .debug_str:0000000000000787 .LASF123
     /tmp/ccnX4DXE.s:2683   .debug_str:0000000000000610 .LASF124
     /tmp/ccnX4DXE.s:2523   .debug_str:0000000000000197 .LASF125
GAS LISTING /tmp/ccnX4DXE.s 			page 10


     /tmp/ccnX4DXE.s:2603   .debug_str:00000000000003e0 .LASF126
     /tmp/ccnX4DXE.s:2775   .debug_str:000000000000096c .LASF127
     /tmp/ccnX4DXE.s:2661   .debug_str:0000000000000582 .LASF128
     /tmp/ccnX4DXE.s:2693   .debug_str:000000000000067e .LASF129
     /tmp/ccnX4DXE.s:2527   .debug_str:00000000000001b0 .LASF130
     /tmp/ccnX4DXE.s:2645   .debug_str:0000000000000521 .LASF131
     /tmp/ccnX4DXE.s:2807   .debug_str:0000000000000a55 .LASF132
     /tmp/ccnX4DXE.s:2819   .debug_str:0000000000000aa2 .LASF133
     /tmp/ccnX4DXE.s:2637   .debug_str:00000000000004d3 .LASF134
     /tmp/ccnX4DXE.s:2557   .debug_str:0000000000000279 .LASF135
     /tmp/ccnX4DXE.s:2503   .debug_str:00000000000000f7 .LASF136
     /tmp/ccnX4DXE.s:2657   .debug_str:000000000000056d .LASF137
     /tmp/ccnX4DXE.s:2611   .debug_str:0000000000000411 .LASF138
     /tmp/ccnX4DXE.s:2487   .debug_str:000000000000009e .LASF177
     /tmp/ccnX4DXE.s:2779   .debug_str:000000000000097a .LASF140
     /tmp/ccnX4DXE.s:2761   .debug_str:0000000000000859 .LASF141
     /tmp/ccnX4DXE.s:2805   .debug_str:0000000000000a4d .LASF142
     /tmp/ccnX4DXE.s:2791   .debug_str:00000000000009f4 .LASF143
     /tmp/ccnX4DXE.s:2533   .debug_str:00000000000001df .LASF144
     /tmp/ccnX4DXE.s:2567   .debug_str:00000000000002c5 .LASF145
     /tmp/ccnX4DXE.s:2721   .debug_str:000000000000073e .LASF146
     /tmp/ccnX4DXE.s:2681   .debug_str:0000000000000606 .LASF147
     /tmp/ccnX4DXE.s:2601   .debug_str:00000000000003d8 .LASF148
     /tmp/ccnX4DXE.s:2825   .debug_str:0000000000000ada .LASF149
     /tmp/ccnX4DXE.s:2635   .debug_str:00000000000004cc .LASF150
     /tmp/ccnX4DXE.s:2595   .debug_str:00000000000003b4 .LASF151
     /tmp/ccnX4DXE.s:2703   .debug_str:00000000000006bc .LASF152
     /tmp/ccnX4DXE.s:2663   .debug_str:0000000000000594 .LASF153
     /tmp/ccnX4DXE.s:2589   .debug_str:000000000000037a .LASF154
     /tmp/ccnX4DXE.s:2799   .debug_str:0000000000000a1f .LASF155
     /tmp/ccnX4DXE.s:2745   .debug_str:0000000000000805 .LASF156
     /tmp/ccnX4DXE.s:2757   .debug_str:0000000000000848 .LASF157
     /tmp/ccnX4DXE.s:2491   .debug_str:00000000000000b1 .LASF158
     /tmp/ccnX4DXE.s:2559   .debug_str:0000000000000280 .LASF159
     /tmp/ccnX4DXE.s:144    .text:00000000000000c8 .LFB61
     /tmp/ccnX4DXE.s:194    .text:0000000000000118 .LFE61
     /tmp/ccnX4DXE.s:2605   .debug_str:00000000000003f1 .LASF163
     /tmp/ccnX4DXE.s:2387   .debug_loc:0000000000000000 .LLST4
     /tmp/ccnX4DXE.s:167    .text:00000000000000f0 .LVL16
     /tmp/ccnX4DXE.s:188    .text:0000000000000110 .LVL19
     /tmp/ccnX4DXE.s:2529   .debug_str:00000000000001c1 .LASF160
     /tmp/ccnX4DXE.s:2651   .debug_str:0000000000000542 .LASF161
     /tmp/ccnX4DXE.s:2767   .debug_str:000000000000092d .LASF162
     /tmp/ccnX4DXE.s:64     .text:0000000000000044 .LFB60
     /tmp/ccnX4DXE.s:138    .text:00000000000000c8 .LFE60
     /tmp/ccnX4DXE.s:2402   .debug_loc:0000000000000049 .LLST2
     /tmp/ccnX4DXE.s:2777   .debug_str:0000000000000973 .LASF164
     /tmp/ccnX4DXE.s:2695   .debug_str:0000000000000684 .LASF165
     /tmp/ccnX4DXE.s:2413   .debug_loc:000000000000007f .LLST3
     /tmp/ccnX4DXE.s:123    .text:00000000000000b0 .LVL13
     /tmp/ccnX4DXE.s:2541   .debug_str:0000000000000204 .LASF166
     /tmp/ccnX4DXE.s:2685   .debug_str:0000000000000625 .LASF167
     /tmp/ccnX4DXE.s:10     .text:0000000000000000 .LFB59
     /tmp/ccnX4DXE.s:58     .text:0000000000000044 .LFE59
     /tmp/ccnX4DXE.s:2495   .debug_str:00000000000000d5 .LASF168
     /tmp/ccnX4DXE.s:2435   .debug_loc:00000000000000de .LLST0
     /tmp/ccnX4DXE.s:29     .text:0000000000000018 .LBB2
GAS LISTING /tmp/ccnX4DXE.s 			page 11


     /tmp/ccnX4DXE.s:44     .text:0000000000000030 .LBE2
     /tmp/ccnX4DXE.s:2449   .debug_loc:0000000000000117 .LLST1
     /tmp/ccnX4DXE.s:38     .text:0000000000000028 .LVL2
     /tmp/ccnX4DXE.s:147    .text:00000000000000c8 .LVL14
     /tmp/ccnX4DXE.s:161    .text:00000000000000e4 .LVL15
     /tmp/ccnX4DXE.s:177    .text:00000000000000fc .LVL17
     /tmp/ccnX4DXE.s:181    .text:0000000000000104 .LVL18
     /tmp/ccnX4DXE.s:67     .text:0000000000000044 .LVL5
     /tmp/ccnX4DXE.s:106    .text:000000000000008c .LVL10
     /tmp/ccnX4DXE.s:110    .text:0000000000000094 .LVL11
     /tmp/ccnX4DXE.s:81     .text:0000000000000058 .LVL6
     /tmp/ccnX4DXE.s:84     .text:000000000000005c .LVL7
     /tmp/ccnX4DXE.s:91     .text:0000000000000064 .LVL8
     /tmp/ccnX4DXE.s:100    .text:0000000000000080 .LVL9
     /tmp/ccnX4DXE.s:115    .text:0000000000000098 .LVL12
     /tmp/ccnX4DXE.s:14     .text:0000000000000000 .LVL0
     /tmp/ccnX4DXE.s:27     .text:0000000000000018 .LVL1
     /tmp/ccnX4DXE.s:53     .text:000000000000003c .LVL4
     /tmp/ccnX4DXE.s:212    .debug_info:0000000000000000 .Ldebug_info0

UNDEFINED SYMBOLS
_ZN4Uart5txPutEc
