GAS LISTING /tmp/cccqIzys.s 			page 1


   1              		.file	"__print.cpp"
   2              		.option pic
   3              		.option norelax
   4              		.text
   5              	.Ltext0:
   6              		.align	2
   7              		.globl	_Z14__print_stringPKc
   9              	_Z14__print_stringPKc:
  10              	.LFB58:
  11              		.file 1 "src/__print.cpp"
   1:src/__print.cpp **** //
   2:src/__print.cpp **** // Created by os on 9/6/22.
   3:src/__print.cpp **** //
   4:src/__print.cpp **** 
   5:src/__print.cpp **** #include "../lib/hw.h"
   6:src/__print.cpp **** #include "../h/__print.hpp"
   7:src/__print.cpp **** #include "../h/uart.hpp"
   8:src/__print.cpp **** 
   9:src/__print.cpp **** void __print_string(char const *string) {
  12              		.loc 1 9 41
  13              		.cfi_startproc
  14              	.LVL0:
  15 0000 130101FE 		addi	sp,sp,-32
  16              		.cfi_def_cfa_offset 32
  17 0004 233C1100 		sd	ra,24(sp)
  18 0008 23388100 		sd	s0,16(sp)
  19 000c 23349100 		sd	s1,8(sp)
  20              		.cfi_offset 1, -8
  21              		.cfi_offset 8, -16
  22              		.cfi_offset 9, -24
  23 0010 13040102 		addi	s0,sp,32
  24              		.cfi_def_cfa 8, 0
  25 0014 93040500 		mv	s1,a0
  10:src/__print.cpp ****     for (char const *c = string; *c != '\0'; c++) Uart::txPut(*c);
  26              		.loc 1 10 5
  27              	.LVL1:
  28              	.L3:
  29              	.LBB2:
  30              		.loc 1 10 37 discriminator 3
  31              		.loc 1 10 34 is_stmt 0 discriminator 3
  32 0018 03C50400 		lbu	a0,0(s1)
  33              		.loc 1 10 37 discriminator 3
  34 001c 630A0500 		beqz	a0,.L1
  35              		.loc 1 10 51 is_stmt 1 discriminator 2
  36              		.loc 1 10 62 is_stmt 0 discriminator 2
  37 0020 97000000 		call	_ZN4Uart5txPutEc@plt
  37      E7800000 
  38              	.LVL2:
  39              		.loc 1 10 5 is_stmt 1 discriminator 2
  40 0028 93841400 		addi	s1,s1,1
  41              	.LVL3:
  42 002c 6FF0DFFE 		j	.L3
  43              	.L1:
  44              	.LBE2:
  11:src/__print.cpp **** }
  45              		.loc 1 11 1 is_stmt 0
  46 0030 83308101 		ld	ra,24(sp)
GAS LISTING /tmp/cccqIzys.s 			page 2


  47              		.cfi_restore 1
  48 0034 03340101 		ld	s0,16(sp)
  49              		.cfi_restore 8
  50              		.cfi_def_cfa 2, 32
  51 0038 83348100 		ld	s1,8(sp)
  52              		.cfi_restore 9
  53              	.LVL4:
  54 003c 13010102 		addi	sp,sp,32
  55              		.cfi_def_cfa_offset 0
  56 0040 67800000 		jr	ra
  57              		.cfi_endproc
  58              	.LFE58:
  60              		.align	2
  61              		.globl	_Z14__print_uint64m
  63              	_Z14__print_uint64m:
  64              	.LFB59:
  12:src/__print.cpp **** 
  13:src/__print.cpp **** void __print_uint64(uint64 integer) {
  65              		.loc 1 13 37 is_stmt 1
  66              		.cfi_startproc
  67              	.LVL5:
  68 0044 130101FC 		addi	sp,sp,-64
  69              		.cfi_def_cfa_offset 64
  70 0048 233C1102 		sd	ra,56(sp)
  71 004c 23388102 		sd	s0,48(sp)
  72 0050 23349102 		sd	s1,40(sp)
  73              		.cfi_offset 1, -8
  74              		.cfi_offset 8, -16
  75              		.cfi_offset 9, -24
  76 0054 13040104 		addi	s0,sp,64
  77              		.cfi_def_cfa 8, 0
  14:src/__print.cpp ****     static char digits[] = "0123456789";
  78              		.loc 1 14 5
  15:src/__print.cpp ****     char output[20];
  79              		.loc 1 15 5
  16:src/__print.cpp ****     int i = 0;
  80              		.loc 1 16 5
  81              	.LVL6:
  82              		.loc 1 16 9 is_stmt 0
  83 0058 93040000 		li	s1,0
  84              	.LVL7:
  85              	.L6:
  17:src/__print.cpp ****     do {
  86              		.loc 1 17 5 is_stmt 1
  18:src/__print.cpp ****         output[i++] = digits[integer % 10];
  87              		.loc 1 18 9
  88              		.loc 1 18 38 is_stmt 0
  89 005c 9306A000 		li	a3,10
  90 0060 3376D502 		remu	a2,a0,a3
  91              	.LVL8:
  92              		.loc 1 18 42
  93 0064 17070000 		lla	a4,.LANCHOR0
  93      13070700 
  94 006c 3307C700 		add	a4,a4,a2
  95 0070 03470700 		lbu	a4,0(a4)
  96              		.loc 1 18 21
  97 0074 130604FE 		addi	a2,s0,-32
GAS LISTING /tmp/cccqIzys.s 			page 3


  98 0078 B3079600 		add	a5,a2,s1
  99 007c 9B841400 		addiw	s1,s1,1
 100              	.LVL9:
 101 0080 2384E7FE 		sb	a4,-24(a5)
  19:src/__print.cpp ****     } while ((integer/=10) != 0);
 102              		.loc 1 19 28 is_stmt 1
 103 0084 13070500 		mv	a4,a0
 104              		.loc 1 19 22 is_stmt 0
 105 0088 3355D502 		divu	a0,a0,a3
 106              	.LVL10:
 107              		.loc 1 19 28
 108 008c 93079000 		li	a5,9
 109 0090 E3E6E7FC 		bgtu	a4,a5,.L6
 110              	.LVL11:
 111              	.L8:
  20:src/__print.cpp ****     while(--i >= 0) Uart::txPut(output[i]);
 112              		.loc 1 20 5 is_stmt 1
 113              		.loc 1 20 15
 114 0094 9B84F4FF 		addiw	s1,s1,-1
 115              	.LVL12:
 116 0098 63CE0400 		bltz	s1,.L5
 117              		.loc 1 20 21 discriminator 1
 118              		.loc 1 20 32 is_stmt 0 discriminator 1
 119 009c 930704FE 		addi	a5,s0,-32
 120 00a0 B3879700 		add	a5,a5,s1
 121 00a4 03C587FE 		lbu	a0,-24(a5)
 122 00a8 97000000 		call	_ZN4Uart5txPutEc@plt
 122      E7800000 
 123              	.LVL13:
 124 00b0 6FF05FFE 		j	.L8
 125              	.L5:
  21:src/__print.cpp **** }
 126              		.loc 1 21 1
 127 00b4 83308103 		ld	ra,56(sp)
 128              		.cfi_restore 1
 129 00b8 03340103 		ld	s0,48(sp)
 130              		.cfi_restore 8
 131              		.cfi_def_cfa 2, 64
 132 00bc 83348102 		ld	s1,40(sp)
 133              		.cfi_restore 9
 134 00c0 13010104 		addi	sp,sp,64
 135              		.cfi_def_cfa_offset 0
 136 00c4 67800000 		jr	ra
 137              		.cfi_endproc
 138              	.LFE59:
 140              		.section	.rodata
 141              		.align	3
 142              		.set	.LANCHOR0,. + 0
 145              	_ZZ14__print_uint64mE6digits:
 146 0000 30313233 		.string	"0123456789"
 146      34353637 
 146      383900
 147              		.text
 148              	.Letext0:
 149              		.file 2 "src/../lib/hw.h"
 150              		.file 3 "src/../h/tcb.hpp"
 151              		.file 4 "src/../h/sem.hpp"
GAS LISTING /tmp/cccqIzys.s 			page 4


 152              		.file 5 "src/../h/list.hpp"
 153              		.file 6 "src/../h/uart.hpp"
 154              		.file 7 "src/../h/syscall_c.h"
GAS LISTING /tmp/cccqIzys.s 			page 5


DEFINED SYMBOLS
                            *ABS*:0000000000000000 __print.cpp
     /tmp/cccqIzys.s:9      .text:0000000000000000 _Z14__print_stringPKc
     /tmp/cccqIzys.s:13     .text:0000000000000000 .L0 
     /tmp/cccqIzys.s:15     .text:0000000000000000 .L0 
     /tmp/cccqIzys.s:16     .text:0000000000000004 .L0 
     /tmp/cccqIzys.s:20     .text:0000000000000010 .L0 
     /tmp/cccqIzys.s:21     .text:0000000000000010 .L0 
     /tmp/cccqIzys.s:22     .text:0000000000000010 .L0 
     /tmp/cccqIzys.s:24     .text:0000000000000014 .L0 
     /tmp/cccqIzys.s:30     .text:0000000000000018 .L0 
     /tmp/cccqIzys.s:31     .text:0000000000000018 .L0 
     /tmp/cccqIzys.s:32     .text:0000000000000018 .L0 
     /tmp/cccqIzys.s:34     .text:000000000000001c .L0 
     /tmp/cccqIzys.s:36     .text:0000000000000020 .L0 
     /tmp/cccqIzys.s:37     .text:0000000000000020 .L0 
     /tmp/cccqIzys.s:40     .text:0000000000000028 .L0 
     /tmp/cccqIzys.s:46     .text:0000000000000030 .L0 
     /tmp/cccqIzys.s:47     .text:0000000000000034 .L0 
     /tmp/cccqIzys.s:49     .text:0000000000000038 .L0 
     /tmp/cccqIzys.s:50     .text:0000000000000038 .L0 
     /tmp/cccqIzys.s:52     .text:000000000000003c .L0 
     /tmp/cccqIzys.s:55     .text:0000000000000040 .L0 
     /tmp/cccqIzys.s:57     .text:0000000000000044 .L0 
     /tmp/cccqIzys.s:63     .text:0000000000000044 _Z14__print_uint64m
     /tmp/cccqIzys.s:66     .text:0000000000000044 .L0 
     /tmp/cccqIzys.s:68     .text:0000000000000044 .L0 
     /tmp/cccqIzys.s:69     .text:0000000000000048 .L0 
     /tmp/cccqIzys.s:73     .text:0000000000000054 .L0 
     /tmp/cccqIzys.s:74     .text:0000000000000054 .L0 
     /tmp/cccqIzys.s:75     .text:0000000000000054 .L0 
     /tmp/cccqIzys.s:77     .text:0000000000000058 .L0 
     /tmp/cccqIzys.s:79     .text:0000000000000058 .L0 
     /tmp/cccqIzys.s:80     .text:0000000000000058 .L0 
     /tmp/cccqIzys.s:82     .text:0000000000000058 .L0 
     /tmp/cccqIzys.s:83     .text:0000000000000058 .L0 
     /tmp/cccqIzys.s:87     .text:000000000000005c .L0 
     /tmp/cccqIzys.s:88     .text:000000000000005c .L0 
     /tmp/cccqIzys.s:89     .text:000000000000005c .L0 
     /tmp/cccqIzys.s:93     .text:0000000000000064 .L0 
     /tmp/cccqIzys.s:97     .text:0000000000000074 .L0 
     /tmp/cccqIzys.s:103    .text:0000000000000084 .L0 
     /tmp/cccqIzys.s:105    .text:0000000000000088 .L0 
     /tmp/cccqIzys.s:108    .text:000000000000008c .L0 
     /tmp/cccqIzys.s:113    .text:0000000000000094 .L0 
     /tmp/cccqIzys.s:114    .text:0000000000000094 .L0 
     /tmp/cccqIzys.s:118    .text:000000000000009c .L0 
     /tmp/cccqIzys.s:119    .text:000000000000009c .L0 
     /tmp/cccqIzys.s:127    .text:00000000000000b4 .L0 
     /tmp/cccqIzys.s:128    .text:00000000000000b8 .L0 
     /tmp/cccqIzys.s:130    .text:00000000000000bc .L0 
     /tmp/cccqIzys.s:131    .text:00000000000000bc .L0 
     /tmp/cccqIzys.s:133    .text:00000000000000c0 .L0 
     /tmp/cccqIzys.s:135    .text:00000000000000c4 .L0 
     /tmp/cccqIzys.s:137    .text:00000000000000c8 .L0 
     /tmp/cccqIzys.s:142    .rodata:0000000000000000 .LANCHOR0
     /tmp/cccqIzys.s:145    .rodata:0000000000000000 _ZZ14__print_uint64mE6digits
GAS LISTING /tmp/cccqIzys.s 			page 6


     /tmp/cccqIzys.s:155    .text:00000000000000c8 .L0 
     /tmp/cccqIzys.s:93     .text:0000000000000064 .L0 
     /tmp/cccqIzys.s:43     .text:0000000000000030 .L1
     /tmp/cccqIzys.s:28     .text:0000000000000018 .L3
     /tmp/cccqIzys.s:85     .text:000000000000005c .L6
     /tmp/cccqIzys.s:125    .text:00000000000000b4 .L5
     /tmp/cccqIzys.s:111    .text:0000000000000094 .L8
     /tmp/cccqIzys.s:1372   .debug_abbrev:0000000000000000 .Ldebug_abbrev0
     /tmp/cccqIzys.s:2503   .debug_str:00000000000007db .LASF158
     /tmp/cccqIzys.s:2491   .debug_str:000000000000079f .LASF159
     /tmp/cccqIzys.s:2471   .debug_str:0000000000000709 .LASF160
     /tmp/cccqIzys.s:5      .text:0000000000000000 .Ltext0
     /tmp/cccqIzys.s:148    .text:00000000000000c8 .Letext0
     /tmp/cccqIzys.s:2223   .debug_line:0000000000000000 .Ldebug_line0
     /tmp/cccqIzys.s:2339   .debug_str:0000000000000351 .LASF0
     /tmp/cccqIzys.s:2361   .debug_str:00000000000003e9 .LASF1
     /tmp/cccqIzys.s:2443   .debug_str:000000000000063a .LASF2
     /tmp/cccqIzys.s:2295   .debug_str:00000000000001ea .LASF3
     /tmp/cccqIzys.s:2225   .debug_str:0000000000000000 .LASF4
     /tmp/cccqIzys.s:2453   .debug_str:0000000000000688 .LASF5
     /tmp/cccqIzys.s:2349   .debug_str:0000000000000389 .LASF6
     /tmp/cccqIzys.s:2239   .debug_str:0000000000000073 .LASF7
     /tmp/cccqIzys.s:2417   .debug_str:0000000000000565 .LASF8
     /tmp/cccqIzys.s:2357   .debug_str:00000000000003c2 .LASF9
     /tmp/cccqIzys.s:2313   .debug_str:0000000000000254 .LASF10
     /tmp/cccqIzys.s:2321   .debug_str:000000000000029a .LASF11
     /tmp/cccqIzys.s:2263   .debug_str:000000000000010f .LASF12
     /tmp/cccqIzys.s:2305   .debug_str:0000000000000229 .LASF13
     /tmp/cccqIzys.s:2273   .debug_str:0000000000000153 .LASF14
     /tmp/cccqIzys.s:2261   .debug_str:00000000000000ff .LASF15
     /tmp/cccqIzys.s:2485   .debug_str:0000000000000782 .LASF16
     /tmp/cccqIzys.s:2293   .debug_str:00000000000001d4 .LASF17
     /tmp/cccqIzys.s:2477   .debug_str:0000000000000749 .LASF18
     /tmp/cccqIzys.s:2489   .debug_str:0000000000000797 .LASF161
     /tmp/cccqIzys.s:2551   .debug_str:00000000000009e3 .LASF19
     /tmp/cccqIzys.s:2507   .debug_str:00000000000008b3 .LASF21
     /tmp/cccqIzys.s:2407   .debug_str:0000000000000531 .LASF162
     /tmp/cccqIzys.s:2385   .debug_str:000000000000049a .LASF20
     /tmp/cccqIzys.s:2465   .debug_str:00000000000006d1 .LASF22
     /tmp/cccqIzys.s:2359   .debug_str:00000000000003d5 .LASF23
     /tmp/cccqIzys.s:2559   .debug_str:0000000000000a1d .LASF24
     /tmp/cccqIzys.s:2323   .debug_str:00000000000002a8 .LASF27
     /tmp/cccqIzys.s:2391   .debug_str:00000000000004c3 .LASF29
     /tmp/cccqIzys.s:2245   .debug_str:0000000000000086 .LASF25
     /tmp/cccqIzys.s:2521   .debug_str:00000000000008fb .LASF26
     /tmp/cccqIzys.s:2447   .debug_str:0000000000000655 .LASF28
     /tmp/cccqIzys.s:2257   .debug_str:00000000000000d8 .LASF30
     /tmp/cccqIzys.s:2493   .debug_str:00000000000007af .LASF31
     /tmp/cccqIzys.s:2301   .debug_str:0000000000000204 .LASF32
     /tmp/cccqIzys.s:2367   .debug_str:0000000000000418 .LASF33
     /tmp/cccqIzys.s:2527   .debug_str:000000000000094d .LASF34
     /tmp/cccqIzys.s:2501   .debug_str:00000000000007d3 .LASF163
     /tmp/cccqIzys.s:2285   .debug_str:0000000000000197 .LASF35
     /tmp/cccqIzys.s:2267   .debug_str:0000000000000124 .LASF37
     /tmp/cccqIzys.s:2287   .debug_str:00000000000001a0 .LASF36
     /tmp/cccqIzys.s:2449   .debug_str:000000000000065f .LASF38
     /tmp/cccqIzys.s:2373   .debug_str:0000000000000443 .LASF107
GAS LISTING /tmp/cccqIzys.s 			page 7


     /tmp/cccqIzys.s:2327   .debug_str:00000000000002ce .LASF109
     /tmp/cccqIzys.s:2403   .debug_str:0000000000000513 .LASF39
     /tmp/cccqIzys.s:2525   .debug_str:000000000000092c .LASF40
     /tmp/cccqIzys.s:2455   .debug_str:000000000000068f .LASF41
     /tmp/cccqIzys.s:2235   .debug_str:000000000000005b .LASF42
     /tmp/cccqIzys.s:2555   .debug_str:0000000000000a07 .LASF43
     /tmp/cccqIzys.s:2319   .debug_str:000000000000028e .LASF44
     /tmp/cccqIzys.s:2253   .debug_str:00000000000000bc .LASF45
     /tmp/cccqIzys.s:2311   .debug_str:0000000000000248 .LASF46
     /tmp/cccqIzys.s:2231   .debug_str:0000000000000023 .LASF47
     /tmp/cccqIzys.s:2381   .debug_str:0000000000000486 .LASF49
     /tmp/cccqIzys.s:2475   .debug_str:0000000000000736 .LASF48
     /tmp/cccqIzys.s:2445   .debug_str:0000000000000648 .LASF50
     /tmp/cccqIzys.s:2227   .debug_str:0000000000000007 .LASF75
     /tmp/cccqIzys.s:2461   .debug_str:00000000000006b7 .LASF131
     /tmp/cccqIzys.s:2229   .debug_str:000000000000001e .LASF51
     /tmp/cccqIzys.s:2549   .debug_str:00000000000009de .LASF52
     /tmp/cccqIzys.s:2469   .debug_str:0000000000000703 .LASF53
     /tmp/cccqIzys.s:2487   .debug_str:000000000000078e .LASF54
     /tmp/cccqIzys.s:2405   .debug_str:0000000000000529 .LASF55
     /tmp/cccqIzys.s:2509   .debug_str:00000000000008cf .LASF56
     /tmp/cccqIzys.s:2519   .debug_str:00000000000008f3 .LASF57
     /tmp/cccqIzys.s:2277   .debug_str:000000000000016b .LASF164
     /tmp/cccqIzys.s:2233   .debug_str:0000000000000033 .LASF165
     /tmp/cccqIzys.s:2251   .debug_str:00000000000000ae .LASF58
     /tmp/cccqIzys.s:2369   .debug_str:0000000000000425 .LASF60
     /tmp/cccqIzys.s:2303   .debug_str:000000000000021a .LASF59
     /tmp/cccqIzys.s:2553   .debug_str:00000000000009ed .LASF61
     /tmp/cccqIzys.s:2435   .debug_str:00000000000005fd .LASF62
     /tmp/cccqIzys.s:2473   .debug_str:000000000000072c .LASF63
     /tmp/cccqIzys.s:2379   .debug_str:0000000000000472 .LASF64
     /tmp/cccqIzys.s:2371   .debug_str:000000000000043e .LASF65
     /tmp/cccqIzys.s:2427   .debug_str:00000000000005c6 .LASF66
     /tmp/cccqIzys.s:2411   .debug_str:000000000000053f .LASF67
     /tmp/cccqIzys.s:2259   .debug_str:00000000000000ed .LASF68
     /tmp/cccqIzys.s:2247   .debug_str:0000000000000092 .LASF69
     /tmp/cccqIzys.s:2363   .debug_str:00000000000003fc .LASF70
     /tmp/cccqIzys.s:2315   .debug_str:0000000000000264 .LASF71
     /tmp/cccqIzys.s:2397   .debug_str:00000000000004e8 .LASF72
     /tmp/cccqIzys.s:2355   .debug_str:00000000000003b5 .LASF73
     /tmp/cccqIzys.s:2297   .debug_str:00000000000001f0 .LASF74
     /tmp/cccqIzys.s:2255   .debug_str:00000000000000cc .LASF76
     /tmp/cccqIzys.s:2547   .debug_str:00000000000009d9 .LASF77
     /tmp/cccqIzys.s:2243   .debug_str:0000000000000081 .LASF78
     /tmp/cccqIzys.s:2535   .debug_str:0000000000000987 .LASF79
     /tmp/cccqIzys.s:2281   .debug_str:0000000000000183 .LASF166
     /tmp/cccqIzys.s:2481   .debug_str:0000000000000772 .LASF80
     /tmp/cccqIzys.s:2393   .debug_str:00000000000004da .LASF81
     /tmp/cccqIzys.s:2387   .debug_str:00000000000004af .LASF82
     /tmp/cccqIzys.s:2479   .debug_str:000000000000075f .LASF83
     /tmp/cccqIzys.s:2291   .debug_str:00000000000001bd .LASF84
     /tmp/cccqIzys.s:2279   .debug_str:0000000000000179 .LASF167
     /tmp/cccqIzys.s:2437   .debug_str:0000000000000602 .LASF168
     /tmp/cccqIzys.s:2309   .debug_str:000000000000023f .LASF85
     /tmp/cccqIzys.s:2333   .debug_str:0000000000000316 .LASF86
     /tmp/cccqIzys.s:2365   .debug_str:0000000000000410 .LASF87
     /tmp/cccqIzys.s:2457   .debug_str:0000000000000694 .LASF88
GAS LISTING /tmp/cccqIzys.s 			page 8


     /tmp/cccqIzys.s:2451   .debug_str:000000000000067e .LASF89
     /tmp/cccqIzys.s:2317   .debug_str:0000000000000270 .LASF90
     /tmp/cccqIzys.s:2415   .debug_str:000000000000055b .LASF91
     /tmp/cccqIzys.s:2325   .debug_str:00000000000002b3 .LASF92
     /tmp/cccqIzys.s:2539   .debug_str:000000000000099c .LASF93
     /tmp/cccqIzys.s:2541   .debug_str:00000000000009a5 .LASF94
     /tmp/cccqIzys.s:2409   .debug_str:0000000000000536 .LASF95
     /tmp/cccqIzys.s:2523   .debug_str:0000000000000912 .LASF96
     /tmp/cccqIzys.s:2561   .debug_str:0000000000000a44 .LASF97
     /tmp/cccqIzys.s:2425   .debug_str:00000000000005ad .LASF98
     /tmp/cccqIzys.s:2271   .debug_str:0000000000000148 .LASF99
     /tmp/cccqIzys.s:2331   .debug_str:00000000000002f9 .LASF100
     /tmp/cccqIzys.s:2497   .debug_str:00000000000007bf .LASF101
     /tmp/cccqIzys.s:2429   .debug_str:00000000000005d2 .LASF102
     /tmp/cccqIzys.s:2289   .debug_str:00000000000001b4 .LASF103
     /tmp/cccqIzys.s:2511   .debug_str:00000000000008d9 .LASF104
     /tmp/cccqIzys.s:2463   .debug_str:00000000000006c8 .LASF105
     /tmp/cccqIzys.s:2413   .debug_str:0000000000000547 .LASF106
     /tmp/cccqIzys.s:2341   .debug_str:000000000000035e .LASF108
     /tmp/cccqIzys.s:2439   .debug_str:0000000000000619 .LASF110
     /tmp/cccqIzys.s:2533   .debug_str:0000000000000981 .LASF111
     /tmp/cccqIzys.s:2335   .debug_str:0000000000000333 .LASF112
     /tmp/cccqIzys.s:2351   .debug_str:000000000000039b .LASF113
     /tmp/cccqIzys.s:2531   .debug_str:0000000000000970 .LASF114
     /tmp/cccqIzys.s:2467   .debug_str:00000000000006f9 .LASF115
     /tmp/cccqIzys.s:2421   .debug_str:0000000000000582 .LASF116
     /tmp/cccqIzys.s:2265   .debug_str:000000000000011e .LASF117
     /tmp/cccqIzys.s:2345   .debug_str:0000000000000370 .LASF118
     /tmp/cccqIzys.s:2513   .debug_str:00000000000008de .LASF119
     /tmp/cccqIzys.s:2399   .debug_str:00000000000004f4 .LASF120
     /tmp/cccqIzys.s:2431   .debug_str:00000000000005f0 .LASF121
     /tmp/cccqIzys.s:2269   .debug_str:0000000000000137 .LASF122
     /tmp/cccqIzys.s:2383   .debug_str:0000000000000493 .LASF123
     /tmp/cccqIzys.s:2545   .debug_str:00000000000009c7 .LASF124
     /tmp/cccqIzys.s:2557   .debug_str:0000000000000a14 .LASF125
     /tmp/cccqIzys.s:2377   .debug_str:000000000000045e .LASF126
     /tmp/cccqIzys.s:2299   .debug_str:00000000000001fd .LASF127
     /tmp/cccqIzys.s:2249   .debug_str:000000000000009c .LASF128
     /tmp/cccqIzys.s:2395   .debug_str:00000000000004df .LASF129
     /tmp/cccqIzys.s:2353   .debug_str:00000000000003a1 .LASF130
     /tmp/cccqIzys.s:2237   .debug_str:0000000000000067 .LASF169
     /tmp/cccqIzys.s:2517   .debug_str:00000000000008ec .LASF132
     /tmp/cccqIzys.s:2499   .debug_str:00000000000007cb .LASF133
     /tmp/cccqIzys.s:2543   .debug_str:00000000000009bf .LASF134
     /tmp/cccqIzys.s:2529   .debug_str:0000000000000966 .LASF135
     /tmp/cccqIzys.s:2275   .debug_str:0000000000000163 .LASF136
     /tmp/cccqIzys.s:2307   .debug_str:0000000000000238 .LASF137
     /tmp/cccqIzys.s:2459   .debug_str:00000000000006b0 .LASF138
     /tmp/cccqIzys.s:2419   .debug_str:0000000000000578 .LASF139
     /tmp/cccqIzys.s:2343   .debug_str:0000000000000368 .LASF140
     /tmp/cccqIzys.s:2563   .debug_str:0000000000000a4c .LASF141
     /tmp/cccqIzys.s:2375   .debug_str:0000000000000457 .LASF142
     /tmp/cccqIzys.s:2337   .debug_str:0000000000000344 .LASF143
     /tmp/cccqIzys.s:2441   .debug_str:000000000000062e .LASF144
     /tmp/cccqIzys.s:2401   .debug_str:0000000000000506 .LASF145
     /tmp/cccqIzys.s:2329   .debug_str:00000000000002ed .LASF146
     /tmp/cccqIzys.s:2537   .debug_str:0000000000000991 .LASF147
GAS LISTING /tmp/cccqIzys.s 			page 9


     /tmp/cccqIzys.s:2483   .debug_str:0000000000000777 .LASF148
     /tmp/cccqIzys.s:2495   .debug_str:00000000000007ba .LASF149
     /tmp/cccqIzys.s:2389   .debug_str:00000000000004b4 .LASF150
     /tmp/cccqIzys.s:2505   .debug_str:000000000000089f .LASF151
     /tmp/cccqIzys.s:64     .text:0000000000000044 .LFB59
     /tmp/cccqIzys.s:138    .text:00000000000000c8 .LFE59
     /tmp/cccqIzys.s:2347   .debug_str:0000000000000381 .LASF156
     /tmp/cccqIzys.s:2156   .debug_loc:0000000000000000 .LLST2
     /tmp/cccqIzys.s:2515   .debug_str:00000000000008e5 .LASF152
     /tmp/cccqIzys.s:2433   .debug_str:00000000000005f6 .LASF153
     /tmp/cccqIzys.s:2167   .debug_loc:0000000000000036 .LLST3
     /tmp/cccqIzys.s:123    .text:00000000000000b0 .LVL13
     /tmp/cccqIzys.s:2283   .debug_str:0000000000000188 .LASF154
     /tmp/cccqIzys.s:2423   .debug_str:0000000000000597 .LASF155
     /tmp/cccqIzys.s:10     .text:0000000000000000 .LFB58
     /tmp/cccqIzys.s:58     .text:0000000000000044 .LFE58
     /tmp/cccqIzys.s:2241   .debug_str:000000000000007a .LASF157
     /tmp/cccqIzys.s:2189   .debug_loc:0000000000000095 .LLST0
     /tmp/cccqIzys.s:29     .text:0000000000000018 .LBB2
     /tmp/cccqIzys.s:44     .text:0000000000000030 .LBE2
     /tmp/cccqIzys.s:2203   .debug_loc:00000000000000ce .LLST1
     /tmp/cccqIzys.s:38     .text:0000000000000028 .LVL2
     /tmp/cccqIzys.s:67     .text:0000000000000044 .LVL5
     /tmp/cccqIzys.s:106    .text:000000000000008c .LVL10
     /tmp/cccqIzys.s:110    .text:0000000000000094 .LVL11
     /tmp/cccqIzys.s:81     .text:0000000000000058 .LVL6
     /tmp/cccqIzys.s:84     .text:000000000000005c .LVL7
     /tmp/cccqIzys.s:91     .text:0000000000000064 .LVL8
     /tmp/cccqIzys.s:100    .text:0000000000000080 .LVL9
     /tmp/cccqIzys.s:115    .text:0000000000000098 .LVL12
     /tmp/cccqIzys.s:14     .text:0000000000000000 .LVL0
     /tmp/cccqIzys.s:27     .text:0000000000000018 .LVL1
     /tmp/cccqIzys.s:53     .text:000000000000003c .LVL4
     /tmp/cccqIzys.s:156    .debug_info:0000000000000000 .Ldebug_info0

UNDEFINED SYMBOLS
_ZN4Uart5txPutEc
