GAS LISTING /tmp/ccnX4DXE.s 			page 1


   1              		.file	"__print.cpp"
   2              		.option pic
   3              		.option norelax
   4              		.text
   5              	.Ltext0:
   6              		.align	2
   7              		.globl	_Z14__print_stringPKc
   9              	_Z14__print_stringPKc:
  10              	.LFB59:
  11              		.file 1 "src/__print.cpp"
   1:src/__print.cpp **** //
   2:src/__print.cpp **** // Created by os on 9/6/22.
   3:src/__print.cpp **** //
   4:src/__print.cpp **** 
   5:src/__print.cpp **** #include "../lib/hw.h"
   6:src/__print.cpp **** #include "../h/uart.hpp"
   7:src/__print.cpp **** #include "../h/__print.hpp"
   8:src/__print.cpp **** 
   9:src/__print.cpp **** void __print_string(char const *string) {
  12              		.loc 1 9 41
  13              		.cfi_startproc
  14              	.LVL0:
  15 0000 130101FE 		addi	sp,sp,-32
  16              		.cfi_def_cfa_offset 32
  17 0004 233C1100 		sd	ra,24(sp)
  18 0008 23388100 		sd	s0,16(sp)
  19 000c 23349100 		sd	s1,8(sp)
  20              		.cfi_offset 1, -8
  21              		.cfi_offset 8, -16
  22              		.cfi_offset 9, -24
  23 0010 13040102 		addi	s0,sp,32
  24              		.cfi_def_cfa 8, 0
  25 0014 93040500 		mv	s1,a0
  10:src/__print.cpp ****     for (char const *c = string; *c != '\0'; c++) Uart::txPut(*c);
  26              		.loc 1 10 5
  27              	.LVL1:
  28              	.L3:
  29              	.LBB2:
  30              		.loc 1 10 37 discriminator 3
  31              		.loc 1 10 34 is_stmt 0 discriminator 3
  32 0018 03C50400 		lbu	a0,0(s1)
  33              		.loc 1 10 37 discriminator 3
  34 001c 630A0500 		beqz	a0,.L1
  35              		.loc 1 10 51 is_stmt 1 discriminator 2
  36              		.loc 1 10 62 is_stmt 0 discriminator 2
  37 0020 97000000 		call	_ZN4Uart5txPutEc@plt
  37      E7800000 
  38              	.LVL2:
  39              		.loc 1 10 5 is_stmt 1 discriminator 2
  40 0028 93841400 		addi	s1,s1,1
  41              	.LVL3:
  42 002c 6FF0DFFE 		j	.L3
  43              	.L1:
  44              	.LBE2:
  11:src/__print.cpp **** }
  45              		.loc 1 11 1 is_stmt 0
  46 0030 83308101 		ld	ra,24(sp)
GAS LISTING /tmp/ccnX4DXE.s 			page 2


  47              		.cfi_restore 1
  48 0034 03340101 		ld	s0,16(sp)
  49              		.cfi_restore 8
  50              		.cfi_def_cfa 2, 32
  51 0038 83348100 		ld	s1,8(sp)
  52              		.cfi_restore 9
  53              	.LVL4:
  54 003c 13010102 		addi	sp,sp,32
  55              		.cfi_def_cfa_offset 0
  56 0040 67800000 		jr	ra
  57              		.cfi_endproc
  58              	.LFE59:
  60              		.align	2
  61              		.globl	_Z14__print_uint64m
  63              	_Z14__print_uint64m:
  64              	.LFB60:
  12:src/__print.cpp **** 
  13:src/__print.cpp **** void __print_uint64(uint64 integer) {
  65              		.loc 1 13 37 is_stmt 1
  66              		.cfi_startproc
  67              	.LVL5:
  68 0044 130101FC 		addi	sp,sp,-64
  69              		.cfi_def_cfa_offset 64
  70 0048 233C1102 		sd	ra,56(sp)
  71 004c 23388102 		sd	s0,48(sp)
  72 0050 23349102 		sd	s1,40(sp)
  73              		.cfi_offset 1, -8
  74              		.cfi_offset 8, -16
  75              		.cfi_offset 9, -24
  76 0054 13040104 		addi	s0,sp,64
  77              		.cfi_def_cfa 8, 0
  14:src/__print.cpp ****     static char digits[] = "0123456789";
  78              		.loc 1 14 5
  15:src/__print.cpp ****     char output[20];
  79              		.loc 1 15 5
  16:src/__print.cpp ****     int i = 0;
  80              		.loc 1 16 5
  81              	.LVL6:
  82              		.loc 1 16 9 is_stmt 0
  83 0058 93040000 		li	s1,0
  84              	.LVL7:
  85              	.L6:
  17:src/__print.cpp ****     do {
  86              		.loc 1 17 5 is_stmt 1
  18:src/__print.cpp ****         output[i++] = digits[integer % 10];
  87              		.loc 1 18 9
  88              		.loc 1 18 38 is_stmt 0
  89 005c 9306A000 		li	a3,10
  90 0060 3376D502 		remu	a2,a0,a3
  91              	.LVL8:
  92              		.loc 1 18 42
  93 0064 17070000 		lla	a4,.LANCHOR0
  93      13070700 
  94 006c 3307C700 		add	a4,a4,a2
  95 0070 03470700 		lbu	a4,0(a4)
  96              		.loc 1 18 21
  97 0074 130604FE 		addi	a2,s0,-32
GAS LISTING /tmp/ccnX4DXE.s 			page 3


  98 0078 B3079600 		add	a5,a2,s1
  99 007c 9B841400 		addiw	s1,s1,1
 100              	.LVL9:
 101 0080 2384E7FE 		sb	a4,-24(a5)
  19:src/__print.cpp ****     } while ((integer/=10) != 0);
 102              		.loc 1 19 28 is_stmt 1
 103 0084 13070500 		mv	a4,a0
 104              		.loc 1 19 22 is_stmt 0
 105 0088 3355D502 		divu	a0,a0,a3
 106              	.LVL10:
 107              		.loc 1 19 28
 108 008c 93079000 		li	a5,9
 109 0090 E3E6E7FC 		bgtu	a4,a5,.L6
 110              	.LVL11:
 111              	.L8:
  20:src/__print.cpp ****     while(--i >= 0) Uart::txPut(output[i]);
 112              		.loc 1 20 5 is_stmt 1
 113              		.loc 1 20 15
 114 0094 9B84F4FF 		addiw	s1,s1,-1
 115              	.LVL12:
 116 0098 63CE0400 		bltz	s1,.L5
 117              		.loc 1 20 21 discriminator 1
 118              		.loc 1 20 32 is_stmt 0 discriminator 1
 119 009c 930704FE 		addi	a5,s0,-32
 120 00a0 B3879700 		add	a5,a5,s1
 121 00a4 03C587FE 		lbu	a0,-24(a5)
 122 00a8 97000000 		call	_ZN4Uart5txPutEc@plt
 122      E7800000 
 123              	.LVL13:
 124 00b0 6FF05FFE 		j	.L8
 125              	.L5:
  21:src/__print.cpp **** }
 126              		.loc 1 21 1
 127 00b4 83308103 		ld	ra,56(sp)
 128              		.cfi_restore 1
 129 00b8 03340103 		ld	s0,48(sp)
 130              		.cfi_restore 8
 131              		.cfi_def_cfa 2, 64
 132 00bc 83348102 		ld	s1,40(sp)
 133              		.cfi_restore 9
 134 00c0 13010104 		addi	sp,sp,64
 135              		.cfi_def_cfa_offset 0
 136 00c4 67800000 		jr	ra
 137              		.cfi_endproc
 138              	.LFE60:
 140              		.align	2
 141              		.globl	_Z11__print_intx
 143              	_Z11__print_intx:
 144              	.LFB61:
  22:src/__print.cpp **** 
  23:src/__print.cpp **** void __print_int(long long int integer) {
 145              		.loc 1 23 41 is_stmt 1
 146              		.cfi_startproc
 147              	.LVL14:
 148 00c8 130101FE 		addi	sp,sp,-32
 149              		.cfi_def_cfa_offset 32
 150 00cc 233C1100 		sd	ra,24(sp)
GAS LISTING /tmp/ccnX4DXE.s 			page 4


 151 00d0 23388100 		sd	s0,16(sp)
 152 00d4 23349100 		sd	s1,8(sp)
 153              		.cfi_offset 1, -8
 154              		.cfi_offset 8, -16
 155              		.cfi_offset 9, -24
 156 00d8 13040102 		addi	s0,sp,32
 157              		.cfi_def_cfa 8, 0
 158 00dc 93040500 		mv	s1,a0
  24:src/__print.cpp ****     if (integer < 0) Uart::txPut('-'), integer *= -1;
 159              		.loc 1 24 5
 160 00e0 63420502 		bltz	a0,.L13
 161              	.LVL15:
 162              	.L11:
  25:src/__print.cpp ****     Uart::txPut(integer);
 163              		.loc 1 25 5
 164              		.loc 1 25 16 is_stmt 0
 165 00e4 13F5F40F 		andi	a0,s1,0xff
 166 00e8 97000000 		call	_ZN4Uart5txPutEc@plt
 166      E7800000 
 167              	.LVL16:
  26:src/__print.cpp **** }
 168              		.loc 1 26 1
 169 00f0 83308101 		ld	ra,24(sp)
 170              		.cfi_remember_state
 171              		.cfi_restore 1
 172 00f4 03340101 		ld	s0,16(sp)
 173              		.cfi_restore 8
 174              		.cfi_def_cfa 2, 32
 175 00f8 83348100 		ld	s1,8(sp)
 176              		.cfi_restore 9
 177              	.LVL17:
 178 00fc 13010102 		addi	sp,sp,32
 179              		.cfi_def_cfa_offset 0
 180 0100 67800000 		jr	ra
 181              	.LVL18:
 182              	.L13:
 183              		.cfi_restore_state
  24:src/__print.cpp ****     if (integer < 0) Uart::txPut('-'), integer *= -1;
 184              		.loc 1 24 22 is_stmt 1 discriminator 1
  24:src/__print.cpp ****     if (integer < 0) Uart::txPut('-'), integer *= -1;
 185              		.loc 1 24 33 is_stmt 0 discriminator 1
 186 0104 1305D002 		li	a0,45
 187 0108 97000000 		call	_ZN4Uart5txPutEc@plt
 187      E7800000 
 188              	.LVL19:
  24:src/__print.cpp ****     if (integer < 0) Uart::txPut('-'), integer *= -1;
 189              		.loc 1 24 48 discriminator 1
 190 0110 B3049040 		neg	s1,s1
 191              	.LVL20:
 192 0114 6FF01FFD 		j	.L11
 193              		.cfi_endproc
 194              	.LFE61:
 196              		.section	.rodata
 197              		.align	3
 198              		.set	.LANCHOR0,. + 0
 201              	_ZZ14__print_uint64mE6digits:
 202 0000 30313233 		.string	"0123456789"
GAS LISTING /tmp/ccnX4DXE.s 			page 5


 202      34353637 
 202      383900
 203              		.text
 204              	.Letext0:
 205              		.file 2 "src/../lib/hw.h"
 206              		.file 3 "src/../h/tcb.hpp"
 207              		.file 4 "src/../h/sem.hpp"
 208              		.file 5 "src/../h/list.hpp"
 209              		.file 6 "src/../h/uart.hpp"
 210              		.file 7 "src/../h/syscall_c.h"
GAS LISTING /tmp/ccnX4DXE.s 			page 6

