GAS LISTING /tmp/ccgoK6IN.s 			page 1


   1              		.file	"console.cpp"
   2              		.option pic
   3              		.option norelax
   4              		.text
   5              	.Ltext0:
   6              		.align	2
   7              		.globl	_ZN7Console4getcEv
   9              	_ZN7Console4getcEv:
  10              	.LFB2:
  11              		.file 1 "src/console.cpp"
   1:src/console.cpp **** //
   2:src/console.cpp **** // Created by os on 9/9/22.
   3:src/console.cpp **** //
   4:src/console.cpp **** 
   5:src/console.cpp **** #include "../h/syscall_cpp.hpp"
   6:src/console.cpp **** 
   7:src/console.cpp **** 
   8:src/console.cpp **** char Console::getc() {
  12              		.loc 1 8 22
  13              		.cfi_startproc
  14 0000 130101FF 		addi	sp,sp,-16
  15              		.cfi_def_cfa_offset 16
  16 0004 23348100 		sd	s0,8(sp)
  17              		.cfi_offset 8, -8
  18 0008 13040101 		addi	s0,sp,16
  19              		.cfi_def_cfa 8, 0
   9:src/console.cpp ****     return 0;
  20              		.loc 1 9 5
  10:src/console.cpp **** }
  21              		.loc 1 10 1 is_stmt 0
  22 000c 13050000 		li	a0,0
  23 0010 03348100 		ld	s0,8(sp)
  24              		.cfi_restore 8
  25              		.cfi_def_cfa 2, 16
  26 0014 13010101 		addi	sp,sp,16
  27              		.cfi_def_cfa_offset 0
  28 0018 67800000 		jr	ra
  29              		.cfi_endproc
  30              	.LFE2:
  32              		.align	2
  33              		.globl	_ZN7Console4putcEc
  35              	_ZN7Console4putcEc:
  36              	.LFB3:
  11:src/console.cpp **** 
  12:src/console.cpp **** void Console::putc(char) {
  37              		.loc 1 12 26 is_stmt 1
  38              		.cfi_startproc
  39 001c 130101FF 		addi	sp,sp,-16
  40              		.cfi_def_cfa_offset 16
  41 0020 23348100 		sd	s0,8(sp)
  42              		.cfi_offset 8, -8
  43 0024 13040101 		addi	s0,sp,16
  44              		.cfi_def_cfa 8, 0
  13:src/console.cpp **** 
  14:src/console.cpp **** }...
  45              		.loc 1 14 1 is_stmt 0
  46 0028 03348100 		ld	s0,8(sp)
GAS LISTING /tmp/ccgoK6IN.s 			page 2


  47              		.cfi_restore 8
  48              		.cfi_def_cfa 2, 16
  49 002c 13010101 		addi	sp,sp,16
  50              		.cfi_def_cfa_offset 0
  51 0030 67800000 		jr	ra
  52              		.cfi_endproc
  53              	.LFE3:
  55              	.Letext0:
  56              		.file 2 "src/../h/../lib/hw.h"
  57              		.file 3 "src/../h/syscall_c.h"
  58              		.file 4 "src/../h/syscall_cpp.hpp"
GAS LISTING /tmp/ccgoK6IN.s 			page 3

