GAS LISTING /tmp/ccyoYm4A.s 			page 1


   1              		.file	"kernel.cpp"
   2              		.option pic
   3              		.option norelax
   4              		.text
   5              	.Ltext0:
   6              		.align	2
   7              		.globl	_ZN6Kernel10initKernelEv
   9              	_ZN6Kernel10initKernelEv:
  10              	.LFB70:
  11              		.file 1 "src/kernel.cpp"
   1:src/kernel.cpp **** //
   2:src/kernel.cpp **** // Created by os on 9/6/22.
   3:src/kernel.cpp **** //
   4:src/kernel.cpp **** 
   5:src/kernel.cpp **** 
   6:src/kernel.cpp **** #include "../h/kernel.hpp"
   7:src/kernel.cpp **** //#include "../h/memory_allocator.hpp"
   8:src/kernel.cpp **** //#include "../h/riscv.hpp"
   9:src/kernel.cpp **** //#include "../h/uart.hpp"
  10:src/kernel.cpp **** 
  11:src/kernel.cpp **** Uart* Kernel::uart = nullptr;
  12:src/kernel.cpp **** 
  13:src/kernel.cpp **** extern void userMain();
  14:src/kernel.cpp **** 
  15:src/kernel.cpp **** void Kernel::initKernel() {
  12              		.loc 1 15 27
  13              		.cfi_startproc
  14 0000 130101FF 		addi	sp,sp,-16
  15              		.cfi_def_cfa_offset 16
  16 0004 23341100 		sd	ra,8(sp)
  17 0008 23308100 		sd	s0,0(sp)
  18              		.cfi_offset 1, -8
  19              		.cfi_offset 8, -16
  20 000c 13040101 		addi	s0,sp,16
  21              		.cfi_def_cfa 8, 0
  16:src/kernel.cpp ****     MemoryAllocator::initMem();
  22              		.loc 1 16 5
  23              		.loc 1 16 29 is_stmt 0
  24 0010 97000000 		call	_ZN15MemoryAllocator7initMemEv@plt
  24      E7800000 
  25              	.LVL0:
  17:src/kernel.cpp ****     RiscV::writeStvec((uint64) &supervisorTrap);
  26              		.loc 1 17 5 is_stmt 1
  27              		.loc 1 17 22 is_stmt 0
  28 0018 97070000 		la	a5,_ZN6Kernel14supervisorTrapEv
  28      83B70700 
  29              	.LVL1:
  30              	.LBB68:
  31              	.LBB69:
  32              		.file 2 "src/../h/riscv.hpp"
   1:src/../h/riscv.hpp **** //
   2:src/../h/riscv.hpp **** // Created by os on 9/6/22.
   3:src/../h/riscv.hpp **** //
   4:src/../h/riscv.hpp **** 
   5:src/../h/riscv.hpp **** #ifndef OSMIUM_RISCV_HPP
   6:src/../h/riscv.hpp **** #define OSMIUM_RISCV_HPP
   7:src/../h/riscv.hpp **** 
GAS LISTING /tmp/ccyoYm4A.s 			page 2


   8:src/../h/riscv.hpp **** 
   9:src/../h/riscv.hpp **** #include "../lib/hw.h"
  10:src/../h/riscv.hpp **** 
  11:src/../h/riscv.hpp **** class RiscV {
  12:src/../h/riscv.hpp **** public:
  13:src/../h/riscv.hpp ****     // pop spp and spie sstatus bits
  14:src/../h/riscv.hpp ****     static void popSppSpie();
  15:src/../h/riscv.hpp **** 
  16:src/../h/riscv.hpp ****     //push x3...x31 registers on stack
  17:src/../h/riscv.hpp ****     static void pushRegisters();
  18:src/../h/riscv.hpp **** 
  19:src/../h/riscv.hpp ****     //pop x3...x31 registers from stack
  20:src/../h/riscv.hpp ****     static void popRegisters();
  21:src/../h/riscv.hpp **** 
  22:src/../h/riscv.hpp ****     //read from scause register
  23:src/../h/riscv.hpp ****     static uint64 readScause();
  24:src/../h/riscv.hpp **** 
  25:src/../h/riscv.hpp ****     //write to scause register
  26:src/../h/riscv.hpp ****     static void writeScause(uint64 scause);
  27:src/../h/riscv.hpp **** 
  28:src/../h/riscv.hpp ****     //read from sepc register
  29:src/../h/riscv.hpp ****     static uint64 readSepc();
  30:src/../h/riscv.hpp **** 
  31:src/../h/riscv.hpp ****     //write to sepc register
  32:src/../h/riscv.hpp ****     static void writeSepc(uint64 sepc);
  33:src/../h/riscv.hpp **** 
  34:src/../h/riscv.hpp ****     //read from stvec register
  35:src/../h/riscv.hpp ****     static uint64 readStvec();
  36:src/../h/riscv.hpp **** 
  37:src/../h/riscv.hpp ****     //write to stvec register
  38:src/../h/riscv.hpp ****     static void writeStvec(uint64 stvec);
  39:src/../h/riscv.hpp **** 
  40:src/../h/riscv.hpp ****     enum SSTATUS
  41:src/../h/riscv.hpp ****     {
  42:src/../h/riscv.hpp ****         SIE = (1 << 1), //supervisor interrupt enable
  43:src/../h/riscv.hpp ****         SPIE = (1 << 5),//supervisor previous interrupt enable
  44:src/../h/riscv.hpp ****         SPP = (1 << 8), //supervisor previous privilege
  45:src/../h/riscv.hpp ****     };
  46:src/../h/riscv.hpp **** 
  47:src/../h/riscv.hpp ****     //set bit-mask bits in the sstatus register
  48:src/../h/riscv.hpp ****     static void setSstatus(uint64 mask);
  49:src/../h/riscv.hpp **** 
  50:src/../h/riscv.hpp ****     //clear bit-mask bits in the sstatus register
  51:src/../h/riscv.hpp ****     static void clearSstatus(uint64 mask);
  52:src/../h/riscv.hpp **** 
  53:src/../h/riscv.hpp ****     //read from sstatus register
  54:src/../h/riscv.hpp ****     static uint64 readSstatus();
  55:src/../h/riscv.hpp **** 
  56:src/../h/riscv.hpp ****     //write to sstatus register
  57:src/../h/riscv.hpp ****     static void writeSstatus(uint64 sstatus);
  58:src/../h/riscv.hpp **** 
  59:src/../h/riscv.hpp ****     enum SIP
  60:src/../h/riscv.hpp ****     {
  61:src/../h/riscv.hpp ****         SSIP = (1 << 1), //supervisor software interrupt pending
  62:src/../h/riscv.hpp ****         STIP = (1 << 5), //supervisor timer interrupt pending
  63:src/../h/riscv.hpp ****                          //(timer is configured to throw a software interrupt, so this is not used)
  64:src/../h/riscv.hpp ****         SEIP = (1 << 9), //supervisor external interrupt pending
GAS LISTING /tmp/ccyoYm4A.s 			page 3


  65:src/../h/riscv.hpp ****     };
  66:src/../h/riscv.hpp **** 
  67:src/../h/riscv.hpp ****     //set bit-mask bits in the sip register
  68:src/../h/riscv.hpp ****     static void setSip(uint64 mask);
  69:src/../h/riscv.hpp **** 
  70:src/../h/riscv.hpp ****     //clear bit-mask bits in the sip register
  71:src/../h/riscv.hpp ****     static void clearSip(uint64 mask);
  72:src/../h/riscv.hpp **** 
  73:src/../h/riscv.hpp ****     //read from sip register
  74:src/../h/riscv.hpp ****     static uint64 readSip();
  75:src/../h/riscv.hpp **** 
  76:src/../h/riscv.hpp ****     //write to sip register
  77:src/../h/riscv.hpp ****     static void writeSip(uint64 Sip);
  78:src/../h/riscv.hpp **** private:
  79:src/../h/riscv.hpp **** 
  80:src/../h/riscv.hpp **** };
  81:src/../h/riscv.hpp **** 
  82:src/../h/riscv.hpp **** inline uint64 RiscV::readScause() {
  83:src/../h/riscv.hpp ****     uint64 volatile scause;
  84:src/../h/riscv.hpp ****     asm volatile("csrr %[scause], scause": [scause] "=r" (scause));
  85:src/../h/riscv.hpp ****     return scause;
  86:src/../h/riscv.hpp **** }
  87:src/../h/riscv.hpp **** 
  88:src/../h/riscv.hpp **** inline void RiscV::writeScause(uint64 scause) {
  89:src/../h/riscv.hpp ****     asm volatile("csrw scause, %[scause]":: [scause] "r" (scause));
  90:src/../h/riscv.hpp **** }
  91:src/../h/riscv.hpp **** 
  92:src/../h/riscv.hpp **** inline uint64 RiscV::readSepc() {
  93:src/../h/riscv.hpp ****     uint64 volatile sepc;
  94:src/../h/riscv.hpp ****     asm volatile("csrr %[sepc], sepc": [sepc] "=r" (sepc));
  95:src/../h/riscv.hpp ****     return sepc;
  96:src/../h/riscv.hpp **** }
  97:src/../h/riscv.hpp **** 
  98:src/../h/riscv.hpp **** inline void RiscV::writeSepc(uint64 sepc) {
  99:src/../h/riscv.hpp ****     asm volatile("csrw sepc, %[sepc]":: [sepc] "r" (sepc));
 100:src/../h/riscv.hpp **** }
 101:src/../h/riscv.hpp **** 
 102:src/../h/riscv.hpp **** inline uint64 RiscV::readStvec() {
 103:src/../h/riscv.hpp ****     uint64 volatile stvec;
 104:src/../h/riscv.hpp ****     asm volatile("csrr %[stvec], stvec": [stvec] "=r" (stvec));
 105:src/../h/riscv.hpp ****     return stvec;
 106:src/../h/riscv.hpp **** }
 107:src/../h/riscv.hpp **** 
 108:src/../h/riscv.hpp **** inline void RiscV::writeStvec(uint64 stvec) {
 109:src/../h/riscv.hpp ****     asm volatile("csrw stvec, %[stvec]":: [stvec] "r" (stvec));
  33              		.loc 2 109 5 is_stmt 1
  34              		.loc 2 109 63 is_stmt 0
  35              	#APP
  36              	# 109 "src/../h/riscv.hpp" 1
 110              	}
  37              		csrw stvec, a5
  38              	# 0 "" 2
  39              	.LVL2:
  40              	#NO_APP
  41              	.LBE69:
  42              	.LBE68:
  18:src/kernel.cpp **** 
GAS LISTING /tmp/ccyoYm4A.s 			page 4


  19:src/kernel.cpp ****     uart = &(Uart::getInstance());
  43              		.loc 1 19 5 is_stmt 1
  44              		.loc 1 19 32 is_stmt 0
  45 0024 97000000 		call	_ZN4Uart11getInstanceEv@plt
  45      E7800000 
  46              	.LVL3:
  47              		.loc 1 19 10
  48 002c 97070000 		sd	a0,.LANCHOR0,a5
  48      23B0A700 
  20:src/kernel.cpp ****     //RiscV::setSstatus(RiscV::SIE);
  21:src/kernel.cpp **** }
  49              		.loc 1 21 1
  50 0034 83308100 		ld	ra,8(sp)
  51              		.cfi_restore 1
  52 0038 03340100 		ld	s0,0(sp)
  53              		.cfi_restore 8
  54              		.cfi_def_cfa 2, 16
  55 003c 13010101 		addi	sp,sp,16
  56              		.cfi_def_cfa_offset 0
  57 0040 67800000 		jr	ra
  58              		.cfi_endproc
  59              	.LFE70:
  61              		.align	2
  62              		.globl	_ZN6Kernel14hw_irq_handlerEv
  64              	_ZN6Kernel14hw_irq_handlerEv:
  65              	.LFB72:
  22:src/kernel.cpp **** 
  23:src/kernel.cpp **** void Kernel::supervisorTrapHandler() {
  24:src/kernel.cpp ****     uint64 scause = RiscV::readScause();
  25:src/kernel.cpp **** 
  26:src/kernel.cpp ****     if (scause == USER_SYSCALL || scause == SUPERVISOR_SYSCALL) {
  27:src/kernel.cpp ****         uint64 sepc = RiscV::readSepc() + 4;
  28:src/kernel.cpp ****         uint64 sstatus = RiscV::readSstatus();
  29:src/kernel.cpp **** 
  30:src/kernel.cpp ****         syscall_handler();
  31:src/kernel.cpp **** 
  32:src/kernel.cpp ****         asm volatile ("sd a0, 80(s0)");
  33:src/kernel.cpp ****         RiscV::writeSstatus(sstatus);
  34:src/kernel.cpp ****         RiscV::writeSepc(sepc);
  35:src/kernel.cpp ****         return;
  36:src/kernel.cpp ****     }
  37:src/kernel.cpp ****     if (scause == TIMER_IRQ) {
  38:src/kernel.cpp ****         if (!TCB::running) { RiscV::clearSip(RiscV::SSIP); return; }
  39:src/kernel.cpp ****         Scheduler::timerInterrupt();
  40:src/kernel.cpp ****         TCB::incTimeSliceCounter();
  41:src/kernel.cpp ****         if (TCB::getTimeSliceCounter() >= TCB::running->getTimeSlice())
  42:src/kernel.cpp ****         {
  43:src/kernel.cpp ****             uint64 sepc = RiscV::readSepc();
  44:src/kernel.cpp ****             uint64 sstatus = RiscV::readSstatus();
  45:src/kernel.cpp ****             TCB::resetTimeSliceCounter();
  46:src/kernel.cpp ****             TCB::dispatch();
  47:src/kernel.cpp ****             RiscV::writeSstatus(sstatus);
  48:src/kernel.cpp ****             RiscV::writeSepc(sepc);
  49:src/kernel.cpp ****         }
  50:src/kernel.cpp ****         RiscV::clearSip(RiscV::SSIP);
  51:src/kernel.cpp ****         return;
  52:src/kernel.cpp ****     }
GAS LISTING /tmp/ccyoYm4A.s 			page 5


  53:src/kernel.cpp ****     if (scause == HARDWARE_IRQ) {
  54:src/kernel.cpp ****         //console_handler();
  55:src/kernel.cpp ****         //ConsoleInterface::console_handler();
  56:src/kernel.cpp ****         hw_irq_handler();
  57:src/kernel.cpp ****         return;
  58:src/kernel.cpp ****     }
  59:src/kernel.cpp **** 
  60:src/kernel.cpp ****     uint64 sepc = RiscV::readSepc();
  61:src/kernel.cpp ****     __print_string("Neobradjen izuzetak.\n");
  62:src/kernel.cpp ****     __print_string("scause: ");
  63:src/kernel.cpp ****     __print_uint64(scause);
  64:src/kernel.cpp ****     __putc('\n');
  65:src/kernel.cpp ****     __print_string("sepc: ");
  66:src/kernel.cpp ****     __print_uint64(sepc);
  67:src/kernel.cpp ****     __putc('\n');
  68:src/kernel.cpp ****     //riscV::clearSip(RiscV::SSIP);
  69:src/kernel.cpp ****     RiscV::writeSepc(sepc);
  70:src/kernel.cpp ****     return;
  71:src/kernel.cpp **** }
  72:src/kernel.cpp **** 
  73:src/kernel.cpp **** void Kernel::hw_irq_handler() {
  66              		.loc 1 73 31 is_stmt 1
  67              		.cfi_startproc
  68 0044 130101FE 		addi	sp,sp,-32
  69              		.cfi_def_cfa_offset 32
  70 0048 233C1100 		sd	ra,24(sp)
  71 004c 23388100 		sd	s0,16(sp)
  72 0050 23349100 		sd	s1,8(sp)
  73              		.cfi_offset 1, -8
  74              		.cfi_offset 8, -16
  75              		.cfi_offset 9, -24
  76 0054 13040102 		addi	s0,sp,32
  77              		.cfi_def_cfa 8, 0
  74:src/kernel.cpp ****     //int hw_irq_id = plic_claim();
  75:src/kernel.cpp **** 
  76:src/kernel.cpp ****     uart_handler();
  78              		.loc 1 76 5
  79              	.LBB72:
  80              	.LBB73:
  81              		.file 3 "src/../h/kernel.hpp"
   1:src/../h/kernel.hpp **** //
   2:src/../h/kernel.hpp **** // Created by os on 9/6/22.
   3:src/../h/kernel.hpp **** //
   4:src/../h/kernel.hpp **** 
   5:src/../h/kernel.hpp **** #ifndef OSMIUM_KERNEL_HPP
   6:src/../h/kernel.hpp **** #define OSMIUM_KERNEL_HPP
   7:src/../h/kernel.hpp **** 
   8:src/../h/kernel.hpp **** #include "../lib/hw.h"
   9:src/../h/kernel.hpp **** #include "../lib/console.h"
  10:src/../h/kernel.hpp **** 
  11:src/../h/kernel.hpp **** #include "memory_allocator.hpp"
  12:src/../h/kernel.hpp **** #include "tcb.hpp"
  13:src/../h/kernel.hpp **** //#include "sem.hpp"
  14:src/../h/kernel.hpp **** #include "uart.hpp"
  15:src/../h/kernel.hpp **** 
  16:src/../h/kernel.hpp **** class Kernel {
  17:src/../h/kernel.hpp **** public:
GAS LISTING /tmp/ccyoYm4A.s 			page 6


  18:src/../h/kernel.hpp ****     static constexpr uint64 USER_SYSCALL = 0x0000000000000008UL;
  19:src/../h/kernel.hpp ****     static constexpr uint64 SUPERVISOR_SYSCALL = 0x0000000000000009UL;
  20:src/../h/kernel.hpp ****     static constexpr uint64 HARDWARE_IRQ = 0x8000000000000009UL;
  21:src/../h/kernel.hpp ****     static constexpr uint64 TIMER_IRQ = 0x8000000000000001UL;
  22:src/../h/kernel.hpp **** 
  23:src/../h/kernel.hpp ****     static void initKernel();
  24:src/../h/kernel.hpp ****     static void supervisorTrap();
  25:src/../h/kernel.hpp **** private:
  26:src/../h/kernel.hpp ****     /* supervisor Trap routines */
  27:src/../h/kernel.hpp ****     static void supervisorTrapHandler();
  28:src/../h/kernel.hpp ****     static void syscall_handler();
  29:src/../h/kernel.hpp ****     static void hw_irq_handler();
  30:src/../h/kernel.hpp **** 
  31:src/../h/kernel.hpp ****     /* software syscall_c handlers */
  32:src/../h/kernel.hpp ****     static void mem_alloc_handler();                    //0x01
  33:src/../h/kernel.hpp ****     static void mem_free_handler();                     //0x02
  34:src/../h/kernel.hpp ****     static void thread_create_handler();                //0x11
  35:src/../h/kernel.hpp ****     static void thread_exit_handler();                  //0x12
  36:src/../h/kernel.hpp ****     static void thread_dispatch_handler();              //0x13
  37:src/../h/kernel.hpp ****     static void thread_create_deactivated_handler();    //0x14
  38:src/../h/kernel.hpp ****     static void sem_open_handler();                     //0x21
  39:src/../h/kernel.hpp ****     static void sem_close_handler();                    //0x22
  40:src/../h/kernel.hpp ****     static void sem_wait_handler();                     //0x23
  41:src/../h/kernel.hpp ****     static void sem_signal_handler();                   //0x24
  42:src/../h/kernel.hpp ****     static void time_sleep_handler();                   //0x31
  43:src/../h/kernel.hpp ****     static void getc_handler();                         //0x41
  44:src/../h/kernel.hpp ****     static void putc_handler();                         //0x42
  45:src/../h/kernel.hpp **** 
  46:src/../h/kernel.hpp ****     /* hardware interrupt handlers */
  47:src/../h/kernel.hpp ****     static void uart_handler();                         //0x0a
  48:src/../h/kernel.hpp **** 
  49:src/../h/kernel.hpp ****     //private fields
  50:src/../h/kernel.hpp ****     static Uart* uart;
  51:src/../h/kernel.hpp ****     //TODO:
  52:src/../h/kernel.hpp **** };
  53:src/../h/kernel.hpp **** 
  54:src/../h/kernel.hpp **** inline void Kernel::syscall_handler() {
  55:src/../h/kernel.hpp ****     //uint64 sepc = RiscV::readSepc();
  56:src/../h/kernel.hpp ****     volatile uint64 syscall_id;
  57:src/../h/kernel.hpp ****     asm volatile ("mv %[syscall_id], a7": [syscall_id] "=r" (syscall_id));
  58:src/../h/kernel.hpp **** 
  59:src/../h/kernel.hpp ****     //volatile uint64 arg0, arg1, arg2, temp;
  60:src/../h/kernel.hpp ****     switch(syscall_id) {
  61:src/../h/kernel.hpp ****         case 0x01:
  62:src/../h/kernel.hpp ****             Kernel::mem_alloc_handler();
  63:src/../h/kernel.hpp ****             break;
  64:src/../h/kernel.hpp ****         case 0x02:
  65:src/../h/kernel.hpp ****             Kernel::mem_free_handler();
  66:src/../h/kernel.hpp ****             break;
  67:src/../h/kernel.hpp ****         case 0x11:
  68:src/../h/kernel.hpp ****             Kernel::thread_create_handler();
  69:src/../h/kernel.hpp ****             break;
  70:src/../h/kernel.hpp ****         case 0x12:
  71:src/../h/kernel.hpp ****             Kernel::thread_exit_handler();
  72:src/../h/kernel.hpp ****             break;
  73:src/../h/kernel.hpp ****         case 0x13:
  74:src/../h/kernel.hpp ****             Kernel::thread_dispatch_handler();
GAS LISTING /tmp/ccyoYm4A.s 			page 7


  75:src/../h/kernel.hpp ****             break;
  76:src/../h/kernel.hpp ****         case 0x14:
  77:src/../h/kernel.hpp ****             Kernel::thread_create_deactivated_handler();
  78:src/../h/kernel.hpp ****             break;
  79:src/../h/kernel.hpp ****         case 0x21:
  80:src/../h/kernel.hpp ****             Kernel::sem_open_handler();
  81:src/../h/kernel.hpp ****             break;
  82:src/../h/kernel.hpp ****         case 0x22:
  83:src/../h/kernel.hpp ****             Kernel::sem_close_handler();
  84:src/../h/kernel.hpp ****             break;
  85:src/../h/kernel.hpp ****         case 0x23:
  86:src/../h/kernel.hpp ****             Kernel::sem_wait_handler();
  87:src/../h/kernel.hpp ****             break;
  88:src/../h/kernel.hpp ****         case 0x24:
  89:src/../h/kernel.hpp ****             Kernel::sem_signal_handler();
  90:src/../h/kernel.hpp ****             break;
  91:src/../h/kernel.hpp ****         case 0x31:
  92:src/../h/kernel.hpp ****             Kernel::time_sleep_handler();
  93:src/../h/kernel.hpp ****             break;
  94:src/../h/kernel.hpp ****         case 0x41:
  95:src/../h/kernel.hpp ****             Kernel::getc_handler();
  96:src/../h/kernel.hpp ****             break;
  97:src/../h/kernel.hpp ****         case 0x42:
  98:src/../h/kernel.hpp ****             Kernel::putc_handler();
  99:src/../h/kernel.hpp ****             break;
 100:src/../h/kernel.hpp ****         default:
 101:src/../h/kernel.hpp ****             asm volatile ("addi a0, zero, -1");
 102:src/../h/kernel.hpp ****             __print_string("Error: Invalid syscall id!");
 103:src/../h/kernel.hpp ****             break;
 104:src/../h/kernel.hpp ****     }
 105:src/../h/kernel.hpp **** }
 106:src/../h/kernel.hpp **** 
 107:src/../h/kernel.hpp **** //0x01
 108:src/../h/kernel.hpp **** inline void Kernel::mem_alloc_handler() {
 109:src/../h/kernel.hpp ****     volatile uint64 arg0;
 110:src/../h/kernel.hpp ****     asm volatile ("mv %[arg0], a0": [arg0] "=r"(arg0));
 111:src/../h/kernel.hpp ****     MemoryAllocator::allocate((size_t)arg0);
 112:src/../h/kernel.hpp **** }
 113:src/../h/kernel.hpp **** 
 114:src/../h/kernel.hpp **** //0x02
 115:src/../h/kernel.hpp **** inline void Kernel::mem_free_handler() {
 116:src/../h/kernel.hpp ****     volatile uint64 arg0;
 117:src/../h/kernel.hpp ****     asm volatile ("mv %[arg0], a0": [arg0] "=r"(arg0));
 118:src/../h/kernel.hpp ****     MemoryAllocator::free((void*)arg0);
 119:src/../h/kernel.hpp **** }
 120:src/../h/kernel.hpp **** 
 121:src/../h/kernel.hpp **** //0x11
 122:src/../h/kernel.hpp **** inline void Kernel::thread_create_handler() {
 123:src/../h/kernel.hpp ****     volatile uint64 arg0, arg1, arg2;
 124:src/../h/kernel.hpp ****     asm volatile ("mv %[arg0], a0": [arg0] "=r"(arg0));
 125:src/../h/kernel.hpp ****     asm volatile ("mv %[arg1], a1": [arg1] "=r"(arg1));
 126:src/../h/kernel.hpp ****     asm volatile ("mv %[arg2], a2": [arg2] "=r"(arg2));
 127:src/../h/kernel.hpp **** 
 128:src/../h/kernel.hpp ****     *(TCB**)arg0 = TCB::createTCB((TCB::Body)arg1, (void*)arg2);
 129:src/../h/kernel.hpp **** 
 130:src/../h/kernel.hpp ****     asm volatile("mv a0, zero");
 131:src/../h/kernel.hpp ****     if (!(*(TCB**)arg0)) asm volatile("addi a0, a0, -1");
GAS LISTING /tmp/ccyoYm4A.s 			page 8


 132:src/../h/kernel.hpp **** }
 133:src/../h/kernel.hpp **** 
 134:src/../h/kernel.hpp **** //0x12
 135:src/../h/kernel.hpp **** inline void Kernel::thread_exit_handler() {
 136:src/../h/kernel.hpp ****     TCB::running->setFinished(true);
 137:src/../h/kernel.hpp ****     asm volatile ("addi a0, zero, 0");
 138:src/../h/kernel.hpp ****     //TCB::yield();
 139:src/../h/kernel.hpp ****     TCB::dispatch();
 140:src/../h/kernel.hpp **** }
 141:src/../h/kernel.hpp **** 
 142:src/../h/kernel.hpp **** //0x13
 143:src/../h/kernel.hpp **** inline void Kernel::thread_dispatch_handler() {
 144:src/../h/kernel.hpp ****     //TCB::yield();
 145:src/../h/kernel.hpp ****     TCB::dispatch();
 146:src/../h/kernel.hpp **** }
 147:src/../h/kernel.hpp **** 
 148:src/../h/kernel.hpp **** //0x14
 149:src/../h/kernel.hpp **** inline void Kernel::thread_create_deactivated_handler() {
 150:src/../h/kernel.hpp ****     volatile uint64 arg0, arg1, arg2;
 151:src/../h/kernel.hpp ****     asm volatile ("mv %[arg0], a0": [arg0] "=r"(arg0));
 152:src/../h/kernel.hpp ****     asm volatile ("mv %[arg1], a1": [arg1] "=r"(arg1));
 153:src/../h/kernel.hpp ****     asm volatile ("mv %[arg2], a2": [arg2] "=r"(arg2));
 154:src/../h/kernel.hpp **** 
 155:src/../h/kernel.hpp ****     *(TCB**)arg0 = TCB::createDeactivatedTCB((TCB::Body)arg1, (void*)arg2);
 156:src/../h/kernel.hpp **** 
 157:src/../h/kernel.hpp ****     asm volatile("mv a0, zero");
 158:src/../h/kernel.hpp ****     if (!(*(TCB**)arg0)) asm volatile("addi a0, a0, -1");
 159:src/../h/kernel.hpp **** }
 160:src/../h/kernel.hpp **** 
 161:src/../h/kernel.hpp **** //0x021
 162:src/../h/kernel.hpp **** inline void Kernel::sem_open_handler() {
 163:src/../h/kernel.hpp ****     volatile uint64 arg0, arg1;
 164:src/../h/kernel.hpp ****     asm volatile ("mv %[arg0], a0": [arg0] "=r"(arg0));
 165:src/../h/kernel.hpp ****     asm volatile ("mv %[arg1], a1": [arg1] "=r"(arg1));
 166:src/../h/kernel.hpp **** 
 167:src/../h/kernel.hpp ****     *(Sem**)arg0 = Sem::createSem((unsigned)arg1);
 168:src/../h/kernel.hpp **** 
 169:src/../h/kernel.hpp ****     asm volatile("mv a0, zero");
 170:src/../h/kernel.hpp ****     if (!(*(Sem**)arg0)) asm volatile("addi a0, a0, -1");
 171:src/../h/kernel.hpp **** }
 172:src/../h/kernel.hpp **** 
 173:src/../h/kernel.hpp **** //0x22
 174:src/../h/kernel.hpp **** inline void Kernel::sem_close_handler() {
 175:src/../h/kernel.hpp ****     volatile uint64 arg0;
 176:src/../h/kernel.hpp ****     asm volatile ("mv %[arg0], a0": [arg0] "=r"(arg0));
 177:src/../h/kernel.hpp ****     delete *(Sem**)arg0;
 178:src/../h/kernel.hpp **** 
 179:src/../h/kernel.hpp ****     asm volatile("mv a0, zero");
 180:src/../h/kernel.hpp **** }
 181:src/../h/kernel.hpp **** 
 182:src/../h/kernel.hpp **** //0x23
 183:src/../h/kernel.hpp **** inline void Kernel::sem_wait_handler() {
 184:src/../h/kernel.hpp ****     volatile uint64 arg0;
 185:src/../h/kernel.hpp ****     asm volatile ("mv %[arg0], a0": [arg0] "=r"(arg0));
 186:src/../h/kernel.hpp ****     ((Sem*)arg0)->semWait();
 187:src/../h/kernel.hpp **** 
 188:src/../h/kernel.hpp ****     //asm volatile("mv a0, zero");
GAS LISTING /tmp/ccyoYm4A.s 			page 9


 189:src/../h/kernel.hpp **** }
 190:src/../h/kernel.hpp **** 
 191:src/../h/kernel.hpp **** //0x24
 192:src/../h/kernel.hpp **** inline void Kernel::sem_signal_handler() {
 193:src/../h/kernel.hpp ****     volatile uint64 arg0;
 194:src/../h/kernel.hpp ****     asm volatile ("mv %[arg0], a0": [arg0] "=r"(arg0));
 195:src/../h/kernel.hpp ****     ((Sem*)arg0)->semSignal();
 196:src/../h/kernel.hpp **** }
 197:src/../h/kernel.hpp **** 
 198:src/../h/kernel.hpp **** //0x31
 199:src/../h/kernel.hpp **** inline void Kernel::time_sleep_handler() {
 200:src/../h/kernel.hpp ****     volatile uint64 arg0;
 201:src/../h/kernel.hpp ****     asm volatile ("mv %[arg0], a0": [arg0] "=r"(arg0));
 202:src/../h/kernel.hpp ****     Scheduler::timeSleep((time_t)arg0);
 203:src/../h/kernel.hpp **** }
 204:src/../h/kernel.hpp **** 
 205:src/../h/kernel.hpp **** //0x41
 206:src/../h/kernel.hpp **** inline void Kernel::getc_handler() {
 207:src/../h/kernel.hpp ****     volatile uint64 arg0;
 208:src/../h/kernel.hpp ****     //arg0 = __getc();
 209:src/../h/kernel.hpp ****     arg0 = uart->rxGet();
 210:src/../h/kernel.hpp ****     asm volatile ("mv a0, %[arg0]":: [arg0] "r"(arg0));
 211:src/../h/kernel.hpp **** }
 212:src/../h/kernel.hpp **** 
 213:src/../h/kernel.hpp **** //0x42
 214:src/../h/kernel.hpp **** inline void Kernel::putc_handler() {
 215:src/../h/kernel.hpp ****     volatile uint64 arg0;
 216:src/../h/kernel.hpp ****     asm volatile ("mv %[arg0], a0": [arg0] "=r"(arg0));
 217:src/../h/kernel.hpp ****     //__putc(arg0);
 218:src/../h/kernel.hpp ****     uart->txPut(arg0);
 219:src/../h/kernel.hpp ****     //uart->tx
 220:src/../h/kernel.hpp **** }
 221:src/../h/kernel.hpp **** 
 222:src/../h/kernel.hpp **** //0x0a - hardware
 223:src/../h/kernel.hpp **** inline void Kernel::uart_handler() {
 224:src/../h/kernel.hpp ****     int id = plic_claim();
  82              		.loc 3 224 5
  83              		.loc 3 224 24 is_stmt 0
  84 0058 97000000 		call	plic_claim@plt
  84      E7800000 
  85              	.LVL4:
  86 0060 93040500 		mv	s1,a0
  87              	.LVL5:
 225:src/../h/kernel.hpp ****     if (id == 0x10) {
  88              		.loc 3 225 5 is_stmt 1
  89 0064 93070001 		li	a5,16
  90 0068 6302F502 		beq	a0,a5,.L8
  91              	.LVL6:
  92              	.L4:
 226:src/../h/kernel.hpp ****         if (uart->getStatus() & Uart::TX) uart->txSignal();
 227:src/../h/kernel.hpp ****         while (uart->getStatus() & Uart::RX) {
 228:src/../h/kernel.hpp ****             if(uart->rxReceive() < 0) break;
 229:src/../h/kernel.hpp ****             //plic_complete(id);
 230:src/../h/kernel.hpp ****         }
 231:src/../h/kernel.hpp ****     }
 232:src/../h/kernel.hpp ****     plic_complete(id);
  93              		.loc 3 232 5
GAS LISTING /tmp/ccyoYm4A.s 			page 10


  94              		.loc 3 232 18 is_stmt 0
  95 006c 13850400 		mv	a0,s1
  96 0070 97000000 		call	plic_complete@plt
  96      E7800000 
  97              	.LVL7:
  98              	.LBE73:
  99              	.LBE72:
  77:src/kernel.cpp ****     //plic_complete(hw_irq_id);
  78:src/kernel.cpp ****     /*switch (hw_irq_id) {
  79:src/kernel.cpp ****         case 10:
  80:src/kernel.cpp ****             //uart_handler();
  81:src/kernel.cpp ****             console_handler();
  82:src/kernel.cpp ****             //break;
  83:src/kernel.cpp ****         default:
  84:src/kernel.cpp ****             plic_complete(hw_irq_id);
  85:src/kernel.cpp ****             break;
  86:src/kernel.cpp ****     }*/
  87:src/kernel.cpp **** }
 100              		.loc 1 87 1
 101 0078 83308101 		ld	ra,24(sp)
 102              		.cfi_remember_state
 103              		.cfi_restore 1
 104 007c 03340101 		ld	s0,16(sp)
 105              		.cfi_restore 8
 106              		.cfi_def_cfa 2, 32
 107 0080 83348100 		ld	s1,8(sp)
 108              		.cfi_restore 9
 109 0084 13010102 		addi	sp,sp,32
 110              		.cfi_def_cfa_offset 0
 111 0088 67800000 		jr	ra
 112              	.LVL8:
 113              	.L8:
 114              		.cfi_restore_state
 115              	.LBB75:
 116              	.LBB74:
 226:src/../h/kernel.hpp ****         if (uart->getStatus() & Uart::TX) uart->txSignal();
 117              		.loc 3 226 9 is_stmt 1
 226:src/../h/kernel.hpp ****         if (uart->getStatus() & Uart::TX) uart->txSignal();
 118              		.loc 3 226 28 is_stmt 0
 119 008c 17050000 		ld	a0,.LANCHOR0
 119      03350500 
 120              	.LVL9:
 121 0094 97000000 		call	_ZNK4Uart9getStatusEv@plt
 121      E7800000 
 122              	.LVL10:
 226:src/../h/kernel.hpp ****         if (uart->getStatus() & Uart::TX) uart->txSignal();
 123              		.loc 3 226 9
 124 009c 13750502 		andi	a0,a0,32
 125 00a0 631A0502 		bnez	a0,.L9
 126              	.L6:
 227:src/../h/kernel.hpp ****             if(uart->rxReceive() < 0) break;
 127              		.loc 3 227 9 is_stmt 1
 227:src/../h/kernel.hpp ****             if(uart->rxReceive() < 0) break;
 128              		.loc 3 227 42
 227:src/../h/kernel.hpp ****             if(uart->rxReceive() < 0) break;
 129              		.loc 3 227 31 is_stmt 0
 130 00a4 17050000 		ld	a0,.LANCHOR0
GAS LISTING /tmp/ccyoYm4A.s 			page 11


 130      03350500 
 131 00ac 97000000 		call	_ZNK4Uart9getStatusEv@plt
 131      E7800000 
 132              	.LVL11:
 227:src/../h/kernel.hpp ****             if(uart->rxReceive() < 0) break;
 133              		.loc 3 227 42
 134 00b4 13751500 		andi	a0,a0,1
 135 00b8 E30A05FA 		beqz	a0,.L4
 228:src/../h/kernel.hpp ****             //plic_complete(id);
 136              		.loc 3 228 13 is_stmt 1
 228:src/../h/kernel.hpp ****             //plic_complete(id);
 137              		.loc 3 228 31 is_stmt 0
 138 00bc 17050000 		ld	a0,.LANCHOR0
 138      03350500 
 139 00c4 97000000 		call	_ZN4Uart9rxReceiveEv@plt
 139      E7800000 
 140              	.LVL12:
 228:src/../h/kernel.hpp ****             //plic_complete(id);
 141              		.loc 3 228 13
 142 00cc E35C05FC 		bgez	a0,.L6
 143 00d0 6FF0DFF9 		j	.L4
 144              	.L9:
 226:src/../h/kernel.hpp ****         while (uart->getStatus() & Uart::RX) {
 145              		.loc 3 226 43 is_stmt 1
 226:src/../h/kernel.hpp ****         while (uart->getStatus() & Uart::RX) {
 146              		.loc 3 226 57 is_stmt 0
 147 00d4 17050000 		ld	a0,.LANCHOR0
 147      03350500 
 148 00dc 97000000 		call	_ZN4Uart8txSignalEv@plt
 148      E7800000 
 149              	.LVL13:
 150 00e4 6FF01FFC 		j	.L6
 151              	.LBE74:
 152              	.LBE75:
 153              		.cfi_endproc
 154              	.LFE72:
 156              		.section	.rodata.str1.8,"aMS",@progbits,1
 157              		.align	3
 158              	.LC0:
 159 0000 4572726F 		.string	"Error: Invalid syscall id!"
 159      723A2049 
 159      6E76616C 
 159      69642073 
 159      79736361 
 160 001b 00000000 		.align	3
 160      00
 161              	.LC1:
 162 0020 4E656F62 		.string	"Neobradjen izuzetak.\n"
 162      7261646A 
 162      656E2069 
 162      7A757A65 
 162      74616B2E 
 163 0036 0000     		.align	3
 164              	.LC2:
 165 0038 73636175 		.string	"scause: "
 165      73653A20 
 165      00
GAS LISTING /tmp/ccyoYm4A.s 			page 12


 166 0041 00000000 		.align	3
 166      000000
 167              	.LC3:
 168 0048 73657063 		.string	"sepc: "
 168      3A2000
 169              		.text
 170              		.align	2
 171              		.globl	_ZN6Kernel21supervisorTrapHandlerEv
 173              	_ZN6Kernel21supervisorTrapHandlerEv:
 174              	.LFB71:
  23:src/kernel.cpp ****     uint64 scause = RiscV::readScause();
 175              		.loc 1 23 38 is_stmt 1
 176              		.cfi_startproc
 177 00e8 130101F1 		addi	sp,sp,-240
 178              		.cfi_def_cfa_offset 240
 179 00ec 2334110E 		sd	ra,232(sp)
 180 00f0 2330810E 		sd	s0,224(sp)
 181 00f4 233C910C 		sd	s1,216(sp)
 182 00f8 2338210D 		sd	s2,208(sp)
 183 00fc 2334310D 		sd	s3,200(sp)
 184              		.cfi_offset 1, -8
 185              		.cfi_offset 8, -16
 186              		.cfi_offset 9, -24
 187              		.cfi_offset 18, -32
 188              		.cfi_offset 19, -40
 189 0100 1304010F 		addi	s0,sp,240
 190              		.cfi_def_cfa 8, 0
  24:src/kernel.cpp **** 
 191              		.loc 1 24 5
 192              	.LBB146:
 193              	.LBB147:
  83:src/../h/riscv.hpp ****     asm volatile("csrr %[scause], scause": [scause] "=r" (scause));
 194              		.loc 2 83 5
  84:src/../h/riscv.hpp ****     return scause;
 195              		.loc 2 84 5
  84:src/../h/riscv.hpp ****     return scause;
 196              		.loc 2 84 67 is_stmt 0
 197              	#APP
 198              	# 84 "src/../h/riscv.hpp" 1
 199              		csrr a5, scause
 200              	# 0 "" 2
 201              	#NO_APP
 202 0108 233CF4F0 		sd	a5,-232(s0)
  85:src/../h/riscv.hpp **** }
 203              		.loc 2 85 5 is_stmt 1
  85:src/../h/riscv.hpp **** }
 204              		.loc 2 85 12 is_stmt 0
 205 010c 833484F1 		ld	s1,-232(s0)
 206              	.LVL14:
 207              	.LBE147:
 208              	.LBE146:
  26:src/kernel.cpp ****         uint64 sepc = RiscV::readSepc() + 4;
 209              		.loc 1 26 5 is_stmt 1
 210              	.LBB148:
  26:src/kernel.cpp ****         uint64 sepc = RiscV::readSepc() + 4;
 211              		.loc 1 26 32 is_stmt 0
 212 0110 138784FF 		addi	a4,s1,-8
GAS LISTING /tmp/ccyoYm4A.s 			page 13


  26:src/kernel.cpp ****         uint64 sepc = RiscV::readSepc() + 4;
 213              		.loc 1 26 5
 214 0114 93071000 		li	a5,1
 215 0118 63F8E70A 		bleu	a4,a5,.L38
 216              	.LBE148:
  37:src/kernel.cpp ****         if (!TCB::running) { RiscV::clearSip(RiscV::SSIP); return; }
 217              		.loc 1 37 5 is_stmt 1
 218              	.LBB192:
 219 011c 9307F0FF 		li	a5,-1
 220 0120 9397F703 		slli	a5,a5,63
 221 0124 93871700 		addi	a5,a5,1
 222 0128 6380F430 		beq	s1,a5,.L39
 223              	.LBE192:
  53:src/kernel.cpp ****         //console_handler();
 224              		.loc 1 53 5
 225 012c 9307F0FF 		li	a5,-1
 226 0130 9397F703 		slli	a5,a5,63
 227 0134 93879700 		addi	a5,a5,9
 228 0138 6380F438 		beq	s1,a5,.L40
  60:src/kernel.cpp ****     __print_string("Neobradjen izuzetak.\n");
 229              		.loc 1 60 5
 230              	.LBB216:
 231              	.LBB217:
  93:src/../h/riscv.hpp ****     asm volatile("csrr %[sepc], sepc": [sepc] "=r" (sepc));
 232              		.loc 2 93 5
  94:src/../h/riscv.hpp ****     return sepc;
 233              		.loc 2 94 5
  94:src/../h/riscv.hpp ****     return sepc;
 234              		.loc 2 94 59 is_stmt 0
 235              	#APP
 236              	# 94 "src/../h/riscv.hpp" 1
 237              		csrr a5, sepc
 238              	# 0 "" 2
 239              	#NO_APP
 240 0140 2330F4F4 		sd	a5,-192(s0)
  95:src/../h/riscv.hpp **** }
 241              		.loc 2 95 5 is_stmt 1
  95:src/../h/riscv.hpp **** }
 242              		.loc 2 95 12 is_stmt 0
 243 0144 033904F4 		ld	s2,-192(s0)
 244              	.LVL15:
 245              	.LBE217:
 246              	.LBE216:
  61:src/kernel.cpp ****     __print_string("scause: ");
 247              		.loc 1 61 5 is_stmt 1
  61:src/kernel.cpp ****     __print_string("scause: ");
 248              		.loc 1 61 19 is_stmt 0
 249 0148 17050000 		lla	a0,.LC1
 249      13050500 
 250 0150 97000000 		call	_Z14__print_stringPKc@plt
 250      E7800000 
 251              	.LVL16:
  62:src/kernel.cpp ****     __print_uint64(scause);
 252              		.loc 1 62 5 is_stmt 1
  62:src/kernel.cpp ****     __print_uint64(scause);
 253              		.loc 1 62 19 is_stmt 0
 254 0158 17050000 		lla	a0,.LC2
GAS LISTING /tmp/ccyoYm4A.s 			page 14


 254      13050500 
 255 0160 97000000 		call	_Z14__print_stringPKc@plt
 255      E7800000 
 256              	.LVL17:
  63:src/kernel.cpp ****     __putc('\n');
 257              		.loc 1 63 5 is_stmt 1
  63:src/kernel.cpp ****     __putc('\n');
 258              		.loc 1 63 19 is_stmt 0
 259 0168 13850400 		mv	a0,s1
 260 016c 97000000 		call	_Z14__print_uint64m@plt
 260      E7800000 
 261              	.LVL18:
  64:src/kernel.cpp ****     __print_string("sepc: ");
 262              		.loc 1 64 5 is_stmt 1
  64:src/kernel.cpp ****     __print_string("sepc: ");
 263              		.loc 1 64 11 is_stmt 0
 264 0174 1305A000 		li	a0,10
 265 0178 97000000 		call	__putc@plt
 265      E7800000 
 266              	.LVL19:
  65:src/kernel.cpp ****     __print_uint64(sepc);
 267              		.loc 1 65 5 is_stmt 1
  65:src/kernel.cpp ****     __print_uint64(sepc);
 268              		.loc 1 65 19 is_stmt 0
 269 0180 17050000 		lla	a0,.LC3
 269      13050500 
 270 0188 97000000 		call	_Z14__print_stringPKc@plt
 270      E7800000 
 271              	.LVL20:
  66:src/kernel.cpp ****     __putc('\n');
 272              		.loc 1 66 5 is_stmt 1
  66:src/kernel.cpp ****     __putc('\n');
 273              		.loc 1 66 19 is_stmt 0
 274 0190 13050900 		mv	a0,s2
 275 0194 97000000 		call	_Z14__print_uint64m@plt
 275      E7800000 
 276              	.LVL21:
  67:src/kernel.cpp ****     //riscV::clearSip(RiscV::SSIP);
 277              		.loc 1 67 5 is_stmt 1
  67:src/kernel.cpp ****     //riscV::clearSip(RiscV::SSIP);
 278              		.loc 1 67 11 is_stmt 0
 279 019c 1305A000 		li	a0,10
 280 01a0 97000000 		call	__putc@plt
 280      E7800000 
 281              	.LVL22:
  69:src/kernel.cpp ****     return;
 282              		.loc 1 69 5 is_stmt 1
 283              	.LBB218:
 284              	.LBB219:
  99:src/../h/riscv.hpp **** }
 285              		.loc 2 99 5
  99:src/../h/riscv.hpp **** }
 286              		.loc 2 99 59 is_stmt 0
 287              	#APP
 288              	# 99 "src/../h/riscv.hpp" 1
 289              		csrw sepc, s2
 290              	# 0 "" 2
GAS LISTING /tmp/ccyoYm4A.s 			page 15


 291              	.LVL23:
 292              	#NO_APP
 293              	.L10:
 294              	.LBE219:
 295              	.LBE218:
  71:src/kernel.cpp **** 
 296              		.loc 1 71 1
 297 01ac 8330810E 		ld	ra,232(sp)
 298              		.cfi_remember_state
 299              		.cfi_restore 1
 300 01b0 0334010E 		ld	s0,224(sp)
 301              		.cfi_restore 8
 302              		.cfi_def_cfa 2, 240
 303 01b4 8334810D 		ld	s1,216(sp)
 304              		.cfi_restore 9
 305 01b8 0339010D 		ld	s2,208(sp)
 306              		.cfi_restore 18
 307 01bc 8339810C 		ld	s3,200(sp)
 308              		.cfi_restore 19
 309 01c0 1301010F 		addi	sp,sp,240
 310              		.cfi_def_cfa_offset 0
 311 01c4 67800000 		jr	ra
 312              	.LVL24:
 313              	.L38:
 314              		.cfi_restore_state
 315              	.LBB220:
 316              	.LBB149:
  27:src/kernel.cpp ****         uint64 sstatus = RiscV::readSstatus();
 317              		.loc 1 27 9 is_stmt 1
 318              	.LBB150:
 319              	.LBB151:
  93:src/../h/riscv.hpp ****     asm volatile("csrr %[sepc], sepc": [sepc] "=r" (sepc));
 320              		.loc 2 93 5
  94:src/../h/riscv.hpp ****     return sepc;
 321              		.loc 2 94 5
  94:src/../h/riscv.hpp ****     return sepc;
 322              		.loc 2 94 59 is_stmt 0
 323              	#APP
 324              	# 94 "src/../h/riscv.hpp" 1
 325              		csrr a5, sepc
 326              	# 0 "" 2
 327              	#NO_APP
 328 01cc 2334F4F2 		sd	a5,-216(s0)
  95:src/../h/riscv.hpp **** }
 329              		.loc 2 95 5 is_stmt 1
  95:src/../h/riscv.hpp **** }
 330              		.loc 2 95 12 is_stmt 0
 331 01d0 833484F2 		ld	s1,-216(s0)
 332              	.LVL25:
 333              	.LBE151:
 334              	.LBE150:
  27:src/kernel.cpp ****         uint64 sstatus = RiscV::readSstatus();
 335              		.loc 1 27 43
 336 01d4 93844400 		addi	s1,s1,4
 337              	.LVL26:
  28:src/kernel.cpp **** 
 338              		.loc 1 28 9 is_stmt 1
GAS LISTING /tmp/ccyoYm4A.s 			page 16


 339              	.LBB152:
 340              	.LBB153:
 111:src/../h/riscv.hpp **** 
 112:src/../h/riscv.hpp **** inline void RiscV::setSstatus(uint64 mask) {
 113:src/../h/riscv.hpp ****     asm volatile("csrs sstatus, %[mask]":: [mask] "r" (mask));
 114:src/../h/riscv.hpp **** }
 115:src/../h/riscv.hpp **** 
 116:src/../h/riscv.hpp **** inline void RiscV::clearSstatus(uint64 mask) {
 117:src/../h/riscv.hpp ****     asm volatile("csrc sstatus, %[mask]":: [mask] "r" (mask));
 118:src/../h/riscv.hpp **** }
 119:src/../h/riscv.hpp **** 
 120:src/../h/riscv.hpp **** inline uint64 RiscV::readSstatus() {
 121:src/../h/riscv.hpp ****     uint64 volatile sstatus;
 341              		.loc 2 121 5
 122:src/../h/riscv.hpp ****     asm volatile("csrr %[sstatus], sstatus": [sstatus] "=r" (sstatus));
 342              		.loc 2 122 5
 343              		.loc 2 122 71 is_stmt 0
 344              	#APP
 345              	# 122 "src/../h/riscv.hpp" 1
 123              	    return sstatus;
 346              		csrr a5, sstatus
 347              	# 0 "" 2
 348              	#NO_APP
 349 01dc 2330F4F2 		sd	a5,-224(s0)
 350              		.loc 2 123 5 is_stmt 1
 351              		.loc 2 123 12 is_stmt 0
 352 01e0 033904F2 		ld	s2,-224(s0)
 353              	.LVL27:
 354              	.LBE153:
 355              	.LBE152:
  30:src/kernel.cpp **** 
 356              		.loc 1 30 9 is_stmt 1
 357              	.LBB154:
 358              	.LBB155:
  56:src/../h/kernel.hpp ****     asm volatile ("mv %[syscall_id], a7": [syscall_id] "=r" (syscall_id));
 359              		.loc 3 56 5
  57:src/../h/kernel.hpp **** 
 360              		.loc 3 57 5
  57:src/../h/kernel.hpp **** 
 361              		.loc 3 57 74 is_stmt 0
 362              	#APP
 363              	# 57 "src/../h/kernel.hpp" 1
 364              		mv a5, a7
 365              	# 0 "" 2
 366              	#NO_APP
 367 01e8 2334F4F4 		sd	a5,-184(s0)
  60:src/../h/kernel.hpp ****         case 0x01:
 368              		.loc 3 60 5 is_stmt 1
  60:src/../h/kernel.hpp ****         case 0x01:
 369              		.loc 3 60 12 is_stmt 0
 370 01ec 833784F4 		ld	a5,-184(s0)
 371 01f0 13072004 		li	a4,66
 372              	.LVL28:
 373 01f4 636EF720 		bgtu	a5,a4,.L12
 374 01f8 93972700 		slli	a5,a5,2
 375 01fc 17070000 		lla	a4,.L14
 375      13070700 
GAS LISTING /tmp/ccyoYm4A.s 			page 17


 376 0204 B387E700 		add	a5,a5,a4
 377 0208 83A70700 		lw	a5,0(a5)
 378 020c B387E700 		add	a5,a5,a4
 379 0210 67800700 		jr	a5
 380              		.section	.rodata
 381              		.align	2
 382              		.align	2
 383              	.L14:
 384 0000 00000000 		.word	.L12-.L14
 385 0004 00000000 		.word	.L26-.L14
 386 0008 00000000 		.word	.L25-.L14
 387 000c 00000000 		.word	.L12-.L14
 388 0010 00000000 		.word	.L12-.L14
 389 0014 00000000 		.word	.L12-.L14
 390 0018 00000000 		.word	.L12-.L14
 391 001c 00000000 		.word	.L12-.L14
 392 0020 00000000 		.word	.L12-.L14
 393 0024 00000000 		.word	.L12-.L14
 394 0028 00000000 		.word	.L12-.L14
 395 002c 00000000 		.word	.L12-.L14
 396 0030 00000000 		.word	.L12-.L14
 397 0034 00000000 		.word	.L12-.L14
 398 0038 00000000 		.word	.L12-.L14
 399 003c 00000000 		.word	.L12-.L14
 400 0040 00000000 		.word	.L12-.L14
 401 0044 00000000 		.word	.L24-.L14
 402 0048 00000000 		.word	.L23-.L14
 403 004c 00000000 		.word	.L22-.L14
 404 0050 00000000 		.word	.L21-.L14
 405 0054 00000000 		.word	.L12-.L14
 406 0058 00000000 		.word	.L12-.L14
 407 005c 00000000 		.word	.L12-.L14
 408 0060 00000000 		.word	.L12-.L14
 409 0064 00000000 		.word	.L12-.L14
 410 0068 00000000 		.word	.L12-.L14
 411 006c 00000000 		.word	.L12-.L14
 412 0070 00000000 		.word	.L12-.L14
 413 0074 00000000 		.word	.L12-.L14
 414 0078 00000000 		.word	.L12-.L14
 415 007c 00000000 		.word	.L12-.L14
 416 0080 00000000 		.word	.L12-.L14
 417 0084 00000000 		.word	.L20-.L14
 418 0088 00000000 		.word	.L19-.L14
 419 008c 00000000 		.word	.L18-.L14
 420 0090 00000000 		.word	.L17-.L14
 421 0094 00000000 		.word	.L12-.L14
 422 0098 00000000 		.word	.L12-.L14
 423 009c 00000000 		.word	.L12-.L14
 424 00a0 00000000 		.word	.L12-.L14
 425 00a4 00000000 		.word	.L12-.L14
 426 00a8 00000000 		.word	.L12-.L14
 427 00ac 00000000 		.word	.L12-.L14
 428 00b0 00000000 		.word	.L12-.L14
 429 00b4 00000000 		.word	.L12-.L14
 430 00b8 00000000 		.word	.L12-.L14
 431 00bc 00000000 		.word	.L12-.L14
 432 00c0 00000000 		.word	.L12-.L14
GAS LISTING /tmp/ccyoYm4A.s 			page 18


 433 00c4 00000000 		.word	.L16-.L14
 434 00c8 00000000 		.word	.L12-.L14
 435 00cc 00000000 		.word	.L12-.L14
 436 00d0 00000000 		.word	.L12-.L14
 437 00d4 00000000 		.word	.L12-.L14
 438 00d8 00000000 		.word	.L12-.L14
 439 00dc 00000000 		.word	.L12-.L14
 440 00e0 00000000 		.word	.L12-.L14
 441 00e4 00000000 		.word	.L12-.L14
 442 00e8 00000000 		.word	.L12-.L14
 443 00ec 00000000 		.word	.L12-.L14
 444 00f0 00000000 		.word	.L12-.L14
 445 00f4 00000000 		.word	.L12-.L14
 446 00f8 00000000 		.word	.L12-.L14
 447 00fc 00000000 		.word	.L12-.L14
 448 0100 00000000 		.word	.L12-.L14
 449 0104 00000000 		.word	.L15-.L14
 450 0108 00000000 		.word	.L13-.L14
 451              		.text
 452              	.L26:
  61:src/../h/kernel.hpp ****             Kernel::mem_alloc_handler();
 453              		.loc 3 61 9 is_stmt 1
  62:src/../h/kernel.hpp ****             break;
 454              		.loc 3 62 13
 455              	.LBB156:
 456              	.LBB157:
 109:src/../h/kernel.hpp ****     asm volatile ("mv %[arg0], a0": [arg0] "=r"(arg0));
 457              		.loc 3 109 5
 110:src/../h/kernel.hpp ****     MemoryAllocator::allocate((size_t)arg0);
 458              		.loc 3 110 5
 110:src/../h/kernel.hpp ****     MemoryAllocator::allocate((size_t)arg0);
 459              		.loc 3 110 55 is_stmt 0
 460              	#APP
 461              	# 110 "src/../h/kernel.hpp" 1
 462              		mv a5, a0
 463              	# 0 "" 2
 464              	#NO_APP
 465 0218 2330F4F8 		sd	a5,-128(s0)
 111:src/../h/kernel.hpp **** }
 466              		.loc 3 111 5 is_stmt 1
 111:src/../h/kernel.hpp **** }
 467              		.loc 3 111 30 is_stmt 0
 468 021c 033504F8 		ld	a0,-128(s0)
 469 0220 97000000 		call	_ZN15MemoryAllocator8allocateEm@plt
 469      E7800000 
 470              	.LVL29:
 471              	.L27:
 472              	.LBE157:
 473              	.LBE156:
 474              	.LBE155:
 475              	.LBE154:
  32:src/kernel.cpp ****         RiscV::writeSstatus(sstatus);
 476              		.loc 1 32 9 is_stmt 1
  32:src/kernel.cpp ****         RiscV::writeSstatus(sstatus);
 477              		.loc 1 32 39 is_stmt 0
 478              	#APP
 479              	# 32 "src/kernel.cpp" 1
GAS LISTING /tmp/ccyoYm4A.s 			page 19


  33:src/kernel.cpp ****         RiscV::writeSepc(sepc);
 480              		sd a0, 80(s0)
 481              	# 0 "" 2
 482              		.loc 1 33 9 is_stmt 1
 483              	.LVL30:
 484              	#NO_APP
 485              	.LBB187:
 486              	.LBB188:
 124:src/../h/riscv.hpp **** }
 125:src/../h/riscv.hpp **** 
 126:src/../h/riscv.hpp **** inline void RiscV::writeSstatus(uint64 sstatus) {
 127:src/../h/riscv.hpp ****     asm volatile("csrw sstatus, %[sstatus]":: [sstatus] "r" (sstatus));
 487              		.loc 2 127 5
 488              		.loc 2 127 71 is_stmt 0
 489              	#APP
 490              	# 127 "src/../h/riscv.hpp" 1
 128              	}
 491              		csrw sstatus, s2
 492              	# 0 "" 2
 493              	.LVL31:
 494              	#NO_APP
 495              	.LBE188:
 496              	.LBE187:
  34:src/kernel.cpp ****         return;
 497              		.loc 1 34 9 is_stmt 1
 498              	.LBB189:
 499              	.LBB190:
  99:src/../h/riscv.hpp **** }
 500              		.loc 2 99 5
  99:src/../h/riscv.hpp **** }
 501              		.loc 2 99 59 is_stmt 0
 502              	#APP
 503              	# 99 "src/../h/riscv.hpp" 1
 504              		csrw sepc, s1
 505              	# 0 "" 2
 506              	.LVL32:
 507              	#NO_APP
 508              	.LBE190:
 509              	.LBE189:
  35:src/kernel.cpp ****     }
 510              		.loc 1 35 9 is_stmt 1
 511 0234 6FF09FF7 		j	.L10
 512              	.L25:
 513              	.LBB191:
 514              	.LBB186:
  64:src/../h/kernel.hpp ****             Kernel::mem_free_handler();
 515              		.loc 3 64 9
  65:src/../h/kernel.hpp ****             break;
 516              		.loc 3 65 13
 517              	.LBB158:
 518              	.LBB159:
 116:src/../h/kernel.hpp ****     asm volatile ("mv %[arg0], a0": [arg0] "=r"(arg0));
 519              		.loc 3 116 5
 117:src/../h/kernel.hpp ****     MemoryAllocator::free((void*)arg0);
 520              		.loc 3 117 5
 117:src/../h/kernel.hpp ****     MemoryAllocator::free((void*)arg0);
 521              		.loc 3 117 55 is_stmt 0
GAS LISTING /tmp/ccyoYm4A.s 			page 20


 522              	#APP
 523              	# 117 "src/../h/kernel.hpp" 1
 524              		mv a5, a0
 525              	# 0 "" 2
 526              	#NO_APP
 527 023c 233CF4F6 		sd	a5,-136(s0)
 118:src/../h/kernel.hpp **** }
 528              		.loc 3 118 5 is_stmt 1
 118:src/../h/kernel.hpp **** }
 529              		.loc 3 118 26 is_stmt 0
 530 0240 033584F7 		ld	a0,-136(s0)
 531 0244 97000000 		call	_ZN15MemoryAllocator4freeEPv@plt
 531      E7800000 
 532              	.LVL33:
 119:src/../h/kernel.hpp **** 
 533              		.loc 3 119 1
 534 024c 6FF0DFFD 		j	.L27
 535              	.L24:
 536              	.LBE159:
 537              	.LBE158:
  67:src/../h/kernel.hpp ****             Kernel::thread_create_handler();
 538              		.loc 3 67 9 is_stmt 1
  68:src/../h/kernel.hpp ****             break;
 539              		.loc 3 68 13
 540              	.LBB160:
 541              	.LBB161:
 123:src/../h/kernel.hpp ****     asm volatile ("mv %[arg0], a0": [arg0] "=r"(arg0));
 542              		.loc 3 123 5
 124:src/../h/kernel.hpp ****     asm volatile ("mv %[arg1], a1": [arg1] "=r"(arg1));
 543              		.loc 3 124 5
 124:src/../h/kernel.hpp ****     asm volatile ("mv %[arg1], a1": [arg1] "=r"(arg1));
 544              		.loc 3 124 55 is_stmt 0
 545              	#APP
 546              	# 124 "src/../h/kernel.hpp" 1
 547              		mv a5, a0
 548              	# 0 "" 2
 549              	#NO_APP
 550 0254 2334F4F8 		sd	a5,-120(s0)
 125:src/../h/kernel.hpp ****     asm volatile ("mv %[arg2], a2": [arg2] "=r"(arg2));
 551              		.loc 3 125 5 is_stmt 1
 125:src/../h/kernel.hpp ****     asm volatile ("mv %[arg2], a2": [arg2] "=r"(arg2));
 552              		.loc 3 125 55 is_stmt 0
 553              	#APP
 554              	# 125 "src/../h/kernel.hpp" 1
 555              		mv a5, a1
 556              	# 0 "" 2
 557              	#NO_APP
 558 025c 2338F4F8 		sd	a5,-112(s0)
 126:src/../h/kernel.hpp **** 
 559              		.loc 3 126 5 is_stmt 1
 126:src/../h/kernel.hpp **** 
 560              		.loc 3 126 55 is_stmt 0
 561              	#APP
 562              	# 126 "src/../h/kernel.hpp" 1
 563              		mv a5, a2
 564              	# 0 "" 2
 565              	#NO_APP
GAS LISTING /tmp/ccyoYm4A.s 			page 21


 566 0264 233CF4F8 		sd	a5,-104(s0)
 128:src/../h/kernel.hpp **** 
 567              		.loc 3 128 5 is_stmt 1
 128:src/../h/kernel.hpp **** 
 568              		.loc 3 128 34 is_stmt 0
 569 0268 033504F9 		ld	a0,-112(s0)
 570 026c 833584F9 		ld	a1,-104(s0)
 128:src/../h/kernel.hpp **** 
 571              		.loc 3 128 5
 572 0270 833984F8 		ld	s3,-120(s0)
 128:src/../h/kernel.hpp **** 
 573              		.loc 3 128 34
 574 0274 97000000 		call	_ZN3TCB9createTCBEPFvPvES0_@plt
 574      E7800000 
 575              	.LVL34:
 128:src/../h/kernel.hpp **** 
 576              		.loc 3 128 18
 577 027c 23B0A900 		sd	a0,0(s3)
 130:src/../h/kernel.hpp ****     if (!(*(TCB**)arg0)) asm volatile("addi a0, a0, -1");
 578              		.loc 3 130 5 is_stmt 1
 130:src/../h/kernel.hpp ****     if (!(*(TCB**)arg0)) asm volatile("addi a0, a0, -1");
 579              		.loc 3 130 32 is_stmt 0
 580              	#APP
 581              	# 130 "src/../h/kernel.hpp" 1
 131:src/../h/kernel.hpp **** }
 582              		mv a0, zero
 583              	# 0 "" 2
 584              		.loc 3 131 5 is_stmt 1
 131:src/../h/kernel.hpp **** }
 585              		.loc 3 131 11 is_stmt 0
 586              	#NO_APP
 587 0284 833784F8 		ld	a5,-120(s0)
 588 0288 83B70700 		ld	a5,0(a5)
 131:src/../h/kernel.hpp **** }
 589              		.loc 3 131 5
 590 028c E39E07F8 		bnez	a5,.L27
 131:src/../h/kernel.hpp **** }
 591              		.loc 3 131 26 is_stmt 1
 131:src/../h/kernel.hpp **** }
 592              		.loc 3 131 57 is_stmt 0
 593              	#APP
 594              	# 131 "src/../h/kernel.hpp" 1
 132:src/../h/kernel.hpp **** 
 595              		addi a0, a0, -1
 596              	# 0 "" 2
 597              		.loc 3 132 1
 598              	#NO_APP
 599 0294 6FF05FF9 		j	.L27
 600              	.L23:
 601              	.LBE161:
 602              	.LBE160:
  70:src/../h/kernel.hpp ****             Kernel::thread_exit_handler();
 603              		.loc 3 70 9 is_stmt 1
  71:src/../h/kernel.hpp ****             break;
 604              		.loc 3 71 13
 605              	.LBB162:
 606              	.LBB163:
GAS LISTING /tmp/ccyoYm4A.s 			page 22


 136:src/../h/kernel.hpp ****     asm volatile ("addi a0, zero, 0");
 607              		.loc 3 136 5
 136:src/../h/kernel.hpp ****     asm volatile ("addi a0, zero, 0");
 608              		.loc 3 136 30 is_stmt 0
 609 0298 97070000 		la	a5,_ZN3TCB7runningE
 609      83B70700 
 610 02a0 83B70700 		ld	a5,0(a5)
 611              	.LVL35:
 612              	.LBB164:
 613              	.LBB165:
 614              		.file 4 "src/../h/tcb.hpp"
   1:src/../h/tcb.hpp **** //
   2:src/../h/tcb.hpp **** // Created by os on 9/9/22.
   3:src/../h/tcb.hpp **** //
   4:src/../h/tcb.hpp **** 
   5:src/../h/tcb.hpp **** #ifndef OSMIUM_TCB_HPP
   6:src/../h/tcb.hpp **** #define OSMIUM_TCB_HPP
   7:src/../h/tcb.hpp **** 
   8:src/../h/tcb.hpp **** #include "../lib/hw.h"
   9:src/../h/tcb.hpp **** //#include "../h/scheduler.hpp"
  10:src/../h/tcb.hpp **** #include "riscv.hpp"
  11:src/../h/tcb.hpp **** #include "memory_allocator.hpp"
  12:src/../h/tcb.hpp **** 
  13:src/../h/tcb.hpp **** class Scheduler;
  14:src/../h/tcb.hpp **** 
  15:src/../h/tcb.hpp **** 
  16:src/../h/tcb.hpp **** class TCB {
  17:src/../h/tcb.hpp **** public:
  18:src/../h/tcb.hpp ****     using Body = void (*)(void*);
  19:src/../h/tcb.hpp **** 
  20:src/../h/tcb.hpp ****     static TCB* createTCB(Body body, void* args);
  21:src/../h/tcb.hpp **** 
  22:src/../h/tcb.hpp ****     static TCB* createDeactivatedTCB(Body body, void* args);
  23:src/../h/tcb.hpp **** 
  24:src/../h/tcb.hpp ****     static TCB* createSupervisorTCB(Body body, void* args);
  25:src/../h/tcb.hpp **** 
  26:src/../h/tcb.hpp ****     bool isFinished() const { return finished; }
  27:src/../h/tcb.hpp **** 
  28:src/../h/tcb.hpp ****     void setFinished(bool val) { finished = val; }
 615              		.loc 4 28 34 is_stmt 1
 616              		.loc 4 28 43 is_stmt 0
 617 02a4 13071000 		li	a4,1
 618 02a8 238CE700 		sb	a4,24(a5)
 619              	.LVL36:
 620              	.LBE165:
 621              	.LBE164:
 137:src/../h/kernel.hpp ****     //TCB::yield();
 622              		.loc 3 137 5 is_stmt 1
 137:src/../h/kernel.hpp ****     //TCB::yield();
 623              		.loc 3 137 38 is_stmt 0
 624              	#APP
 625              	# 137 "src/../h/kernel.hpp" 1
 139:src/../h/kernel.hpp **** }
 626              		addi a0, zero, 0
 627              	# 0 "" 2
 628              		.loc 3 139 5 is_stmt 1
 139:src/../h/kernel.hpp **** }
GAS LISTING /tmp/ccyoYm4A.s 			page 23


 629              		.loc 3 139 18 is_stmt 0
 630              	#NO_APP
 631 02b0 97000000 		call	_ZN3TCB8dispatchEv@plt
 631      E7800000 
 632              	.LVL37:
 140:src/../h/kernel.hpp **** 
 633              		.loc 3 140 1
 634 02b8 6FF01FF7 		j	.L27
 635              	.L22:
 636              	.LBE163:
 637              	.LBE162:
  73:src/../h/kernel.hpp ****             Kernel::thread_dispatch_handler();
 638              		.loc 3 73 9 is_stmt 1
  74:src/../h/kernel.hpp ****             break;
 639              		.loc 3 74 13
 640              	.LBB166:
 641              	.LBB167:
 145:src/../h/kernel.hpp **** }
 642              		.loc 3 145 5
 145:src/../h/kernel.hpp **** }
 643              		.loc 3 145 18 is_stmt 0
 644 02bc 97000000 		call	_ZN3TCB8dispatchEv@plt
 644      E7800000 
 645              	.LVL38:
 146:src/../h/kernel.hpp **** 
 646              		.loc 3 146 1
 647 02c4 6FF05FF6 		j	.L27
 648              	.L21:
 649              	.LBE167:
 650              	.LBE166:
  76:src/../h/kernel.hpp ****             Kernel::thread_create_deactivated_handler();
 651              		.loc 3 76 9 is_stmt 1
  77:src/../h/kernel.hpp ****             break;
 652              		.loc 3 77 13
 653              	.LBB168:
 654              	.LBB169:
 150:src/../h/kernel.hpp ****     asm volatile ("mv %[arg0], a0": [arg0] "=r"(arg0));
 655              		.loc 3 150 5
 151:src/../h/kernel.hpp ****     asm volatile ("mv %[arg1], a1": [arg1] "=r"(arg1));
 656              		.loc 3 151 5
 151:src/../h/kernel.hpp ****     asm volatile ("mv %[arg1], a1": [arg1] "=r"(arg1));
 657              		.loc 3 151 55 is_stmt 0
 658              	#APP
 659              	# 151 "src/../h/kernel.hpp" 1
 660              		mv a5, a0
 661              	# 0 "" 2
 662              	#NO_APP
 663 02cc 2330F4FA 		sd	a5,-96(s0)
 152:src/../h/kernel.hpp ****     asm volatile ("mv %[arg2], a2": [arg2] "=r"(arg2));
 664              		.loc 3 152 5 is_stmt 1
 152:src/../h/kernel.hpp ****     asm volatile ("mv %[arg2], a2": [arg2] "=r"(arg2));
 665              		.loc 3 152 55 is_stmt 0
 666              	#APP
 667              	# 152 "src/../h/kernel.hpp" 1
 668              		mv a5, a1
 669              	# 0 "" 2
 670              	#NO_APP
GAS LISTING /tmp/ccyoYm4A.s 			page 24


 671 02d4 2334F4FA 		sd	a5,-88(s0)
 153:src/../h/kernel.hpp **** 
 672              		.loc 3 153 5 is_stmt 1
 153:src/../h/kernel.hpp **** 
 673              		.loc 3 153 55 is_stmt 0
 674              	#APP
 675              	# 153 "src/../h/kernel.hpp" 1
 676              		mv a5, a2
 677              	# 0 "" 2
 678              	#NO_APP
 679 02dc 2338F4FA 		sd	a5,-80(s0)
 155:src/../h/kernel.hpp **** 
 680              		.loc 3 155 5 is_stmt 1
 155:src/../h/kernel.hpp **** 
 681              		.loc 3 155 45 is_stmt 0
 682 02e0 033584FA 		ld	a0,-88(s0)
 683 02e4 833504FB 		ld	a1,-80(s0)
 155:src/../h/kernel.hpp **** 
 684              		.loc 3 155 5
 685 02e8 833904FA 		ld	s3,-96(s0)
 155:src/../h/kernel.hpp **** 
 686              		.loc 3 155 45
 687 02ec 97000000 		call	_ZN3TCB20createDeactivatedTCBEPFvPvES0_@plt
 687      E7800000 
 688              	.LVL39:
 155:src/../h/kernel.hpp **** 
 689              		.loc 3 155 18
 690 02f4 23B0A900 		sd	a0,0(s3)
 157:src/../h/kernel.hpp ****     if (!(*(TCB**)arg0)) asm volatile("addi a0, a0, -1");
 691              		.loc 3 157 5 is_stmt 1
 157:src/../h/kernel.hpp ****     if (!(*(TCB**)arg0)) asm volatile("addi a0, a0, -1");
 692              		.loc 3 157 32 is_stmt 0
 693              	#APP
 694              	# 157 "src/../h/kernel.hpp" 1
 158:src/../h/kernel.hpp **** }
 695              		mv a0, zero
 696              	# 0 "" 2
 697              		.loc 3 158 5 is_stmt 1
 158:src/../h/kernel.hpp **** }
 698              		.loc 3 158 11 is_stmt 0
 699              	#NO_APP
 700 02fc 833704FA 		ld	a5,-96(s0)
 701 0300 83B70700 		ld	a5,0(a5)
 158:src/../h/kernel.hpp **** }
 702              		.loc 3 158 5
 703 0304 E39207F2 		bnez	a5,.L27
 158:src/../h/kernel.hpp **** }
 704              		.loc 3 158 26 is_stmt 1
 158:src/../h/kernel.hpp **** }
 705              		.loc 3 158 57 is_stmt 0
 706              	#APP
 707              	# 158 "src/../h/kernel.hpp" 1
 159:src/../h/kernel.hpp **** 
 708              		addi a0, a0, -1
 709              	# 0 "" 2
 710              		.loc 3 159 1
 711              	#NO_APP
GAS LISTING /tmp/ccyoYm4A.s 			page 25


 712 030c 6FF0DFF1 		j	.L27
 713              	.L20:
 714              	.LBE169:
 715              	.LBE168:
  79:src/../h/kernel.hpp ****             Kernel::sem_open_handler();
 716              		.loc 3 79 9 is_stmt 1
  80:src/../h/kernel.hpp ****             break;
 717              		.loc 3 80 13
 718              	.LBB170:
 719              	.LBB171:
 163:src/../h/kernel.hpp ****     asm volatile ("mv %[arg0], a0": [arg0] "=r"(arg0));
 720              		.loc 3 163 5
 164:src/../h/kernel.hpp ****     asm volatile ("mv %[arg1], a1": [arg1] "=r"(arg1));
 721              		.loc 3 164 5
 164:src/../h/kernel.hpp ****     asm volatile ("mv %[arg1], a1": [arg1] "=r"(arg1));
 722              		.loc 3 164 55 is_stmt 0
 723              	#APP
 724              	# 164 "src/../h/kernel.hpp" 1
 725              		mv a5, a0
 726              	# 0 "" 2
 727              	#NO_APP
 728 0314 233CF4FA 		sd	a5,-72(s0)
 165:src/../h/kernel.hpp **** 
 729              		.loc 3 165 5 is_stmt 1
 165:src/../h/kernel.hpp **** 
 730              		.loc 3 165 55 is_stmt 0
 731              	#APP
 732              	# 165 "src/../h/kernel.hpp" 1
 733              		mv a5, a1
 734              	# 0 "" 2
 735              	#NO_APP
 736 031c 2330F4FC 		sd	a5,-64(s0)
 167:src/../h/kernel.hpp **** 
 737              		.loc 3 167 5 is_stmt 1
 167:src/../h/kernel.hpp **** 
 738              		.loc 3 167 34 is_stmt 0
 739 0320 033504FC 		ld	a0,-64(s0)
 167:src/../h/kernel.hpp **** 
 740              		.loc 3 167 5
 741 0324 833984FB 		ld	s3,-72(s0)
 167:src/../h/kernel.hpp **** 
 742              		.loc 3 167 34
 743 0328 1B050500 		sext.w	a0,a0
 744 032c 97000000 		call	_ZN3Sem9createSemEj@plt
 744      E7800000 
 745              	.LVL40:
 167:src/../h/kernel.hpp **** 
 746              		.loc 3 167 18
 747 0334 23B0A900 		sd	a0,0(s3)
 169:src/../h/kernel.hpp ****     if (!(*(Sem**)arg0)) asm volatile("addi a0, a0, -1");
 748              		.loc 3 169 5 is_stmt 1
 169:src/../h/kernel.hpp ****     if (!(*(Sem**)arg0)) asm volatile("addi a0, a0, -1");
 749              		.loc 3 169 32 is_stmt 0
 750              	#APP
 751              	# 169 "src/../h/kernel.hpp" 1
 170:src/../h/kernel.hpp **** }
 752              		mv a0, zero
GAS LISTING /tmp/ccyoYm4A.s 			page 26


 753              	# 0 "" 2
 754              		.loc 3 170 5 is_stmt 1
 170:src/../h/kernel.hpp **** }
 755              		.loc 3 170 11 is_stmt 0
 756              	#NO_APP
 757 033c 833784FB 		ld	a5,-72(s0)
 758 0340 83B70700 		ld	a5,0(a5)
 170:src/../h/kernel.hpp **** }
 759              		.loc 3 170 5
 760 0344 E39207EE 		bnez	a5,.L27
 170:src/../h/kernel.hpp **** }
 761              		.loc 3 170 26 is_stmt 1
 170:src/../h/kernel.hpp **** }
 762              		.loc 3 170 57 is_stmt 0
 763              	#APP
 764              	# 170 "src/../h/kernel.hpp" 1
 171:src/../h/kernel.hpp **** 
 765              		addi a0, a0, -1
 766              	# 0 "" 2
 767              		.loc 3 171 1
 768              	#NO_APP
 769 034c 6FF0DFED 		j	.L27
 770              	.L19:
 771              	.LBE171:
 772              	.LBE170:
  82:src/../h/kernel.hpp ****             Kernel::sem_close_handler();
 773              		.loc 3 82 9 is_stmt 1
  83:src/../h/kernel.hpp ****             break;
 774              		.loc 3 83 13
 775              	.LBB172:
 776              	.LBB173:
 175:src/../h/kernel.hpp ****     asm volatile ("mv %[arg0], a0": [arg0] "=r"(arg0));
 777              		.loc 3 175 5
 176:src/../h/kernel.hpp ****     delete *(Sem**)arg0;
 778              		.loc 3 176 5
 176:src/../h/kernel.hpp ****     delete *(Sem**)arg0;
 779              		.loc 3 176 55 is_stmt 0
 780              	#APP
 781              	# 176 "src/../h/kernel.hpp" 1
 782              		mv a5, a0
 783              	# 0 "" 2
 784              	#NO_APP
 785 0354 2334F4FC 		sd	a5,-56(s0)
 177:src/../h/kernel.hpp **** 
 786              		.loc 3 177 5 is_stmt 1
 177:src/../h/kernel.hpp **** 
 787              		.loc 3 177 12 is_stmt 0
 788 0358 833784FC 		ld	a5,-56(s0)
 789 035c 83B90700 		ld	s3,0(a5)
 177:src/../h/kernel.hpp **** 
 790              		.loc 3 177 24
 791 0360 638E0900 		beqz	s3,.L31
 177:src/../h/kernel.hpp **** 
 792              		.loc 3 177 20
 793 0364 13850900 		mv	a0,s3
 794 0368 97000000 		call	_ZN3SemD1Ev@plt
 794      E7800000 
GAS LISTING /tmp/ccyoYm4A.s 			page 27


 795              	.LVL41:
 796              	.LBB174:
 797              	.LBB175:
 798              		.file 5 "src/../h/sem.hpp"
   1:src/../h/sem.hpp **** //
   2:src/../h/sem.hpp **** // Created by os on 9/12/22.
   3:src/../h/sem.hpp **** //
   4:src/../h/sem.hpp **** 
   5:src/../h/sem.hpp **** #ifndef OSMIUM_SEM_HPP
   6:src/../h/sem.hpp **** #define OSMIUM_SEM_HPP
   7:src/../h/sem.hpp **** 
   8:src/../h/sem.hpp **** #include "../lib/hw.h"
   9:src/../h/sem.hpp **** #include "tcb.hpp"
  10:src/../h/sem.hpp **** #include "list.hpp"
  11:src/../h/sem.hpp **** #include "scheduler.hpp"
  12:src/../h/sem.hpp **** 
  13:src/../h/sem.hpp **** class Sem {
  14:src/../h/sem.hpp **** public:
  15:src/../h/sem.hpp ****     static Sem* createSem(unsigned init);
  16:src/../h/sem.hpp **** 
  17:src/../h/sem.hpp ****     ~Sem();
  18:src/../h/sem.hpp **** 
  19:src/../h/sem.hpp ****     int semWait();
  20:src/../h/sem.hpp **** 
  21:src/../h/sem.hpp ****     int semSignal();
  22:src/../h/sem.hpp **** 
  23:src/../h/sem.hpp ****     void* operator new(size_t size) {
  24:src/../h/sem.hpp ****         return MemoryAllocator::allocate(size);
  25:src/../h/sem.hpp ****     }
  26:src/../h/sem.hpp **** 
  27:src/../h/sem.hpp ****     void* operator new[](size_t size) {
  28:src/../h/sem.hpp ****         return MemoryAllocator::allocate(size);
  29:src/../h/sem.hpp ****     }
  30:src/../h/sem.hpp **** 
  31:src/../h/sem.hpp ****     void operator delete(void* ptr) {
  32:src/../h/sem.hpp ****         MemoryAllocator::free(ptr);
 799              		.loc 5 32 9 is_stmt 1
 800              		.loc 5 32 30 is_stmt 0
 801 0370 13850900 		mv	a0,s3
 802 0374 97000000 		call	_ZN15MemoryAllocator4freeEPv@plt
 802      E7800000 
 803              	.LVL42:
 804              	.L31:
 805              	.LBE175:
 806              	.LBE174:
 179:src/../h/kernel.hpp **** }
 807              		.loc 3 179 5 is_stmt 1
 179:src/../h/kernel.hpp **** }
 808              		.loc 3 179 32 is_stmt 0
 809              	#APP
 810              	# 179 "src/../h/kernel.hpp" 1
 180:src/../h/kernel.hpp **** 
 811              		mv a0, zero
 812              	# 0 "" 2
 813              		.loc 3 180 1
 814              	#NO_APP
 815 0380 6FF09FEA 		j	.L27
GAS LISTING /tmp/ccyoYm4A.s 			page 28


 816              	.L18:
 817              	.LBE173:
 818              	.LBE172:
  85:src/../h/kernel.hpp ****             Kernel::sem_wait_handler();
 819              		.loc 3 85 9 is_stmt 1
  86:src/../h/kernel.hpp ****             break;
 820              		.loc 3 86 13
 821              	.LBB176:
 822              	.LBB177:
 184:src/../h/kernel.hpp ****     asm volatile ("mv %[arg0], a0": [arg0] "=r"(arg0));
 823              		.loc 3 184 5
 185:src/../h/kernel.hpp ****     ((Sem*)arg0)->semWait();
 824              		.loc 3 185 5
 185:src/../h/kernel.hpp ****     ((Sem*)arg0)->semWait();
 825              		.loc 3 185 55 is_stmt 0
 826              	#APP
 827              	# 185 "src/../h/kernel.hpp" 1
 828              		mv a5, a0
 829              	# 0 "" 2
 830              	#NO_APP
 831 0388 2338F4F6 		sd	a5,-144(s0)
 186:src/../h/kernel.hpp **** 
 832              		.loc 3 186 5 is_stmt 1
 186:src/../h/kernel.hpp **** 
 833              		.loc 3 186 26 is_stmt 0
 834 038c 033504F7 		ld	a0,-144(s0)
 835 0390 97000000 		call	_ZN3Sem7semWaitEv@plt
 835      E7800000 
 836              	.LVL43:
 189:src/../h/kernel.hpp **** 
 837              		.loc 3 189 1
 838 0398 6FF01FE9 		j	.L27
 839              	.L17:
 840              	.LBE177:
 841              	.LBE176:
  88:src/../h/kernel.hpp ****             Kernel::sem_signal_handler();
 842              		.loc 3 88 9 is_stmt 1
  89:src/../h/kernel.hpp ****             break;
 843              		.loc 3 89 13
 844              	.LBB178:
 845              	.LBB179:
 193:src/../h/kernel.hpp ****     asm volatile ("mv %[arg0], a0": [arg0] "=r"(arg0));
 846              		.loc 3 193 5
 194:src/../h/kernel.hpp ****     ((Sem*)arg0)->semSignal();
 847              		.loc 3 194 5
 194:src/../h/kernel.hpp ****     ((Sem*)arg0)->semSignal();
 848              		.loc 3 194 55 is_stmt 0
 849              	#APP
 850              	# 194 "src/../h/kernel.hpp" 1
 851              		mv a5, a0
 852              	# 0 "" 2
 853              	#NO_APP
 854 03a0 2334F4F6 		sd	a5,-152(s0)
 195:src/../h/kernel.hpp **** }
 855              		.loc 3 195 5 is_stmt 1
 195:src/../h/kernel.hpp **** }
 856              		.loc 3 195 28 is_stmt 0
GAS LISTING /tmp/ccyoYm4A.s 			page 29


 857 03a4 033584F6 		ld	a0,-152(s0)
 858 03a8 97000000 		call	_ZN3Sem9semSignalEv@plt
 858      E7800000 
 859              	.LVL44:
 196:src/../h/kernel.hpp **** 
 860              		.loc 3 196 1
 861 03b0 6FF09FE7 		j	.L27
 862              	.L16:
 863              	.LBE179:
 864              	.LBE178:
  91:src/../h/kernel.hpp ****             Kernel::time_sleep_handler();
 865              		.loc 3 91 9 is_stmt 1
  92:src/../h/kernel.hpp ****             break;
 866              		.loc 3 92 13
 867              	.LBB180:
 868              	.LBB181:
 200:src/../h/kernel.hpp ****     asm volatile ("mv %[arg0], a0": [arg0] "=r"(arg0));
 869              		.loc 3 200 5
 201:src/../h/kernel.hpp ****     Scheduler::timeSleep((time_t)arg0);
 870              		.loc 3 201 5
 201:src/../h/kernel.hpp ****     Scheduler::timeSleep((time_t)arg0);
 871              		.loc 3 201 55 is_stmt 0
 872              	#APP
 873              	# 201 "src/../h/kernel.hpp" 1
 874              		mv a5, a0
 875              	# 0 "" 2
 876              	#NO_APP
 877 03b8 2330F4F6 		sd	a5,-160(s0)
 202:src/../h/kernel.hpp **** }
 878              		.loc 3 202 5 is_stmt 1
 202:src/../h/kernel.hpp **** }
 879              		.loc 3 202 25 is_stmt 0
 880 03bc 033504F6 		ld	a0,-160(s0)
 881 03c0 97000000 		call	_ZN9Scheduler9timeSleepEm@plt
 881      E7800000 
 882              	.LVL45:
 203:src/../h/kernel.hpp **** 
 883              		.loc 3 203 1
 884 03c8 6FF01FE6 		j	.L27
 885              	.L15:
 886              	.LBE181:
 887              	.LBE180:
  94:src/../h/kernel.hpp ****             Kernel::getc_handler();
 888              		.loc 3 94 9 is_stmt 1
  95:src/../h/kernel.hpp ****             break;
 889              		.loc 3 95 13
 890              	.LBB182:
 891              	.LBB183:
 207:src/../h/kernel.hpp ****     //arg0 = __getc();
 892              		.loc 3 207 5
 209:src/../h/kernel.hpp ****     asm volatile ("mv a0, %[arg0]":: [arg0] "r"(arg0));
 893              		.loc 3 209 5
 209:src/../h/kernel.hpp ****     asm volatile ("mv a0, %[arg0]":: [arg0] "r"(arg0));
 894              		.loc 3 209 23 is_stmt 0
 895 03cc 17050000 		ld	a0,.LANCHOR0
 895      03350500 
 896 03d4 97000000 		call	_ZN4Uart5rxGetEv@plt
GAS LISTING /tmp/ccyoYm4A.s 			page 30


 896      E7800000 
 897              	.LVL46:
 209:src/../h/kernel.hpp ****     asm volatile ("mv a0, %[arg0]":: [arg0] "r"(arg0));
 898              		.loc 3 209 10
 899 03dc 233CA4F4 		sd	a0,-168(s0)
 210:src/../h/kernel.hpp **** }
 900              		.loc 3 210 5 is_stmt 1
 210:src/../h/kernel.hpp **** }
 901              		.loc 3 210 49 is_stmt 0
 902 03e0 833784F5 		ld	a5,-168(s0)
 210:src/../h/kernel.hpp **** }
 903              		.loc 3 210 55
 904              	#APP
 905              	# 210 "src/../h/kernel.hpp" 1
 211:src/../h/kernel.hpp **** 
 906              		mv a0, a5
 907              	# 0 "" 2
 908              		.loc 3 211 1
 909              	#NO_APP
 910 03e8 6FF01FE4 		j	.L27
 911              	.L13:
 912              	.LBE183:
 913              	.LBE182:
  97:src/../h/kernel.hpp ****             Kernel::putc_handler();
 914              		.loc 3 97 9 is_stmt 1
  98:src/../h/kernel.hpp ****             break;
 915              		.loc 3 98 13
 916              	.LBB184:
 917              	.LBB185:
 215:src/../h/kernel.hpp ****     asm volatile ("mv %[arg0], a0": [arg0] "=r"(arg0));
 918              		.loc 3 215 5
 216:src/../h/kernel.hpp ****     //__putc(arg0);
 919              		.loc 3 216 5
 216:src/../h/kernel.hpp ****     //__putc(arg0);
 920              		.loc 3 216 55 is_stmt 0
 921              	#APP
 922              	# 216 "src/../h/kernel.hpp" 1
 923              		mv a5, a0
 924              	# 0 "" 2
 925              	#NO_APP
 926 03f0 2338F4F4 		sd	a5,-176(s0)
 218:src/../h/kernel.hpp ****     //uart->tx
 927              		.loc 3 218 5 is_stmt 1
 218:src/../h/kernel.hpp ****     //uart->tx
 928              		.loc 3 218 16 is_stmt 0
 929 03f4 833504F5 		ld	a1,-176(s0)
 930 03f8 93F5F50F 		andi	a1,a1,0xff
 931 03fc 17050000 		ld	a0,.LANCHOR0
 931      03350500 
 932 0404 97000000 		call	_ZN4Uart5txPutEc@plt
 932      E7800000 
 933              	.LVL47:
 220:src/../h/kernel.hpp **** 
 934              		.loc 3 220 1
 935 040c 6FF0DFE1 		j	.L27
 936              	.L12:
 937              	.LBE185:
GAS LISTING /tmp/ccyoYm4A.s 			page 31


 938              	.LBE184:
 100:src/../h/kernel.hpp ****             asm volatile ("addi a0, zero, -1");
 939              		.loc 3 100 9 is_stmt 1
 101:src/../h/kernel.hpp ****             __print_string("Error: Invalid syscall id!");
 940              		.loc 3 101 13
 101:src/../h/kernel.hpp ****             __print_string("Error: Invalid syscall id!");
 941              		.loc 3 101 47 is_stmt 0
 942              	#APP
 943              	# 101 "src/../h/kernel.hpp" 1
 102:src/../h/kernel.hpp ****             break;
 944              		addi a0, zero, -1
 945              	# 0 "" 2
 946              		.loc 3 102 13 is_stmt 1
 102:src/../h/kernel.hpp ****             break;
 947              		.loc 3 102 27 is_stmt 0
 948              	#NO_APP
 949 0414 17050000 		lla	a0,.LC0
 949      13050500 
 950 041c 97000000 		call	_Z14__print_stringPKc@plt
 950      E7800000 
 951              	.LVL48:
 103:src/../h/kernel.hpp ****     }
 952              		.loc 3 103 13 is_stmt 1
 953 0424 6FF05FE0 		j	.L27
 954              	.LVL49:
 955              	.L39:
 956              	.LBE186:
 957              	.LBE191:
 958              	.LBE149:
 959              	.LBE220:
 960              	.LBB221:
 961              	.LBB193:
  38:src/kernel.cpp ****         Scheduler::timerInterrupt();
 962              		.loc 1 38 9
  38:src/kernel.cpp ****         Scheduler::timerInterrupt();
 963              		.loc 1 38 13 is_stmt 0
 964 0428 97070000 		la	a5,_ZN3TCB7runningE
 964      83B70700 
 965 0430 83B70700 		ld	a5,0(a5)
  38:src/kernel.cpp ****         Scheduler::timerInterrupt();
 966              		.loc 1 38 9
 967 0434 63800704 		beqz	a5,.L41
  39:src/kernel.cpp ****         TCB::incTimeSliceCounter();
 968              		.loc 1 39 9 is_stmt 1
  39:src/kernel.cpp ****         TCB::incTimeSliceCounter();
 969              		.loc 1 39 34 is_stmt 0
 970 0438 97000000 		call	_ZN9Scheduler14timerInterruptEv@plt
 970      E7800000 
 971              	.LVL50:
  40:src/kernel.cpp ****         if (TCB::getTimeSliceCounter() >= TCB::running->getTimeSlice())
 972              		.loc 1 40 9 is_stmt 1
 973              	.LBB194:
 974              	.LBB195:
  29:src/../h/tcb.hpp **** 
  30:src/../h/tcb.hpp ****     bool isBlocked() const { return blocked; }
  31:src/../h/tcb.hpp **** 
  32:src/../h/tcb.hpp ****     void setBlocked(bool val) { blocked = val; }
GAS LISTING /tmp/ccyoYm4A.s 			page 32


  33:src/../h/tcb.hpp **** 
  34:src/../h/tcb.hpp ****     uint64 getTimeSlice() const { return timeSlice; }
  35:src/../h/tcb.hpp **** 
  36:src/../h/tcb.hpp ****     static TCB* running;
  37:src/../h/tcb.hpp **** 
  38:src/../h/tcb.hpp ****     //static void yield();
  39:src/../h/tcb.hpp **** 
  40:src/../h/tcb.hpp ****     static void dispatch();
  41:src/../h/tcb.hpp **** 
  42:src/../h/tcb.hpp ****     static void incTimeSliceCounter() { timeSliceCounter++; }
 975              		.loc 4 42 41
 976              		.loc 4 42 57 is_stmt 0
 977 0440 17070000 		la	a4,_ZN3TCB16timeSliceCounterE
 977      03370700 
 978 0448 83370700 		ld	a5,0(a4)
 979 044c 93871700 		addi	a5,a5,1
 980 0450 2330F700 		sd	a5,0(a4)
 981              	.LBE195:
 982              	.LBE194:
  41:src/kernel.cpp ****         {
 983              		.loc 1 41 9 is_stmt 1
 984              	.LBE193:
 985              	.LBE221:
  43:src/../h/tcb.hpp ****     static uint64 getTimeSliceCounter() { return timeSliceCounter; }
 986              		.loc 4 43 43
 987              	.LBB222:
 988              	.LBB215:
 989              	.LBB196:
  41:src/kernel.cpp ****         {
 990              		.loc 1 41 69 is_stmt 0
 991 0454 17070000 		la	a4,_ZN3TCB7runningE
 991      03370700 
 992 045c 03370700 		ld	a4,0(a4)
 993              	.LVL51:
 994              	.LBB197:
 995              	.LBB198:
  34:src/../h/tcb.hpp **** 
 996              		.loc 4 34 35 is_stmt 1
  34:src/../h/tcb.hpp **** 
 997              		.loc 4 34 42 is_stmt 0
 998 0460 03370702 		ld	a4,32(a4)
 999              	.LVL52:
 1000              	.LBE198:
 1001              	.LBE197:
  41:src/kernel.cpp ****         {
 1002              		.loc 1 41 9
 1003 0464 63FEE700 		bleu	a4,a5,.L42
 1004              	.LVL53:
 1005              	.L35:
 1006              	.LBE196:
  50:src/kernel.cpp ****         return;
 1007              		.loc 1 50 9 is_stmt 1
 1008              	.LBB210:
 1009              	.LBB211:
 129:src/../h/riscv.hpp **** 
 130:src/../h/riscv.hpp **** inline void RiscV::setSip(uint64 mask) {
 131:src/../h/riscv.hpp ****     asm volatile("csrs sip, %[mask]":: [mask] "r" (mask));
GAS LISTING /tmp/ccyoYm4A.s 			page 33


 132:src/../h/riscv.hpp **** }
 133:src/../h/riscv.hpp **** 
 134:src/../h/riscv.hpp **** inline void RiscV::clearSip(uint64 mask) {
 135:src/../h/riscv.hpp ****     asm volatile("csrc sip, %[mask]":: [mask] "r" (mask));
 1010              		.loc 2 135 5
 1011              		.loc 2 135 58 is_stmt 0
 1012 0468 93072000 		li	a5,2
 1013              	#APP
 1014              	# 135 "src/../h/riscv.hpp" 1
 136              	}
 1015              		csrc sip, a5
 1016              	# 0 "" 2
 1017              	.LVL54:
 1018              	#NO_APP
 1019              	.LBE211:
 1020              	.LBE210:
  51:src/kernel.cpp ****     }
 1021              		.loc 1 51 9 is_stmt 1
 1022 0470 6FF0DFD3 		j	.L10
 1023              	.LVL55:
 1024              	.L41:
  38:src/kernel.cpp ****         Scheduler::timerInterrupt();
 1025              		.loc 1 38 30
 1026              	.LBB212:
 1027              	.LBB213:
 135:src/../h/riscv.hpp **** }
 1028              		.loc 2 135 5
 135:src/../h/riscv.hpp **** }
 1029              		.loc 2 135 58 is_stmt 0
 1030 0474 93072000 		li	a5,2
 1031              	#APP
 1032              	# 135 "src/../h/riscv.hpp" 1
 1033              		csrc sip, a5
 1034              	# 0 "" 2
 1035              	.LVL56:
 1036              	#NO_APP
 1037              	.LBE213:
 1038              	.LBE212:
  38:src/kernel.cpp ****         Scheduler::timerInterrupt();
 1039              		.loc 1 38 60 is_stmt 1
 1040 047c 6FF01FD3 		j	.L10
 1041              	.L42:
 1042              	.LBB214:
 1043              	.LBB199:
  43:src/kernel.cpp ****             uint64 sstatus = RiscV::readSstatus();
 1044              		.loc 1 43 13
 1045              	.LBB200:
 1046              	.LBB201:
  93:src/../h/riscv.hpp ****     asm volatile("csrr %[sepc], sepc": [sepc] "=r" (sepc));
 1047              		.loc 2 93 5
  94:src/../h/riscv.hpp ****     return sepc;
 1048              		.loc 2 94 5
  94:src/../h/riscv.hpp ****     return sepc;
 1049              		.loc 2 94 59 is_stmt 0
 1050              	#APP
 1051              	# 94 "src/../h/riscv.hpp" 1
 1052              		csrr a5, sepc
GAS LISTING /tmp/ccyoYm4A.s 			page 34


 1053              	# 0 "" 2
 1054              	#NO_APP
 1055 0484 233CF4F2 		sd	a5,-200(s0)
  95:src/../h/riscv.hpp **** }
 1056              		.loc 2 95 5 is_stmt 1
  95:src/../h/riscv.hpp **** }
 1057              		.loc 2 95 12 is_stmt 0
 1058 0488 833484F3 		ld	s1,-200(s0)
 1059              	.LVL57:
 1060              	.LBE201:
 1061              	.LBE200:
  44:src/kernel.cpp ****             TCB::resetTimeSliceCounter();
 1062              		.loc 1 44 13 is_stmt 1
 1063              	.LBB202:
 1064              	.LBB203:
 121:src/../h/riscv.hpp ****     asm volatile("csrr %[sstatus], sstatus": [sstatus] "=r" (sstatus));
 1065              		.loc 2 121 5
 122:src/../h/riscv.hpp ****     return sstatus;
 1066              		.loc 2 122 5
 122:src/../h/riscv.hpp ****     return sstatus;
 1067              		.loc 2 122 71 is_stmt 0
 1068              	#APP
 1069              	# 122 "src/../h/riscv.hpp" 1
 1070              		csrr a5, sstatus
 1071              	# 0 "" 2
 1072              	#NO_APP
 1073 0490 2338F4F2 		sd	a5,-208(s0)
 123:src/../h/riscv.hpp **** }
 1074              		.loc 2 123 5 is_stmt 1
 123:src/../h/riscv.hpp **** }
 1075              		.loc 2 123 12 is_stmt 0
 1076 0494 033904F3 		ld	s2,-208(s0)
 1077              	.LVL58:
 1078              	.LBE203:
 1079              	.LBE202:
  45:src/kernel.cpp ****             TCB::dispatch();
 1080              		.loc 1 45 13 is_stmt 1
 1081              	.LBB204:
 1082              	.LBB205:
  44:src/../h/tcb.hpp ****     static void resetTimeSliceCounter() { timeSliceCounter = 0; }
 1083              		.loc 4 44 43
 1084              		.loc 4 44 60 is_stmt 0
 1085 0498 97070000 		la	a5,_ZN3TCB16timeSliceCounterE
 1085      83B70700 
 1086 04a0 23B00700 		sd	zero,0(a5)
 1087              	.LBE205:
 1088              	.LBE204:
  46:src/kernel.cpp ****             RiscV::writeSstatus(sstatus);
 1089              		.loc 1 46 13 is_stmt 1
  46:src/kernel.cpp ****             RiscV::writeSstatus(sstatus);
 1090              		.loc 1 46 26 is_stmt 0
 1091 04a4 97000000 		call	_ZN3TCB8dispatchEv@plt
 1091      E7800000 
 1092              	.LVL59:
  47:src/kernel.cpp ****             RiscV::writeSepc(sepc);
 1093              		.loc 1 47 13 is_stmt 1
 1094              	.LBB206:
GAS LISTING /tmp/ccyoYm4A.s 			page 35


 1095              	.LBB207:
 127:src/../h/riscv.hpp **** }
 1096              		.loc 2 127 5
 127:src/../h/riscv.hpp **** }
 1097              		.loc 2 127 71 is_stmt 0
 1098              	#APP
 1099              	# 127 "src/../h/riscv.hpp" 1
 1100              		csrw sstatus, s2
 1101              	# 0 "" 2
 1102              	.LVL60:
 1103              	#NO_APP
 1104              	.LBE207:
 1105              	.LBE206:
  48:src/kernel.cpp ****         }
 1106              		.loc 1 48 13 is_stmt 1
 1107              	.LBB208:
 1108              	.LBB209:
  99:src/../h/riscv.hpp **** }
 1109              		.loc 2 99 5
  99:src/../h/riscv.hpp **** }
 1110              		.loc 2 99 59 is_stmt 0
 1111              	#APP
 1112              	# 99 "src/../h/riscv.hpp" 1
 100:src/../h/riscv.hpp **** 
 1113              		csrw sepc, s1
 1114              	# 0 "" 2
 1115              		.loc 2 100 1
 1116              	#NO_APP
 1117 04b4 6FF05FFB 		j	.L35
 1118              	.LVL61:
 1119              	.L40:
 1120              	.LBE209:
 1121              	.LBE208:
 1122              	.LBE199:
 1123              	.LBE214:
 1124              	.LBE215:
 1125              	.LBE222:
  56:src/kernel.cpp ****         return;
 1126              		.loc 1 56 9 is_stmt 1
  56:src/kernel.cpp ****         return;
 1127              		.loc 1 56 23 is_stmt 0
 1128 04b8 97000000 		call	_ZN6Kernel14hw_irq_handlerEv
 1128      E7800000 
 1129              	.LVL62:
  57:src/kernel.cpp ****     }
 1130              		.loc 1 57 9 is_stmt 1
 1131 04c0 6FF0DFCE 		j	.L10
 1132              		.cfi_endproc
 1133              	.LFE71:
 1135              		.globl	_ZN6Kernel4uartE
 1136              		.bss
 1137              		.align	3
 1138              		.set	.LANCHOR0,. + 0
 1141              	_ZN6Kernel4uartE:
 1142 0000 00000000 		.zero	8
 1142      00000000 
 1143              		.text
GAS LISTING /tmp/ccyoYm4A.s 			page 36


 1144              	.Letext0:
 1145              		.file 6 "src/../h/../lib/hw.h"
 1146              		.file 7 "src/../h/memory_allocator.hpp"
 1147              		.file 8 "src/../h/scheduler.hpp"
 1148              		.file 9 "src/../h/list.hpp"
 1149              		.file 10 "src/../h/uart.hpp"
 1150              		.file 11 "src/../h/__print.hpp"
 1151              		.file 12 "src/../h/../lib/console.h"
 1152              		.file 13 "src/../h/syscall_c.h"
GAS LISTING /tmp/ccyoYm4A.s 			page 37


DEFINED SYMBOLS
                            *ABS*:0000000000000000 kernel.cpp
     /tmp/ccyoYm4A.s:9      .text:0000000000000000 _ZN6Kernel10initKernelEv
     /tmp/ccyoYm4A.s:13     .text:0000000000000000 .L0 
     /tmp/ccyoYm4A.s:14     .text:0000000000000000 .L0 
     /tmp/ccyoYm4A.s:15     .text:0000000000000004 .L0 
     /tmp/ccyoYm4A.s:18     .text:000000000000000c .L0 
     /tmp/ccyoYm4A.s:19     .text:000000000000000c .L0 
     /tmp/ccyoYm4A.s:21     .text:0000000000000010 .L0 
     /tmp/ccyoYm4A.s:23     .text:0000000000000010 .L0 
     /tmp/ccyoYm4A.s:24     .text:0000000000000010 .L0 
     /tmp/ccyoYm4A.s:27     .text:0000000000000018 .L0 
     /tmp/ccyoYm4A.s:28     .text:0000000000000018 .L0 
     /tmp/ccyoYm4A.s:34     .text:0000000000000020 .L0 
  src/../h/riscv.hpp:109    .text:0000000000000020 .L0 
     /tmp/ccyoYm4A.s:44     .text:0000000000000024 .L0 
     /tmp/ccyoYm4A.s:45     .text:0000000000000024 .L0 
     /tmp/ccyoYm4A.s:48     .text:000000000000002c .L0 
     /tmp/ccyoYm4A.s:50     .text:0000000000000034 .L0 
     /tmp/ccyoYm4A.s:51     .text:0000000000000038 .L0 
     /tmp/ccyoYm4A.s:53     .text:000000000000003c .L0 
     /tmp/ccyoYm4A.s:54     .text:000000000000003c .L0 
     /tmp/ccyoYm4A.s:56     .text:0000000000000040 .L0 
     /tmp/ccyoYm4A.s:58     .text:0000000000000044 .L0 
     /tmp/ccyoYm4A.s:64     .text:0000000000000044 _ZN6Kernel14hw_irq_handlerEv
     /tmp/ccyoYm4A.s:67     .text:0000000000000044 .L0 
     /tmp/ccyoYm4A.s:68     .text:0000000000000044 .L0 
     /tmp/ccyoYm4A.s:69     .text:0000000000000048 .L0 
     /tmp/ccyoYm4A.s:73     .text:0000000000000054 .L0 
     /tmp/ccyoYm4A.s:74     .text:0000000000000054 .L0 
     /tmp/ccyoYm4A.s:75     .text:0000000000000054 .L0 
     /tmp/ccyoYm4A.s:77     .text:0000000000000058 .L0 
     /tmp/ccyoYm4A.s:82     .text:0000000000000058 .L0 
     /tmp/ccyoYm4A.s:83     .text:0000000000000058 .L0 
     /tmp/ccyoYm4A.s:84     .text:0000000000000058 .L0 
     /tmp/ccyoYm4A.s:89     .text:0000000000000064 .L0 
     /tmp/ccyoYm4A.s:94     .text:000000000000006c .L0 
     /tmp/ccyoYm4A.s:95     .text:000000000000006c .L0 
     /tmp/ccyoYm4A.s:101    .text:0000000000000078 .L0 
     /tmp/ccyoYm4A.s:102    .text:000000000000007c .L0 
     /tmp/ccyoYm4A.s:103    .text:000000000000007c .L0 
     /tmp/ccyoYm4A.s:105    .text:0000000000000080 .L0 
     /tmp/ccyoYm4A.s:106    .text:0000000000000080 .L0 
     /tmp/ccyoYm4A.s:108    .text:0000000000000084 .L0 
     /tmp/ccyoYm4A.s:110    .text:0000000000000088 .L0 
     /tmp/ccyoYm4A.s:114    .text:000000000000008c .L0 
     /tmp/ccyoYm4A.s:118    .text:000000000000008c .L0 
     /tmp/ccyoYm4A.s:119    .text:000000000000008c .L0 
     /tmp/ccyoYm4A.s:124    .text:000000000000009c .L0 
     /tmp/ccyoYm4A.s:128    .text:00000000000000a4 .L0 
     /tmp/ccyoYm4A.s:129    .text:00000000000000a4 .L0 
     /tmp/ccyoYm4A.s:130    .text:00000000000000a4 .L0 
     /tmp/ccyoYm4A.s:134    .text:00000000000000b4 .L0 
     /tmp/ccyoYm4A.s:137    .text:00000000000000bc .L0 
     /tmp/ccyoYm4A.s:138    .text:00000000000000bc .L0 
     /tmp/ccyoYm4A.s:142    .text:00000000000000cc .L0 
     /tmp/ccyoYm4A.s:146    .text:00000000000000d4 .L0 
GAS LISTING /tmp/ccyoYm4A.s 			page 38


     /tmp/ccyoYm4A.s:147    .text:00000000000000d4 .L0 
     /tmp/ccyoYm4A.s:153    .text:00000000000000e8 .L0 
     /tmp/ccyoYm4A.s:173    .text:00000000000000e8 _ZN6Kernel21supervisorTrapHandlerEv
     /tmp/ccyoYm4A.s:176    .text:00000000000000e8 .L0 
     /tmp/ccyoYm4A.s:177    .text:00000000000000e8 .L0 
     /tmp/ccyoYm4A.s:178    .text:00000000000000ec .L0 
     /tmp/ccyoYm4A.s:184    .text:0000000000000100 .L0 
     /tmp/ccyoYm4A.s:185    .text:0000000000000100 .L0 
     /tmp/ccyoYm4A.s:186    .text:0000000000000100 .L0 
     /tmp/ccyoYm4A.s:187    .text:0000000000000100 .L0 
     /tmp/ccyoYm4A.s:188    .text:0000000000000100 .L0 
     /tmp/ccyoYm4A.s:190    .text:0000000000000104 .L0 
     /tmp/ccyoYm4A.s:194    .text:0000000000000104 .L0 
     /tmp/ccyoYm4A.s:195    .text:0000000000000104 .L0 
     /tmp/ccyoYm4A.s:196    .text:0000000000000104 .L0 
  src/../h/riscv.hpp:84     .text:0000000000000104 .L0 
     /tmp/ccyoYm4A.s:204    .text:000000000000010c .L0 
     /tmp/ccyoYm4A.s:205    .text:000000000000010c .L0 
     /tmp/ccyoYm4A.s:211    .text:0000000000000110 .L0 
     /tmp/ccyoYm4A.s:212    .text:0000000000000110 .L0 
     /tmp/ccyoYm4A.s:214    .text:0000000000000114 .L0 
     /tmp/ccyoYm4A.s:219    .text:000000000000011c .L0 
     /tmp/ccyoYm4A.s:225    .text:000000000000012c .L0 
     /tmp/ccyoYm4A.s:232    .text:000000000000013c .L0 
     /tmp/ccyoYm4A.s:233    .text:000000000000013c .L0 
     /tmp/ccyoYm4A.s:234    .text:000000000000013c .L0 
  src/../h/riscv.hpp:94     .text:000000000000013c .L0 
     /tmp/ccyoYm4A.s:242    .text:0000000000000144 .L0 
     /tmp/ccyoYm4A.s:243    .text:0000000000000144 .L0 
     /tmp/ccyoYm4A.s:248    .text:0000000000000148 .L0 
     /tmp/ccyoYm4A.s:249    .text:0000000000000148 .L0 
     /tmp/ccyoYm4A.s:253    .text:0000000000000158 .L0 
     /tmp/ccyoYm4A.s:254    .text:0000000000000158 .L0 
     /tmp/ccyoYm4A.s:258    .text:0000000000000168 .L0 
     /tmp/ccyoYm4A.s:259    .text:0000000000000168 .L0 
     /tmp/ccyoYm4A.s:263    .text:0000000000000174 .L0 
     /tmp/ccyoYm4A.s:264    .text:0000000000000174 .L0 
     /tmp/ccyoYm4A.s:268    .text:0000000000000180 .L0 
     /tmp/ccyoYm4A.s:269    .text:0000000000000180 .L0 
     /tmp/ccyoYm4A.s:273    .text:0000000000000190 .L0 
     /tmp/ccyoYm4A.s:274    .text:0000000000000190 .L0 
     /tmp/ccyoYm4A.s:278    .text:000000000000019c .L0 
     /tmp/ccyoYm4A.s:279    .text:000000000000019c .L0 
     /tmp/ccyoYm4A.s:285    .text:00000000000001a8 .L0 
     /tmp/ccyoYm4A.s:286    .text:00000000000001a8 .L0 
  src/../h/riscv.hpp:99     .text:00000000000001a8 .L0 
     /tmp/ccyoYm4A.s:297    .text:00000000000001ac .L0 
     /tmp/ccyoYm4A.s:298    .text:00000000000001b0 .L0 
     /tmp/ccyoYm4A.s:299    .text:00000000000001b0 .L0 
     /tmp/ccyoYm4A.s:301    .text:00000000000001b4 .L0 
     /tmp/ccyoYm4A.s:302    .text:00000000000001b4 .L0 
     /tmp/ccyoYm4A.s:304    .text:00000000000001b8 .L0 
     /tmp/ccyoYm4A.s:306    .text:00000000000001bc .L0 
     /tmp/ccyoYm4A.s:308    .text:00000000000001c0 .L0 
     /tmp/ccyoYm4A.s:310    .text:00000000000001c4 .L0 
     /tmp/ccyoYm4A.s:314    .text:00000000000001c8 .L0 
     /tmp/ccyoYm4A.s:320    .text:00000000000001c8 .L0 
GAS LISTING /tmp/ccyoYm4A.s 			page 39


     /tmp/ccyoYm4A.s:321    .text:00000000000001c8 .L0 
     /tmp/ccyoYm4A.s:322    .text:00000000000001c8 .L0 
  src/../h/riscv.hpp:94     .text:00000000000001c8 .L0 
     /tmp/ccyoYm4A.s:330    .text:00000000000001d0 .L0 
     /tmp/ccyoYm4A.s:331    .text:00000000000001d0 .L0 
     /tmp/ccyoYm4A.s:336    .text:00000000000001d4 .L0 
     /tmp/ccyoYm4A.s:341    .text:00000000000001d8 .L0 
     /tmp/ccyoYm4A.s:342    .text:00000000000001d8 .L0 
     /tmp/ccyoYm4A.s:343    .text:00000000000001d8 .L0 
  src/../h/riscv.hpp:122    .text:00000000000001d8 .L0 
     /tmp/ccyoYm4A.s:351    .text:00000000000001e0 .L0 
     /tmp/ccyoYm4A.s:352    .text:00000000000001e0 .L0 
     /tmp/ccyoYm4A.s:359    .text:00000000000001e4 .L0 
     /tmp/ccyoYm4A.s:360    .text:00000000000001e4 .L0 
     /tmp/ccyoYm4A.s:361    .text:00000000000001e4 .L0 
 src/../h/kernel.hpp:57     .text:00000000000001e4 .L0 
     /tmp/ccyoYm4A.s:369    .text:00000000000001ec .L0 
     /tmp/ccyoYm4A.s:370    .text:00000000000001ec .L0 
     /tmp/ccyoYm4A.s:454    .text:0000000000000214 .L0 
     /tmp/ccyoYm4A.s:457    .text:0000000000000214 .L0 
     /tmp/ccyoYm4A.s:458    .text:0000000000000214 .L0 
     /tmp/ccyoYm4A.s:459    .text:0000000000000214 .L0 
 src/../h/kernel.hpp:110    .text:0000000000000214 .L0 
     /tmp/ccyoYm4A.s:467    .text:000000000000021c .L0 
     /tmp/ccyoYm4A.s:468    .text:000000000000021c .L0 
     /tmp/ccyoYm4A.s:477    .text:0000000000000228 .L0 
      src/kernel.cpp:32     .text:0000000000000228 .L0 
     /tmp/ccyoYm4A.s:487    .text:000000000000022c .L0 
     /tmp/ccyoYm4A.s:488    .text:000000000000022c .L0 
  src/../h/riscv.hpp:127    .text:000000000000022c .L0 
     /tmp/ccyoYm4A.s:500    .text:0000000000000230 .L0 
     /tmp/ccyoYm4A.s:501    .text:0000000000000230 .L0 
  src/../h/riscv.hpp:99     .text:0000000000000230 .L0 
     /tmp/ccyoYm4A.s:511    .text:0000000000000234 .L0 
     /tmp/ccyoYm4A.s:516    .text:0000000000000238 .L0 
     /tmp/ccyoYm4A.s:519    .text:0000000000000238 .L0 
     /tmp/ccyoYm4A.s:520    .text:0000000000000238 .L0 
     /tmp/ccyoYm4A.s:521    .text:0000000000000238 .L0 
 src/../h/kernel.hpp:117    .text:0000000000000238 .L0 
     /tmp/ccyoYm4A.s:529    .text:0000000000000240 .L0 
     /tmp/ccyoYm4A.s:530    .text:0000000000000240 .L0 
     /tmp/ccyoYm4A.s:534    .text:000000000000024c .L0 
     /tmp/ccyoYm4A.s:539    .text:0000000000000250 .L0 
     /tmp/ccyoYm4A.s:542    .text:0000000000000250 .L0 
     /tmp/ccyoYm4A.s:543    .text:0000000000000250 .L0 
     /tmp/ccyoYm4A.s:544    .text:0000000000000250 .L0 
 src/../h/kernel.hpp:124    .text:0000000000000250 .L0 
     /tmp/ccyoYm4A.s:552    .text:0000000000000258 .L0 
 src/../h/kernel.hpp:125    .text:0000000000000258 .L0 
     /tmp/ccyoYm4A.s:560    .text:0000000000000260 .L0 
 src/../h/kernel.hpp:126    .text:0000000000000260 .L0 
     /tmp/ccyoYm4A.s:568    .text:0000000000000268 .L0 
     /tmp/ccyoYm4A.s:569    .text:0000000000000268 .L0 
     /tmp/ccyoYm4A.s:572    .text:0000000000000270 .L0 
     /tmp/ccyoYm4A.s:574    .text:0000000000000274 .L0 
     /tmp/ccyoYm4A.s:577    .text:000000000000027c .L0 
     /tmp/ccyoYm4A.s:579    .text:0000000000000280 .L0 
GAS LISTING /tmp/ccyoYm4A.s 			page 40


 src/../h/kernel.hpp:130    .text:0000000000000280 .L0 
     /tmp/ccyoYm4A.s:585    .text:0000000000000284 .L0 
     /tmp/ccyoYm4A.s:587    .text:0000000000000284 .L0 
     /tmp/ccyoYm4A.s:590    .text:000000000000028c .L0 
     /tmp/ccyoYm4A.s:592    .text:0000000000000290 .L0 
 src/../h/kernel.hpp:131    .text:0000000000000290 .L0 
     /tmp/ccyoYm4A.s:599    .text:0000000000000294 .L0 
     /tmp/ccyoYm4A.s:604    .text:0000000000000298 .L0 
     /tmp/ccyoYm4A.s:607    .text:0000000000000298 .L0 
     /tmp/ccyoYm4A.s:608    .text:0000000000000298 .L0 
     /tmp/ccyoYm4A.s:609    .text:0000000000000298 .L0 
     /tmp/ccyoYm4A.s:616    .text:00000000000002a4 .L0 
     /tmp/ccyoYm4A.s:617    .text:00000000000002a4 .L0 
     /tmp/ccyoYm4A.s:623    .text:00000000000002ac .L0 
 src/../h/kernel.hpp:137    .text:00000000000002ac .L0 
     /tmp/ccyoYm4A.s:629    .text:00000000000002b0 .L0 
     /tmp/ccyoYm4A.s:631    .text:00000000000002b0 .L0 
     /tmp/ccyoYm4A.s:634    .text:00000000000002b8 .L0 
     /tmp/ccyoYm4A.s:639    .text:00000000000002bc .L0 
     /tmp/ccyoYm4A.s:642    .text:00000000000002bc .L0 
     /tmp/ccyoYm4A.s:643    .text:00000000000002bc .L0 
     /tmp/ccyoYm4A.s:644    .text:00000000000002bc .L0 
     /tmp/ccyoYm4A.s:647    .text:00000000000002c4 .L0 
     /tmp/ccyoYm4A.s:652    .text:00000000000002c8 .L0 
     /tmp/ccyoYm4A.s:655    .text:00000000000002c8 .L0 
     /tmp/ccyoYm4A.s:656    .text:00000000000002c8 .L0 
     /tmp/ccyoYm4A.s:657    .text:00000000000002c8 .L0 
 src/../h/kernel.hpp:151    .text:00000000000002c8 .L0 
     /tmp/ccyoYm4A.s:665    .text:00000000000002d0 .L0 
 src/../h/kernel.hpp:152    .text:00000000000002d0 .L0 
     /tmp/ccyoYm4A.s:673    .text:00000000000002d8 .L0 
 src/../h/kernel.hpp:153    .text:00000000000002d8 .L0 
     /tmp/ccyoYm4A.s:681    .text:00000000000002e0 .L0 
     /tmp/ccyoYm4A.s:682    .text:00000000000002e0 .L0 
     /tmp/ccyoYm4A.s:685    .text:00000000000002e8 .L0 
     /tmp/ccyoYm4A.s:687    .text:00000000000002ec .L0 
     /tmp/ccyoYm4A.s:690    .text:00000000000002f4 .L0 
     /tmp/ccyoYm4A.s:692    .text:00000000000002f8 .L0 
 src/../h/kernel.hpp:157    .text:00000000000002f8 .L0 
     /tmp/ccyoYm4A.s:698    .text:00000000000002fc .L0 
     /tmp/ccyoYm4A.s:700    .text:00000000000002fc .L0 
     /tmp/ccyoYm4A.s:703    .text:0000000000000304 .L0 
     /tmp/ccyoYm4A.s:705    .text:0000000000000308 .L0 
 src/../h/kernel.hpp:158    .text:0000000000000308 .L0 
     /tmp/ccyoYm4A.s:712    .text:000000000000030c .L0 
     /tmp/ccyoYm4A.s:717    .text:0000000000000310 .L0 
     /tmp/ccyoYm4A.s:720    .text:0000000000000310 .L0 
     /tmp/ccyoYm4A.s:721    .text:0000000000000310 .L0 
     /tmp/ccyoYm4A.s:722    .text:0000000000000310 .L0 
 src/../h/kernel.hpp:164    .text:0000000000000310 .L0 
     /tmp/ccyoYm4A.s:730    .text:0000000000000318 .L0 
 src/../h/kernel.hpp:165    .text:0000000000000318 .L0 
     /tmp/ccyoYm4A.s:738    .text:0000000000000320 .L0 
     /tmp/ccyoYm4A.s:739    .text:0000000000000320 .L0 
     /tmp/ccyoYm4A.s:741    .text:0000000000000324 .L0 
     /tmp/ccyoYm4A.s:743    .text:0000000000000328 .L0 
     /tmp/ccyoYm4A.s:747    .text:0000000000000334 .L0 
GAS LISTING /tmp/ccyoYm4A.s 			page 41


     /tmp/ccyoYm4A.s:749    .text:0000000000000338 .L0 
 src/../h/kernel.hpp:169    .text:0000000000000338 .L0 
     /tmp/ccyoYm4A.s:755    .text:000000000000033c .L0 
     /tmp/ccyoYm4A.s:757    .text:000000000000033c .L0 
     /tmp/ccyoYm4A.s:760    .text:0000000000000344 .L0 
     /tmp/ccyoYm4A.s:762    .text:0000000000000348 .L0 
 src/../h/kernel.hpp:170    .text:0000000000000348 .L0 
     /tmp/ccyoYm4A.s:769    .text:000000000000034c .L0 
     /tmp/ccyoYm4A.s:774    .text:0000000000000350 .L0 
     /tmp/ccyoYm4A.s:777    .text:0000000000000350 .L0 
     /tmp/ccyoYm4A.s:778    .text:0000000000000350 .L0 
     /tmp/ccyoYm4A.s:779    .text:0000000000000350 .L0 
 src/../h/kernel.hpp:176    .text:0000000000000350 .L0 
     /tmp/ccyoYm4A.s:787    .text:0000000000000358 .L0 
     /tmp/ccyoYm4A.s:788    .text:0000000000000358 .L0 
     /tmp/ccyoYm4A.s:791    .text:0000000000000360 .L0 
     /tmp/ccyoYm4A.s:793    .text:0000000000000364 .L0 
     /tmp/ccyoYm4A.s:800    .text:0000000000000370 .L0 
     /tmp/ccyoYm4A.s:801    .text:0000000000000370 .L0 
     /tmp/ccyoYm4A.s:808    .text:000000000000037c .L0 
 src/../h/kernel.hpp:179    .text:000000000000037c .L0 
     /tmp/ccyoYm4A.s:815    .text:0000000000000380 .L0 
     /tmp/ccyoYm4A.s:820    .text:0000000000000384 .L0 
     /tmp/ccyoYm4A.s:823    .text:0000000000000384 .L0 
     /tmp/ccyoYm4A.s:824    .text:0000000000000384 .L0 
     /tmp/ccyoYm4A.s:825    .text:0000000000000384 .L0 
 src/../h/kernel.hpp:185    .text:0000000000000384 .L0 
     /tmp/ccyoYm4A.s:833    .text:000000000000038c .L0 
     /tmp/ccyoYm4A.s:834    .text:000000000000038c .L0 
     /tmp/ccyoYm4A.s:838    .text:0000000000000398 .L0 
     /tmp/ccyoYm4A.s:843    .text:000000000000039c .L0 
     /tmp/ccyoYm4A.s:846    .text:000000000000039c .L0 
     /tmp/ccyoYm4A.s:847    .text:000000000000039c .L0 
     /tmp/ccyoYm4A.s:848    .text:000000000000039c .L0 
 src/../h/kernel.hpp:194    .text:000000000000039c .L0 
     /tmp/ccyoYm4A.s:856    .text:00000000000003a4 .L0 
     /tmp/ccyoYm4A.s:857    .text:00000000000003a4 .L0 
     /tmp/ccyoYm4A.s:861    .text:00000000000003b0 .L0 
     /tmp/ccyoYm4A.s:866    .text:00000000000003b4 .L0 
     /tmp/ccyoYm4A.s:869    .text:00000000000003b4 .L0 
     /tmp/ccyoYm4A.s:870    .text:00000000000003b4 .L0 
     /tmp/ccyoYm4A.s:871    .text:00000000000003b4 .L0 
 src/../h/kernel.hpp:201    .text:00000000000003b4 .L0 
     /tmp/ccyoYm4A.s:879    .text:00000000000003bc .L0 
     /tmp/ccyoYm4A.s:880    .text:00000000000003bc .L0 
     /tmp/ccyoYm4A.s:884    .text:00000000000003c8 .L0 
     /tmp/ccyoYm4A.s:889    .text:00000000000003cc .L0 
     /tmp/ccyoYm4A.s:892    .text:00000000000003cc .L0 
     /tmp/ccyoYm4A.s:893    .text:00000000000003cc .L0 
     /tmp/ccyoYm4A.s:894    .text:00000000000003cc .L0 
     /tmp/ccyoYm4A.s:895    .text:00000000000003cc .L0 
     /tmp/ccyoYm4A.s:899    .text:00000000000003dc .L0 
     /tmp/ccyoYm4A.s:901    .text:00000000000003e0 .L0 
     /tmp/ccyoYm4A.s:902    .text:00000000000003e0 .L0 
 src/../h/kernel.hpp:210    .text:00000000000003e4 .L0 
     /tmp/ccyoYm4A.s:910    .text:00000000000003e8 .L0 
     /tmp/ccyoYm4A.s:915    .text:00000000000003ec .L0 
GAS LISTING /tmp/ccyoYm4A.s 			page 42


     /tmp/ccyoYm4A.s:918    .text:00000000000003ec .L0 
     /tmp/ccyoYm4A.s:919    .text:00000000000003ec .L0 
     /tmp/ccyoYm4A.s:920    .text:00000000000003ec .L0 
 src/../h/kernel.hpp:216    .text:00000000000003ec .L0 
     /tmp/ccyoYm4A.s:928    .text:00000000000003f4 .L0 
     /tmp/ccyoYm4A.s:929    .text:00000000000003f4 .L0 
     /tmp/ccyoYm4A.s:935    .text:000000000000040c .L0 
     /tmp/ccyoYm4A.s:940    .text:0000000000000410 .L0 
     /tmp/ccyoYm4A.s:941    .text:0000000000000410 .L0 
 src/../h/kernel.hpp:101    .text:0000000000000410 .L0 
     /tmp/ccyoYm4A.s:947    .text:0000000000000414 .L0 
     /tmp/ccyoYm4A.s:949    .text:0000000000000414 .L0 
     /tmp/ccyoYm4A.s:953    .text:0000000000000424 .L0 
     /tmp/ccyoYm4A.s:963    .text:0000000000000428 .L0 
     /tmp/ccyoYm4A.s:964    .text:0000000000000428 .L0 
     /tmp/ccyoYm4A.s:967    .text:0000000000000434 .L0 
     /tmp/ccyoYm4A.s:969    .text:0000000000000438 .L0 
     /tmp/ccyoYm4A.s:970    .text:0000000000000438 .L0 
     /tmp/ccyoYm4A.s:975    .text:0000000000000440 .L0 
     /tmp/ccyoYm4A.s:976    .text:0000000000000440 .L0 
     /tmp/ccyoYm4A.s:977    .text:0000000000000440 .L0 
     /tmp/ccyoYm4A.s:986    .text:0000000000000454 .L0 
     /tmp/ccyoYm4A.s:990    .text:0000000000000454 .L0 
     /tmp/ccyoYm4A.s:991    .text:0000000000000454 .L0 
     /tmp/ccyoYm4A.s:997    .text:0000000000000460 .L0 
     /tmp/ccyoYm4A.s:998    .text:0000000000000460 .L0 
     /tmp/ccyoYm4A.s:1003   .text:0000000000000464 .L0 
     /tmp/ccyoYm4A.s:1010   .text:0000000000000468 .L0 
     /tmp/ccyoYm4A.s:1011   .text:0000000000000468 .L0 
     /tmp/ccyoYm4A.s:1012   .text:0000000000000468 .L0 
     /tmp/ccyoYm4A.s:1022   .text:0000000000000470 .L0 
     /tmp/ccyoYm4A.s:1028   .text:0000000000000474 .L0 
     /tmp/ccyoYm4A.s:1029   .text:0000000000000474 .L0 
     /tmp/ccyoYm4A.s:1030   .text:0000000000000474 .L0 
     /tmp/ccyoYm4A.s:1040   .text:000000000000047c .L0 
     /tmp/ccyoYm4A.s:1047   .text:0000000000000480 .L0 
     /tmp/ccyoYm4A.s:1048   .text:0000000000000480 .L0 
     /tmp/ccyoYm4A.s:1049   .text:0000000000000480 .L0 
  src/../h/riscv.hpp:94     .text:0000000000000480 .L0 
     /tmp/ccyoYm4A.s:1057   .text:0000000000000488 .L0 
     /tmp/ccyoYm4A.s:1058   .text:0000000000000488 .L0 
     /tmp/ccyoYm4A.s:1065   .text:000000000000048c .L0 
     /tmp/ccyoYm4A.s:1066   .text:000000000000048c .L0 
     /tmp/ccyoYm4A.s:1067   .text:000000000000048c .L0 
  src/../h/riscv.hpp:122    .text:000000000000048c .L0 
     /tmp/ccyoYm4A.s:1075   .text:0000000000000494 .L0 
     /tmp/ccyoYm4A.s:1076   .text:0000000000000494 .L0 
     /tmp/ccyoYm4A.s:1083   .text:0000000000000498 .L0 
     /tmp/ccyoYm4A.s:1084   .text:0000000000000498 .L0 
     /tmp/ccyoYm4A.s:1085   .text:0000000000000498 .L0 
     /tmp/ccyoYm4A.s:1090   .text:00000000000004a4 .L0 
     /tmp/ccyoYm4A.s:1091   .text:00000000000004a4 .L0 
     /tmp/ccyoYm4A.s:1096   .text:00000000000004ac .L0 
     /tmp/ccyoYm4A.s:1097   .text:00000000000004ac .L0 
  src/../h/riscv.hpp:127    .text:00000000000004ac .L0 
     /tmp/ccyoYm4A.s:1109   .text:00000000000004b0 .L0 
     /tmp/ccyoYm4A.s:1110   .text:00000000000004b0 .L0 
GAS LISTING /tmp/ccyoYm4A.s 			page 43


  src/../h/riscv.hpp:99     .text:00000000000004b0 .L0 
     /tmp/ccyoYm4A.s:1117   .text:00000000000004b4 .L0 
     /tmp/ccyoYm4A.s:1127   .text:00000000000004b8 .L0 
     /tmp/ccyoYm4A.s:1128   .text:00000000000004b8 .L0 
     /tmp/ccyoYm4A.s:1131   .text:00000000000004c0 .L0 
     /tmp/ccyoYm4A.s:1132   .text:00000000000004c4 .L0 
     /tmp/ccyoYm4A.s:1141   .bss:0000000000000000 _ZN6Kernel4uartE
     /tmp/ccyoYm4A.s:1138   .bss:0000000000000000 .LANCHOR0
     /tmp/ccyoYm4A.s:1153   .text:00000000000004c4 .L0 
     /tmp/ccyoYm4A.s:28     .text:0000000000000018 .L0 
     /tmp/ccyoYm4A.s:48     .text:000000000000002c .L0 
     /tmp/ccyoYm4A.s:119    .text:000000000000008c .L0 
     /tmp/ccyoYm4A.s:130    .text:00000000000000a4 .L0 
     /tmp/ccyoYm4A.s:138    .text:00000000000000bc .L0 
     /tmp/ccyoYm4A.s:147    .text:00000000000000d4 .L0 
     /tmp/ccyoYm4A.s:161    .rodata.str1.8:0000000000000020 .LC1
     /tmp/ccyoYm4A.s:249    .text:0000000000000148 .L0 
     /tmp/ccyoYm4A.s:164    .rodata.str1.8:0000000000000038 .LC2
     /tmp/ccyoYm4A.s:254    .text:0000000000000158 .L0 
     /tmp/ccyoYm4A.s:167    .rodata.str1.8:0000000000000048 .LC3
     /tmp/ccyoYm4A.s:269    .text:0000000000000180 .L0 
     /tmp/ccyoYm4A.s:383    .rodata:0000000000000000 .L14
     /tmp/ccyoYm4A.s:375    .text:00000000000001fc .L0 
     /tmp/ccyoYm4A.s:609    .text:0000000000000298 .L0 
     /tmp/ccyoYm4A.s:895    .text:00000000000003cc .L0 
     /tmp/ccyoYm4A.s:931    .text:00000000000003fc .L0 
     /tmp/ccyoYm4A.s:158    .rodata.str1.8:0000000000000000 .LC0
     /tmp/ccyoYm4A.s:949    .text:0000000000000414 .L0 
     /tmp/ccyoYm4A.s:964    .text:0000000000000428 .L0 
     /tmp/ccyoYm4A.s:977    .text:0000000000000440 .L0 
     /tmp/ccyoYm4A.s:991    .text:0000000000000454 .L0 
     /tmp/ccyoYm4A.s:1085   .text:0000000000000498 .L0 
     /tmp/ccyoYm4A.s:113    .text:000000000000008c .L8
     /tmp/ccyoYm4A.s:144    .text:00000000000000d4 .L9
     /tmp/ccyoYm4A.s:92     .text:000000000000006c .L4
     /tmp/ccyoYm4A.s:126    .text:00000000000000a4 .L6
     /tmp/ccyoYm4A.s:313    .text:00000000000001c8 .L38
     /tmp/ccyoYm4A.s:955    .text:0000000000000428 .L39
     /tmp/ccyoYm4A.s:1119   .text:00000000000004b8 .L40
     /tmp/ccyoYm4A.s:936    .text:0000000000000410 .L12
     /tmp/ccyoYm4A.s:293    .text:00000000000001ac .L10
     /tmp/ccyoYm4A.s:471    .text:0000000000000228 .L27
     /tmp/ccyoYm4A.s:804    .text:000000000000037c .L31
     /tmp/ccyoYm4A.s:1024   .text:0000000000000474 .L41
     /tmp/ccyoYm4A.s:1041   .text:0000000000000480 .L42
     /tmp/ccyoYm4A.s:1005   .text:0000000000000468 .L35
     /tmp/ccyoYm4A.s:452    .text:0000000000000214 .L26
     /tmp/ccyoYm4A.s:512    .text:0000000000000238 .L25
     /tmp/ccyoYm4A.s:535    .text:0000000000000250 .L24
     /tmp/ccyoYm4A.s:600    .text:0000000000000298 .L23
     /tmp/ccyoYm4A.s:635    .text:00000000000002bc .L22
     /tmp/ccyoYm4A.s:648    .text:00000000000002c8 .L21
     /tmp/ccyoYm4A.s:713    .text:0000000000000310 .L20
     /tmp/ccyoYm4A.s:770    .text:0000000000000350 .L19
     /tmp/ccyoYm4A.s:816    .text:0000000000000384 .L18
     /tmp/ccyoYm4A.s:839    .text:000000000000039c .L17
     /tmp/ccyoYm4A.s:862    .text:00000000000003b4 .L16
GAS LISTING /tmp/ccyoYm4A.s 			page 44


     /tmp/ccyoYm4A.s:885    .text:00000000000003cc .L15
     /tmp/ccyoYm4A.s:911    .text:00000000000003ec .L13
     /tmp/ccyoYm4A.s:4086   .debug_abbrev:0000000000000000 .Ldebug_abbrev0
     /tmp/ccyoYm4A.s:6116   .debug_str:0000000000000ecf .LASF289
     /tmp/ccyoYm4A.s:5722   .debug_str:0000000000000237 .LASF290
     /tmp/ccyoYm4A.s:6070   .debug_str:0000000000000d7c .LASF291
     /tmp/ccyoYm4A.s:5      .text:0000000000000000 .Ltext0
     /tmp/ccyoYm4A.s:1144   .text:00000000000004c4 .Letext0
     /tmp/ccyoYm4A.s:5656   .debug_line:0000000000000000 .Ldebug_line0
     /tmp/ccyoYm4A.s:5840   .debug_str:00000000000005ee .LASF0
     /tmp/ccyoYm4A.s:5882   .debug_str:000000000000075d .LASF1
     /tmp/ccyoYm4A.s:6034   .debug_str:0000000000000c4c .LASF2
     /tmp/ccyoYm4A.s:5784   .debug_str:0000000000000403 .LASF3
     /tmp/ccyoYm4A.s:5660   .debug_str:0000000000000008 .LASF4
     /tmp/ccyoYm4A.s:6044   .debug_str:0000000000000c9a .LASF5
     /tmp/ccyoYm4A.s:5854   .debug_str:000000000000064d .LASF6
     /tmp/ccyoYm4A.s:5680   .debug_str:00000000000000cc .LASF7
     /tmp/ccyoYm4A.s:5996   .debug_str:0000000000000b5d .LASF8
     /tmp/ccyoYm4A.s:5982   .debug_str:0000000000000ada .LASF9
     /tmp/ccyoYm4A.s:5870   .debug_str:0000000000000709 .LASF10
     /tmp/ccyoYm4A.s:5808   .debug_str:000000000000049e .LASF11
     /tmp/ccyoYm4A.s:5820   .debug_str:0000000000000514 .LASF12
     /tmp/ccyoYm4A.s:5730   .debug_str:0000000000000287 .LASF13
     /tmp/ccyoYm4A.s:5794   .debug_str:0000000000000455 .LASF14
     /tmp/ccyoYm4A.s:5748   .debug_str:0000000000000310 .LASF15
     /tmp/ccyoYm4A.s:5728   .debug_str:0000000000000277 .LASF16
     /tmp/ccyoYm4A.s:6086   .debug_str:0000000000000e10 .LASF17
     /tmp/ccyoYm4A.s:5778   .debug_str:00000000000003d4 .LASF18
     /tmp/ccyoYm4A.s:6076   .debug_str:0000000000000dbc .LASF19
     /tmp/ccyoYm4A.s:5972   .debug_str:0000000000000a78 .LASF35
     /tmp/ccyoYm4A.s:6110   .debug_str:0000000000000eb3 .LASF292
     /tmp/ccyoYm4A.s:5880   .debug_str:0000000000000758 .LASF20
     /tmp/ccyoYm4A.s:5696   .debug_str:000000000000016a .LASF21
     /tmp/ccyoYm4A.s:5732   .debug_str:0000000000000296 .LASF22
     /tmp/ccyoYm4A.s:6250   .debug_str:00000000000013a5 .LASF72
     /tmp/ccyoYm4A.s:5818   .debug_str:00000000000004f4 .LASF74
     /tmp/ccyoYm4A.s:6144   .debug_str:0000000000001059 .LASF27
     /tmp/ccyoYm4A.s:5858   .debug_str:0000000000000670 .LASF29
     /tmp/ccyoYm4A.s:5930   .debug_str:0000000000000907 .LASF23
     /tmp/ccyoYm4A.s:6052   .debug_str:0000000000000cc6 .LASF25
     /tmp/ccyoYm4A.s:6030   .debug_str:0000000000000c39 .LASF24
     /tmp/ccyoYm4A.s:5980   .debug_str:0000000000000aba .LASF26
     /tmp/ccyoYm4A.s:6218   .debug_str:00000000000012a4 .LASF108
     /tmp/ccyoYm4A.s:5876   .debug_str:000000000000073a .LASF28
     /tmp/ccyoYm4A.s:5950   .debug_str:00000000000009b6 .LASF30
     /tmp/ccyoYm4A.s:5780   .debug_str:00000000000003ea .LASF31
     /tmp/ccyoYm4A.s:6174   .debug_str:000000000000114a .LASF32
     /tmp/ccyoYm4A.s:6244   .debug_str:0000000000001370 .LASF33
     /tmp/ccyoYm4A.s:5700   .debug_str:000000000000018a .LASF34
     /tmp/ccyoYm4A.s:5736   .debug_str:00000000000002b4 .LASF160
     /tmp/ccyoYm4A.s:6106   .debug_str:0000000000000e7c .LASF161
     /tmp/ccyoYm4A.s:6146   .debug_str:000000000000105e .LASF36
     /tmp/ccyoYm4A.s:5708   .debug_str:00000000000001cd .LASF37
     /tmp/ccyoYm4A.s:6190   .debug_str:00000000000011d3 .LASF38
     /tmp/ccyoYm4A.s:6014   .debug_str:0000000000000bc9 .LASF39
     /tmp/ccyoYm4A.s:5830   .debug_str:0000000000000586 .LASF40
     /tmp/ccyoYm4A.s:5938   .debug_str:0000000000000952 .LASF41
GAS LISTING /tmp/ccyoYm4A.s 			page 45


     /tmp/ccyoYm4A.s:6054   .debug_str:0000000000000ce5 .LASF42
     /tmp/ccyoYm4A.s:5822   .debug_str:0000000000000522 .LASF43
     /tmp/ccyoYm4A.s:5842   .debug_str:00000000000005fb .LASF44
     /tmp/ccyoYm4A.s:5944   .debug_str:0000000000000980 .LASF45
     /tmp/ccyoYm4A.s:5802   .debug_str:000000000000047d .LASF48
     /tmp/ccyoYm4A.s:5740   .debug_str:00000000000002d2 .LASF50
     /tmp/ccyoYm4A.s:5952   .debug_str:00000000000009d6 .LASF46
     /tmp/ccyoYm4A.s:6128   .debug_str:0000000000000ff7 .LASF47
     /tmp/ccyoYm4A.s:6178   .debug_str:0000000000001193 .LASF49
     /tmp/ccyoYm4A.s:6198   .debug_str:00000000000011f9 .LASF51
     /tmp/ccyoYm4A.s:6010   .debug_str:0000000000000bb5 .LASF52
     /tmp/ccyoYm4A.s:6226   .debug_str:00000000000012ec .LASF53
     /tmp/ccyoYm4A.s:5744   .debug_str:00000000000002fb .LASF54
     /tmp/ccyoYm4A.s:5718   .debug_str:0000000000000201 .LASF55
     /tmp/ccyoYm4A.s:5756   .debug_str:0000000000000346 .LASF56
     /tmp/ccyoYm4A.s:5874   .debug_str:0000000000000722 .LASF57
     /tmp/ccyoYm4A.s:5916   .debug_str:0000000000000865 .LASF58
     /tmp/ccyoYm4A.s:6200   .debug_str:000000000000120e .LASF59
     /tmp/ccyoYm4A.s:6130   .debug_str:0000000000001010 .LASF60
     /tmp/ccyoYm4A.s:6050   .debug_str:0000000000000cac .LASF61
     /tmp/ccyoYm4A.s:6002   .debug_str:0000000000000b79 .LASF62
     /tmp/ccyoYm4A.s:5888   .debug_str:000000000000078c .LASF63
     /tmp/ccyoYm4A.s:5782   .debug_str:00000000000003f6 .LASF64
     /tmp/ccyoYm4A.s:5786   .debug_str:0000000000000409 .LASF65
     /tmp/ccyoYm4A.s:6088   .debug_str:0000000000000e1c .LASF66
     /tmp/ccyoYm4A.s:6060   .debug_str:0000000000000d28 .LASF67
     /tmp/ccyoYm4A.s:5998   .debug_str:0000000000000b64 .LASF68
     /tmp/ccyoYm4A.s:5846   .debug_str:0000000000000619 .LASF69
     /tmp/ccyoYm4A.s:5658   .debug_str:0000000000000000 .LASF70
     /tmp/ccyoYm4A.s:6124   .debug_str:0000000000000fd8 .LASF71
     /tmp/ccyoYm4A.s:6062   .debug_str:0000000000000d3b .LASF117
     /tmp/ccyoYm4A.s:5878   .debug_str:0000000000000743 .LASF119
     /tmp/ccyoYm4A.s:6096   .debug_str:0000000000000e4d .LASF153
     /tmp/ccyoYm4A.s:6232   .debug_str:000000000000130c .LASF73
     /tmp/ccyoYm4A.s:5726   .debug_str:000000000000025b .LASF75
     /tmp/ccyoYm4A.s:5966   .debug_str:0000000000000a57 .LASF293
     /tmp/ccyoYm4A.s:5936   .debug_str:000000000000093d .LASF76
     /tmp/ccyoYm4A.s:6064   .debug_str:0000000000000d44 .LASF77
     /tmp/ccyoYm4A.s:6140   .debug_str:000000000000103d .LASF78
     /tmp/ccyoYm4A.s:6248   .debug_str:000000000000137e .LASF79
     /tmp/ccyoYm4A.s:6098   .debug_str:0000000000000e55 .LASF82
     /tmp/ccyoYm4A.s:5946   .debug_str:000000000000099a .LASF84
     /tmp/ccyoYm4A.s:5702   .debug_str:00000000000001aa .LASF80
     /tmp/ccyoYm4A.s:5964   .debug_str:0000000000000a40 .LASF81
     /tmp/ccyoYm4A.s:6038   .debug_str:0000000000000c67 .LASF83
     /tmp/ccyoYm4A.s:5724   .debug_str:0000000000000246 .LASF85
     /tmp/ccyoYm4A.s:6100   .debug_str:0000000000000e60 .LASF86
     /tmp/ccyoYm4A.s:5790   .debug_str:0000000000000430 .LASF87
     /tmp/ccyoYm4A.s:5890   .debug_str:00000000000007a5 .LASF88
     /tmp/ccyoYm4A.s:6160   .debug_str:00000000000010cc .LASF89
     /tmp/ccyoYm4A.s:6112   .debug_str:0000000000000ebb .LASF294
     /tmp/ccyoYm4A.s:5770   .debug_str:0000000000000397 .LASF90
     /tmp/ccyoYm4A.s:5738   .debug_str:00000000000002bf .LASF91
     /tmp/ccyoYm4A.s:5772   .debug_str:00000000000003a0 .LASF92
     /tmp/ccyoYm4A.s:6040   .debug_str:0000000000000c71 .LASF93
     /tmp/ccyoYm4A.s:5904   .debug_str:00000000000007fd .LASF94
     /tmp/ccyoYm4A.s:5826   .debug_str:0000000000000558 .LASF95
GAS LISTING /tmp/ccyoYm4A.s 			page 46


     /tmp/ccyoYm4A.s:5960   .debug_str:0000000000000a22 .LASF96
     /tmp/ccyoYm4A.s:6154   .debug_str:0000000000001077 .LASF97
     /tmp/ccyoYm4A.s:6046   .debug_str:0000000000000ca1 .LASF98
     /tmp/ccyoYm4A.s:5674   .debug_str:000000000000009a .LASF99
     /tmp/ccyoYm4A.s:6238   .debug_str:000000000000134d .LASF100
     /tmp/ccyoYm4A.s:5816   .debug_str:00000000000004e8 .LASF101
     /tmp/ccyoYm4A.s:5714   .debug_str:00000000000001e5 .LASF102
     /tmp/ccyoYm4A.s:5804   .debug_str:0000000000000488 .LASF103
     /tmp/ccyoYm4A.s:5666   .debug_str:000000000000002b .LASF104
     /tmp/ccyoYm4A.s:5914   .debug_str:0000000000000858 .LASF105
     /tmp/ccyoYm4A.s:6074   .debug_str:0000000000000da9 .LASF106
     /tmp/ccyoYm4A.s:6036   .debug_str:0000000000000c5a .LASF107
     /tmp/ccyoYm4A.s:5662   .debug_str:000000000000000f .LASF138
     /tmp/ccyoYm4A.s:6056   .debug_str:0000000000000cf3 .LASF109
     /tmp/ccyoYm4A.s:5664   .debug_str:0000000000000026 .LASF110
     /tmp/ccyoYm4A.s:6230   .debug_str:0000000000001307 .LASF111
     /tmp/ccyoYm4A.s:6068   .debug_str:0000000000000d76 .LASF112
     /tmp/ccyoYm4A.s:6094   .debug_str:0000000000000e44 .LASF113
     /tmp/ccyoYm4A.s:5962   .debug_str:0000000000000a38 .LASF114
     /tmp/ccyoYm4A.s:6122   .debug_str:0000000000000fce .LASF115
     /tmp/ccyoYm4A.s:6142   .debug_str:0000000000001051 .LASF116
     /tmp/ccyoYm4A.s:5758   .debug_str:0000000000000351 .LASF118
     /tmp/ccyoYm4A.s:5672   .debug_str:0000000000000072 .LASF120
     /tmp/ccyoYm4A.s:5712   .debug_str:00000000000001d7 .LASF121
     /tmp/ccyoYm4A.s:5892   .debug_str:00000000000007b2 .LASF123
     /tmp/ccyoYm4A.s:5792   .debug_str:0000000000000446 .LASF122
     /tmp/ccyoYm4A.s:6234   .debug_str:0000000000001316 .LASF124
     /tmp/ccyoYm4A.s:6016   .debug_str:0000000000000bce .LASF125
     /tmp/ccyoYm4A.s:6072   .debug_str:0000000000000d9f .LASF126
     /tmp/ccyoYm4A.s:5912   .debug_str:0000000000000844 .LASF127
     /tmp/ccyoYm4A.s:5894   .debug_str:00000000000007cb .LASF128
     /tmp/ccyoYm4A.s:6000   .debug_str:0000000000000b6d .LASF129
     /tmp/ccyoYm4A.s:5974   .debug_str:0000000000000a88 .LASF130
     /tmp/ccyoYm4A.s:5920   .debug_str:0000000000000889 .LASF131
     /tmp/ccyoYm4A.s:5706   .debug_str:00000000000001c3 .LASF132
     /tmp/ccyoYm4A.s:5884   .debug_str:0000000000000770 .LASF133
     /tmp/ccyoYm4A.s:5810   .debug_str:00000000000004ae .LASF134
     /tmp/ccyoYm4A.s:6114   .debug_str:0000000000000ec3 .LASF135
     /tmp/ccyoYm4A.s:5868   .debug_str:00000000000006fc .LASF136
     /tmp/ccyoYm4A.s:5788   .debug_str:0000000000000423 .LASF137
     /tmp/ccyoYm4A.s:5716   .debug_str:00000000000001f5 .LASF139
     /tmp/ccyoYm4A.s:6228   .debug_str:0000000000001302 .LASF140
     /tmp/ccyoYm4A.s:6004   .debug_str:0000000000000b85 .LASF141
     /tmp/ccyoYm4A.s:5806   .debug_str:0000000000000494 .LASF142
     /tmp/ccyoYm4A.s:5746   .debug_str:0000000000000305 .LASF143
     /tmp/ccyoYm4A.s:6126   .debug_str:0000000000000fec .LASF144
     /tmp/ccyoYm4A.s:6090   .debug_str:0000000000000e23 .LASF295
     /tmp/ccyoYm4A.s:5834   .debug_str:00000000000005ae .LASF145
     /tmp/ccyoYm4A.s:6254   .debug_str:00000000000013b6 .LASF146
     /tmp/ccyoYm4A.s:6170   .debug_str:000000000000111a .LASF147
     /tmp/ccyoYm4A.s:5682   .debug_str:00000000000000d3 .LASF148
     /tmp/ccyoYm4A.s:6156   .debug_str:0000000000001098 .LASF149
     /tmp/ccyoYm4A.s:6132   .debug_str:000000000000101d .LASF150
     /tmp/ccyoYm4A.s:5924   .debug_str:00000000000008b1 .LASF151
     /tmp/ccyoYm4A.s:5984   .debug_str:0000000000000aed .LASF152
     /tmp/ccyoYm4A.s:5764   .debug_str:0000000000000370 .LASF154
     /tmp/ccyoYm4A.s:6136   .debug_str:000000000000102e .LASF155
GAS LISTING /tmp/ccyoYm4A.s 			page 47


     /tmp/ccyoYm4A.s:5670   .debug_str:0000000000000053 .LASF156
     /tmp/ccyoYm4A.s:5688   .debug_str:0000000000000118 .LASF157
     /tmp/ccyoYm4A.s:5668   .debug_str:000000000000003b .LASF158
     /tmp/ccyoYm4A.s:5734   .debug_str:000000000000029b .LASF159
     /tmp/ccyoYm4A.s:5918   .debug_str:0000000000000870 .LASF162
     /tmp/ccyoYm4A.s:6082   .debug_str:0000000000000dec .LASF163
     /tmp/ccyoYm4A.s:5948   .debug_str:00000000000009b1 .LASF164
     /tmp/ccyoYm4A.s:5940   .debug_str:000000000000096a .LASF165
     /tmp/ccyoYm4A.s:6078   .debug_str:0000000000000dd2 .LASF166
     /tmp/ccyoYm4A.s:5776   .debug_str:00000000000003bd .LASF167
     /tmp/ccyoYm4A.s:5762   .debug_str:0000000000000366 .LASF188
     /tmp/ccyoYm4A.s:6020   .debug_str:0000000000000bf0 .LASF189
     /tmp/ccyoYm4A.s:6152   .debug_str:000000000000106e .LASF168
     /tmp/ccyoYm4A.s:5832   .debug_str:0000000000000591 .LASF169
     /tmp/ccyoYm4A.s:5886   .debug_str:0000000000000784 .LASF170
     /tmp/ccyoYm4A.s:5932   .debug_str:000000000000090f .LASF171
     /tmp/ccyoYm4A.s:6042   .debug_str:0000000000000c90 .LASF172
     /tmp/ccyoYm4A.s:5814   .debug_str:00000000000004ca .LASF173
     /tmp/ccyoYm4A.s:6028   .debug_str:0000000000000c2f .LASF174
     /tmp/ccyoYm4A.s:5824   .debug_str:000000000000053d .LASF175
     /tmp/ccyoYm4A.s:6186   .debug_str:00000000000011c2 .LASF176
     /tmp/ccyoYm4A.s:6202   .debug_str:0000000000001226 .LASF177
     /tmp/ccyoYm4A.s:5970   .debug_str:0000000000000a6f .LASF178
     /tmp/ccyoYm4A.s:5678   .debug_str:00000000000000b2 .LASF179
     /tmp/ccyoYm4A.s:6252   .debug_str:00000000000013ae .LASF180
     /tmp/ccyoYm4A.s:5990   .debug_str:0000000000000b17 .LASF181
     /tmp/ccyoYm4A.s:6104   .debug_str:0000000000000e70 .LASF182
     /tmp/ccyoYm4A.s:6008   .debug_str:0000000000000b97 .LASF183
     /tmp/ccyoYm4A.s:5698   .debug_str:000000000000016f .LASF296
     /tmp/ccyoYm4A.s:5774   .debug_str:00000000000003b4 .LASF184
     /tmp/ccyoYm4A.s:6246   .debug_str:0000000000001379 .LASF185
     /tmp/ccyoYm4A.s:5852   .debug_str:0000000000000647 .LASF186
     /tmp/ccyoYm4A.s:5812   .debug_str:00000000000004ba .LASF187
     /tmp/ccyoYm4A.s:6220   .debug_str:00000000000012ad .LASF190
     /tmp/ccyoYm4A.s:6208   .debug_str:0000000000001258 .LASF191
     /tmp/ccyoYm4A.s:6176   .debug_str:000000000000117b .LASF192
     /tmp/ccyoYm4A.s:6012   .debug_str:0000000000000bbf .LASF193
     /tmp/ccyoYm4A.s:6022   .debug_str:0000000000000c07 .LASF194
     /tmp/ccyoYm4A.s:6048   .debug_str:0000000000000ca6 .LASF195
     /tmp/ccyoYm4A.s:6222   .debug_str:00000000000012bd .LASF196
     /tmp/ccyoYm4A.s:6066   .debug_str:0000000000000d6c .LASF197
     /tmp/ccyoYm4A.s:5986   .debug_str:0000000000000af7 .LASF198
     /tmp/ccyoYm4A.s:6024   .debug_str:0000000000000c1d .LASF199
     /tmp/ccyoYm4A.s:5850   .debug_str:0000000000000636 .LASF200
     /tmp/ccyoYm4A.s:6134   .debug_str:0000000000001027 .LASF201
     /tmp/ccyoYm4A.s:5954   .debug_str:00000000000009e2 .LASF202
     /tmp/ccyoYm4A.s:6194   .debug_str:00000000000011e5 .LASF203
     /tmp/ccyoYm4A.s:5742   .debug_str:00000000000002ea .LASF204
     /tmp/ccyoYm4A.s:5992   .debug_str:0000000000000b30 .LASF205
     /tmp/ccyoYm4A.s:6212   .debug_str:0000000000001284 .LASF206
     /tmp/ccyoYm4A.s:6240   .debug_str:000000000000135a .LASF207
     /tmp/ccyoYm4A.s:5910   .debug_str:0000000000000830 .LASF208
     /tmp/ccyoYm4A.s:6092   .debug_str:0000000000000e37 .LASF209
     /tmp/ccyoYm4A.s:5872   .debug_str:000000000000071c .LASF210
     /tmp/ccyoYm4A.s:6242   .debug_str:0000000000001363 .LASF211
     /tmp/ccyoYm4A.s:5676   .debug_str:00000000000000a6 .LASF297
     /tmp/ccyoYm4A.s:6164   .debug_str:00000000000010ef .LASF212
GAS LISTING /tmp/ccyoYm4A.s 			page 48


     /tmp/ccyoYm4A.s:6108   .debug_str:0000000000000eab .LASF213
     /tmp/ccyoYm4A.s:6206   .debug_str:0000000000001250 .LASF214
     /tmp/ccyoYm4A.s:6162   .debug_str:00000000000010e5 .LASF215
     /tmp/ccyoYm4A.s:5754   .debug_str:000000000000033e .LASF216
     /tmp/ccyoYm4A.s:5796   .debug_str:0000000000000464 .LASF217
     /tmp/ccyoYm4A.s:6214   .debug_str:0000000000001296 .LASF218
     /tmp/ccyoYm4A.s:6032   .debug_str:0000000000000c42 .LASF219
     /tmp/ccyoYm4A.s:5848   .debug_str:000000000000062e .LASF220
     /tmp/ccyoYm4A.s:5692   .debug_str:0000000000000152 .LASF221
     /tmp/ccyoYm4A.s:5908   .debug_str:0000000000000829 .LASF222
     /tmp/ccyoYm4A.s:5838   .debug_str:00000000000005e1 .LASF223
     /tmp/ccyoYm4A.s:6026   .debug_str:0000000000000c23 .LASF224
     /tmp/ccyoYm4A.s:5958   .debug_str:0000000000000a15 .LASF225
     /tmp/ccyoYm4A.s:6182   .debug_str:00000000000011a1 .LASF226
     /tmp/ccyoYm4A.s:6102   .debug_str:0000000000000e6b .LASF227
     /tmp/ccyoYm4A.s:6216   .debug_str:000000000000129d .LASF228
     /tmp/ccyoYm4A.s:6192   .debug_str:00000000000011d8 .LASF229
     /tmp/ccyoYm4A.s:5750   .debug_str:0000000000000320 .LASF230
     /tmp/ccyoYm4A.s:5898   .debug_str:00000000000007df .LASF231
     /tmp/ccyoYm4A.s:6138   .debug_str:0000000000001033 .LASF232
     /tmp/ccyoYm4A.s:5988   .debug_str:0000000000000b0c .LASF233
     /tmp/ccyoYm4A.s:6118   .debug_str:0000000000000f93 .LASF234
     /tmp/ccyoYm4A.s:5828   .debug_str:0000000000000577 .LASF235
     /tmp/ccyoYm4A.s:6236   .debug_str:0000000000001330 .LASF236
     /tmp/ccyoYm4A.s:5976   .debug_str:0000000000000a90 .LASF237
     /tmp/ccyoYm4A.s:5684   .debug_str:00000000000000e2 .LASF238
     /tmp/ccyoYm4A.s:6204   .debug_str:0000000000001240 .LASF239
     /tmp/ccyoYm4A.s:6224   .debug_str:00000000000012ce .LASF240
     /tmp/ccyoYm4A.s:5896   .debug_str:00000000000007d0 .LASF241
     /tmp/ccyoYm4A.s:6018   .debug_str:0000000000000bd3 .LASF242
     /tmp/ccyoYm4A.s:5686   .debug_str:0000000000000106 .LASF243
     /tmp/ccyoYm4A.s:5720   .debug_str:0000000000000217 .LASF244
     /tmp/ccyoYm4A.s:5942   .debug_str:000000000000096f .LASF245
     /tmp/ccyoYm4A.s:6166   .debug_str:00000000000010f6 .LASF246
     /tmp/ccyoYm4A.s:6184   .debug_str:00000000000011ac .LASF247
     /tmp/ccyoYm4A.s:6058   .debug_str:0000000000000d04 .LASF248
     /tmp/ccyoYm4A.s:6158   .debug_str:00000000000010b8 .LASF249
     /tmp/ccyoYm4A.s:6120   .debug_str:0000000000000fac .LASF250
     /tmp/ccyoYm4A.s:5906   .debug_str:0000000000000811 .LASF251
     /tmp/ccyoYm4A.s:5994   .debug_str:0000000000000b37 .LASF252
     /tmp/ccyoYm4A.s:5690   .debug_str:0000000000000130 .LASF253
     /tmp/ccyoYm4A.s:5864   .debug_str:00000000000006ad .LASF254
     /tmp/ccyoYm4A.s:5694   .debug_str:0000000000000159 .LASF255
     /tmp/ccyoYm4A.s:6084   .debug_str:0000000000000df1 .LASF256
     /tmp/ccyoYm4A.s:5934   .debug_str:000000000000092b .LASF257
     /tmp/ccyoYm4A.s:6210   .debug_str:0000000000001264 .LASF258
     /tmp/ccyoYm4A.s:5856   .debug_str:000000000000065f .LASF259
     /tmp/ccyoYm4A.s:5866   .debug_str:00000000000006dd .LASF260
     /tmp/ccyoYm4A.s:5768   .debug_str:0000000000000384 .LASF261
     /tmp/ccyoYm4A.s:5956   .debug_str:00000000000009f4 .LASF262
     /tmp/ccyoYm4A.s:5968   .debug_str:0000000000000a5c .LASF263
     /tmp/ccyoYm4A.s:5928   .debug_str:00000000000008e6 .LASF264
     /tmp/ccyoYm4A.s:6006   .debug_str:0000000000000b8a .LASF265
     /tmp/ccyoYm4A.s:5836   .debug_str:00000000000005c6 .LASF266
     /tmp/ccyoYm4A.s:5704   .debug_str:00000000000001b6 .LASF267
     /tmp/ccyoYm4A.s:5926   .debug_str:00000000000008cb .LASF268
     /tmp/ccyoYm4A.s:5798   .debug_str:000000000000046b .LASF269
GAS LISTING /tmp/ccyoYm4A.s 			page 49


     /tmp/ccyoYm4A.s:5860   .debug_str:000000000000068d .LASF270
     /tmp/ccyoYm4A.s:5710   .debug_str:00000000000001d2 .LASF271
     /tmp/ccyoYm4A.s:5844   .debug_str:0000000000000608 .LASF298
     /tmp/ccyoYm4A.s:65     .text:0000000000000044 .LFB72
     /tmp/ccyoYm4A.s:154    .text:00000000000000e8 .LFE72
     /tmp/ccyoYm4A.s:79     .text:0000000000000058 .LBB72
     /tmp/ccyoYm4A.s:5642   .debug_ranges:0000000000000000 .Ldebug_ranges0
     /tmp/ccyoYm4A.s:5474   .debug_loc:0000000000000000 .LLST0
     /tmp/ccyoYm4A.s:85     .text:0000000000000060 .LVL4
     /tmp/ccyoYm4A.s:97     .text:0000000000000078 .LVL7
     /tmp/ccyoYm4A.s:122    .text:000000000000009c .LVL10
     /tmp/ccyoYm4A.s:132    .text:00000000000000b4 .LVL11
     /tmp/ccyoYm4A.s:140    .text:00000000000000cc .LVL12
     /tmp/ccyoYm4A.s:149    .text:00000000000000e4 .LVL13
     /tmp/ccyoYm4A.s:174    .text:00000000000000e8 .LFB71
     /tmp/ccyoYm4A.s:1133   .text:00000000000004c4 .LFE71
     /tmp/ccyoYm4A.s:6080   .debug_str:0000000000000de5 .LASF272
     /tmp/ccyoYm4A.s:5485   .debug_loc:0000000000000036 .LLST1
     /tmp/ccyoYm4A.s:6180   .debug_str:000000000000119c .LASF273
     /tmp/ccyoYm4A.s:5514   .debug_loc:00000000000000ba .LLST2
     /tmp/ccyoYm4A.s:316    .text:00000000000001c8 .LBB149
     /tmp/ccyoYm4A.s:958    .text:0000000000000428 .LBE149
     /tmp/ccyoYm4A.s:5521   .debug_loc:00000000000000dd .LLST3
     /tmp/ccyoYm4A.s:6188   .debug_str:00000000000011cb .LASF274
     /tmp/ccyoYm4A.s:5528   .debug_loc:0000000000000100 .LLST4
     /tmp/ccyoYm4A.s:318    .text:00000000000001c8 .LBB150
     /tmp/ccyoYm4A.s:334    .text:00000000000001d4 .LBE150
     /tmp/ccyoYm4A.s:339    .text:00000000000001d8 .LBB152
     /tmp/ccyoYm4A.s:355    .text:00000000000001e4 .LBE152
     /tmp/ccyoYm4A.s:357    .text:00000000000001e4 .LBB154
     /tmp/ccyoYm4A.s:455    .text:0000000000000214 .LBB156
     /tmp/ccyoYm4A.s:473    .text:0000000000000228 .LBE156
     /tmp/ccyoYm4A.s:470    .text:0000000000000228 .LVL29
     /tmp/ccyoYm4A.s:517    .text:0000000000000238 .LBB158
     /tmp/ccyoYm4A.s:537    .text:0000000000000250 .LBE158
     /tmp/ccyoYm4A.s:532    .text:000000000000024c .LVL33
     /tmp/ccyoYm4A.s:540    .text:0000000000000250 .LBB160
     /tmp/ccyoYm4A.s:602    .text:0000000000000298 .LBE160
     /tmp/ccyoYm4A.s:575    .text:000000000000027c .LVL34
     /tmp/ccyoYm4A.s:605    .text:0000000000000298 .LBB162
     /tmp/ccyoYm4A.s:637    .text:00000000000002bc .LBE162
     /tmp/ccyoYm4A.s:612    .text:00000000000002a4 .LBB164
     /tmp/ccyoYm4A.s:621    .text:00000000000002ac .LBE164
     /tmp/ccyoYm4A.s:5535   .debug_loc:0000000000000123 .LLST5
     /tmp/ccyoYm4A.s:5543   .debug_loc:0000000000000147 .LLST6
     /tmp/ccyoYm4A.s:632    .text:00000000000002b8 .LVL37
     /tmp/ccyoYm4A.s:640    .text:00000000000002bc .LBB166
     /tmp/ccyoYm4A.s:650    .text:00000000000002c8 .LBE166
     /tmp/ccyoYm4A.s:645    .text:00000000000002c4 .LVL38
     /tmp/ccyoYm4A.s:653    .text:00000000000002c8 .LBB168
     /tmp/ccyoYm4A.s:715    .text:0000000000000310 .LBE168
     /tmp/ccyoYm4A.s:688    .text:00000000000002f4 .LVL39
     /tmp/ccyoYm4A.s:718    .text:0000000000000310 .LBB170
     /tmp/ccyoYm4A.s:772    .text:0000000000000350 .LBE170
     /tmp/ccyoYm4A.s:745    .text:0000000000000334 .LVL40
     /tmp/ccyoYm4A.s:775    .text:0000000000000350 .LBB172
     /tmp/ccyoYm4A.s:818    .text:0000000000000384 .LBE172
GAS LISTING /tmp/ccyoYm4A.s 			page 50


     /tmp/ccyoYm4A.s:796    .text:0000000000000370 .LBB174
     /tmp/ccyoYm4A.s:806    .text:000000000000037c .LBE174
     /tmp/ccyoYm4A.s:5550   .debug_loc:000000000000016a .LLST7
     /tmp/ccyoYm4A.s:803    .text:000000000000037c .LVL42
     /tmp/ccyoYm4A.s:795    .text:0000000000000370 .LVL41
     /tmp/ccyoYm4A.s:821    .text:0000000000000384 .LBB176
     /tmp/ccyoYm4A.s:841    .text:000000000000039c .LBE176
     /tmp/ccyoYm4A.s:836    .text:0000000000000398 .LVL43
     /tmp/ccyoYm4A.s:844    .text:000000000000039c .LBB178
     /tmp/ccyoYm4A.s:864    .text:00000000000003b4 .LBE178
     /tmp/ccyoYm4A.s:859    .text:00000000000003b0 .LVL44
     /tmp/ccyoYm4A.s:867    .text:00000000000003b4 .LBB180
     /tmp/ccyoYm4A.s:887    .text:00000000000003cc .LBE180
     /tmp/ccyoYm4A.s:882    .text:00000000000003c8 .LVL45
     /tmp/ccyoYm4A.s:890    .text:00000000000003cc .LBB182
     /tmp/ccyoYm4A.s:913    .text:00000000000003ec .LBE182
     /tmp/ccyoYm4A.s:897    .text:00000000000003dc .LVL46
     /tmp/ccyoYm4A.s:916    .text:00000000000003ec .LBB184
     /tmp/ccyoYm4A.s:938    .text:0000000000000410 .LBE184
     /tmp/ccyoYm4A.s:933    .text:000000000000040c .LVL47
     /tmp/ccyoYm4A.s:951    .text:0000000000000424 .LVL48
     /tmp/ccyoYm4A.s:485    .text:000000000000022c .LBB187
     /tmp/ccyoYm4A.s:496    .text:0000000000000230 .LBE187
     /tmp/ccyoYm4A.s:5557   .debug_loc:000000000000018d .LLST8
     /tmp/ccyoYm4A.s:498    .text:0000000000000230 .LBB189
     /tmp/ccyoYm4A.s:509    .text:0000000000000234 .LBE189
     /tmp/ccyoYm4A.s:5564   .debug_loc:00000000000001b0 .LLST9
     /tmp/ccyoYm4A.s:1043   .text:0000000000000480 .LBB199
     /tmp/ccyoYm4A.s:1122   .text:00000000000004b8 .LBE199
     /tmp/ccyoYm4A.s:5571   .debug_loc:00000000000001d3 .LLST11
     /tmp/ccyoYm4A.s:5578   .debug_loc:00000000000001f6 .LLST12
     /tmp/ccyoYm4A.s:1045   .text:0000000000000480 .LBB200
     /tmp/ccyoYm4A.s:1061   .text:000000000000048c .LBE200
     /tmp/ccyoYm4A.s:1063   .text:000000000000048c .LBB202
     /tmp/ccyoYm4A.s:1079   .text:0000000000000498 .LBE202
     /tmp/ccyoYm4A.s:1081   .text:0000000000000498 .LBB204
     /tmp/ccyoYm4A.s:1088   .text:00000000000004a4 .LBE204
     /tmp/ccyoYm4A.s:1094   .text:00000000000004ac .LBB206
     /tmp/ccyoYm4A.s:1105   .text:00000000000004b0 .LBE206
     /tmp/ccyoYm4A.s:5585   .debug_loc:0000000000000219 .LLST13
     /tmp/ccyoYm4A.s:1107   .text:00000000000004b0 .LBB208
     /tmp/ccyoYm4A.s:1121   .text:00000000000004b8 .LBE208
     /tmp/ccyoYm4A.s:5592   .debug_loc:000000000000023c .LLST14
     /tmp/ccyoYm4A.s:1092   .text:00000000000004ac .LVL59
     /tmp/ccyoYm4A.s:192    .text:0000000000000104 .LBB146
     /tmp/ccyoYm4A.s:208    .text:0000000000000110 .LBE146
     /tmp/ccyoYm4A.s:973    .text:0000000000000440 .LBB194
     /tmp/ccyoYm4A.s:982    .text:0000000000000454 .LBE194
     /tmp/ccyoYm4A.s:994    .text:0000000000000460 .LBB197
     /tmp/ccyoYm4A.s:1001   .text:0000000000000464 .LBE197
     /tmp/ccyoYm4A.s:5599   .debug_loc:000000000000025f .LLST10
     /tmp/ccyoYm4A.s:1008   .text:0000000000000468 .LBB210
     /tmp/ccyoYm4A.s:1020   .text:0000000000000470 .LBE210
     /tmp/ccyoYm4A.s:5606   .debug_loc:0000000000000282 .LLST15
     /tmp/ccyoYm4A.s:1026   .text:0000000000000474 .LBB212
     /tmp/ccyoYm4A.s:1038   .text:000000000000047c .LBE212
     /tmp/ccyoYm4A.s:5614   .debug_loc:00000000000002a6 .LLST16
GAS LISTING /tmp/ccyoYm4A.s 			page 51


     /tmp/ccyoYm4A.s:230    .text:000000000000013c .LBB216
     /tmp/ccyoYm4A.s:246    .text:0000000000000148 .LBE216
     /tmp/ccyoYm4A.s:283    .text:00000000000001a8 .LBB218
     /tmp/ccyoYm4A.s:295    .text:00000000000001ac .LBE218
     /tmp/ccyoYm4A.s:5622   .debug_loc:00000000000002ca .LLST17
     /tmp/ccyoYm4A.s:251    .text:0000000000000158 .LVL16
     /tmp/ccyoYm4A.s:256    .text:0000000000000168 .LVL17
     /tmp/ccyoYm4A.s:261    .text:0000000000000174 .LVL18
     /tmp/ccyoYm4A.s:266    .text:0000000000000180 .LVL19
     /tmp/ccyoYm4A.s:271    .text:0000000000000190 .LVL20
     /tmp/ccyoYm4A.s:276    .text:000000000000019c .LVL21
     /tmp/ccyoYm4A.s:281    .text:00000000000001a8 .LVL22
     /tmp/ccyoYm4A.s:971    .text:0000000000000440 .LVL50
     /tmp/ccyoYm4A.s:1129   .text:00000000000004c0 .LVL62
     /tmp/ccyoYm4A.s:10     .text:0000000000000000 .LFB70
     /tmp/ccyoYm4A.s:59     .text:0000000000000044 .LFE70
     /tmp/ccyoYm4A.s:30     .text:0000000000000020 .LBB68
     /tmp/ccyoYm4A.s:42     .text:0000000000000024 .LBE68
     /tmp/ccyoYm4A.s:25     .text:0000000000000018 .LVL0
     /tmp/ccyoYm4A.s:46     .text:000000000000002c .LVL3
     /tmp/ccyoYm4A.s:6148   .debug_str:0000000000001064 .LASF275
     /tmp/ccyoYm4A.s:6150   .debug_str:0000000000001069 .LASF276
     /tmp/ccyoYm4A.s:5862   .debug_str:00000000000006a8 .LASF277
     /tmp/ccyoYm4A.s:5752   .debug_str:0000000000000333 .LASF278
     /tmp/ccyoYm4A.s:5800   .debug_str:0000000000000478 .LASF279
     /tmp/ccyoYm4A.s:6168   .debug_str:0000000000001115 .LASF280
     /tmp/ccyoYm4A.s:5900   .debug_str:00000000000007ec .LASF281
     /tmp/ccyoYm4A.s:5902   .debug_str:00000000000007f2 .LASF282
     /tmp/ccyoYm4A.s:6196   .debug_str:00000000000011eb .LASF283
     /tmp/ccyoYm4A.s:5922   .debug_str:000000000000089b .LASF284
     /tmp/ccyoYm4A.s:5766   .debug_str:0000000000000375 .LASF285
     /tmp/ccyoYm4A.s:5978   .debug_str:0000000000000aa6 .LASF286
     /tmp/ccyoYm4A.s:6172   .debug_str:000000000000113b .LASF287
     /tmp/ccyoYm4A.s:5760   .debug_str:000000000000035f .LASF288
     /tmp/ccyoYm4A.s:87     .text:0000000000000064 .LVL5
     /tmp/ccyoYm4A.s:91     .text:000000000000006c .LVL6
     /tmp/ccyoYm4A.s:112    .text:000000000000008c .LVL8
     /tmp/ccyoYm4A.s:120    .text:0000000000000094 .LVL9
     /tmp/ccyoYm4A.s:206    .text:0000000000000110 .LVL14
     /tmp/ccyoYm4A.s:291    .text:00000000000001ac .LVL23
     /tmp/ccyoYm4A.s:312    .text:00000000000001c8 .LVL24
     /tmp/ccyoYm4A.s:332    .text:00000000000001d4 .LVL25
     /tmp/ccyoYm4A.s:372    .text:00000000000001f4 .LVL28
     /tmp/ccyoYm4A.s:954    .text:0000000000000428 .LVL49
     /tmp/ccyoYm4A.s:1004   .text:0000000000000468 .LVL53
     /tmp/ccyoYm4A.s:1023   .text:0000000000000474 .LVL55
     /tmp/ccyoYm4A.s:1059   .text:000000000000048c .LVL57
     /tmp/ccyoYm4A.s:1118   .text:00000000000004b8 .LVL61
     /tmp/ccyoYm4A.s:244    .text:0000000000000148 .LVL15
     /tmp/ccyoYm4A.s:337    .text:00000000000001d8 .LVL26
     /tmp/ccyoYm4A.s:353    .text:00000000000001e4 .LVL27
     /tmp/ccyoYm4A.s:611    .text:00000000000002a4 .LVL35
     /tmp/ccyoYm4A.s:619    .text:00000000000002ac .LVL36
     /tmp/ccyoYm4A.s:483    .text:000000000000022c .LVL30
     /tmp/ccyoYm4A.s:493    .text:0000000000000230 .LVL31
     /tmp/ccyoYm4A.s:506    .text:0000000000000234 .LVL32
     /tmp/ccyoYm4A.s:1077   .text:0000000000000498 .LVL58
GAS LISTING /tmp/ccyoYm4A.s 			page 52


     /tmp/ccyoYm4A.s:1102   .text:00000000000004b0 .LVL60
     /tmp/ccyoYm4A.s:993    .text:0000000000000460 .LVL51
     /tmp/ccyoYm4A.s:999    .text:0000000000000464 .LVL52
     /tmp/ccyoYm4A.s:1017   .text:0000000000000470 .LVL54
     /tmp/ccyoYm4A.s:1035   .text:000000000000047c .LVL56
     /tmp/ccyoYm4A.s:1154   .debug_info:0000000000000000 .Ldebug_info0
     /tmp/ccyoYm4A.s:99     .text:0000000000000078 .LBE72
     /tmp/ccyoYm4A.s:115    .text:000000000000008c .LBB75
     /tmp/ccyoYm4A.s:152    .text:00000000000000e8 .LBE75
     /tmp/ccyoYm4A.s:475    .text:0000000000000228 .LBE154
     /tmp/ccyoYm4A.s:513    .text:0000000000000238 .LBB191
     /tmp/ccyoYm4A.s:957    .text:0000000000000428 .LBE191

UNDEFINED SYMBOLS
_ZN15MemoryAllocator7initMemEv
_ZN6Kernel14supervisorTrapEv
_ZN4Uart11getInstanceEv
plic_claim
plic_complete
_ZNK4Uart9getStatusEv
_ZN4Uart9rxReceiveEv
_ZN4Uart8txSignalEv
_Z14__print_stringPKc
_Z14__print_uint64m
__putc
_ZN15MemoryAllocator8allocateEm
_ZN15MemoryAllocator4freeEPv
_ZN3TCB9createTCBEPFvPvES0_
_ZN3TCB7runningE
_ZN3TCB8dispatchEv
_ZN3TCB20createDeactivatedTCBEPFvPvES0_
_ZN3Sem9createSemEj
_ZN3SemD1Ev
_ZN3Sem7semWaitEv
_ZN3Sem9semSignalEv
_ZN9Scheduler9timeSleepEm
_ZN4Uart5rxGetEv
_ZN4Uart5txPutEc
_ZN9Scheduler14timerInterruptEv
_ZN3TCB16timeSliceCounterE
