GAS LISTING /tmp/cchpxuxe.s 			page 1


   1              		.file	"kernel.cpp"
   2              		.option pic
   3              		.option norelax
   4              		.text
   5              	.Ltext0:
   6              		.align	2
   7              		.globl	_ZN6Kernel10initKernelEv
   9              	_ZN6Kernel10initKernelEv:
  10              	.LFB73:
  11              		.file 1 "src/kernel.cpp"
   1:src/kernel.cpp **** //
   2:src/kernel.cpp **** // Created by os on 9/6/22.
   3:src/kernel.cpp **** //
   4:src/kernel.cpp **** 
   5:src/kernel.cpp **** 
   6:src/kernel.cpp **** #include "../h/kernel.hpp"
   7:src/kernel.cpp **** //#include "../h/memory_allocator.hpp"
   8:src/kernel.cpp **** //#include "../h/riscv.hpp"
   9:src/kernel.cpp **** //#include "../h/uart.hpp"
  10:src/kernel.cpp **** 
  11:src/kernel.cpp **** //Uart* Kernel::uart = nullptr;
  12:src/kernel.cpp **** 
  13:src/kernel.cpp **** extern void userMain();
  14:src/kernel.cpp **** 
  15:src/kernel.cpp **** void Kernel::initKernel() {
  12              		.loc 1 15 27
  13              		.cfi_startproc
  14 0000 130101FF 		addi	sp,sp,-16
  15              		.cfi_def_cfa_offset 16
  16 0004 23341100 		sd	ra,8(sp)
  17 0008 23308100 		sd	s0,0(sp)
  18              		.cfi_offset 1, -8
  19              		.cfi_offset 8, -16
  20 000c 13040101 		addi	s0,sp,16
  21              		.cfi_def_cfa 8, 0
  16:src/kernel.cpp ****     MemoryAllocator::initMem();
  22              		.loc 1 16 5
  23              		.loc 1 16 29 is_stmt 0
  24 0010 97000000 		call	_ZN15MemoryAllocator7initMemEv@plt
  24      E7800000 
  25              	.LVL0:
  17:src/kernel.cpp ****     RiscV::writeStvec((uint64) &supervisorTrap);
  26              		.loc 1 17 5 is_stmt 1
  27              		.loc 1 17 22 is_stmt 0
  28 0018 97070000 		la	a5,_ZN6Kernel14supervisorTrapEv
  28      83B70700 
  29              	.LVL1:
  30              	.LBB72:
  31              	.LBB73:
  32              		.file 2 "src/../h/riscv.hpp"
   1:src/../h/riscv.hpp **** //
   2:src/../h/riscv.hpp **** // Created by os on 9/6/22.
   3:src/../h/riscv.hpp **** //
   4:src/../h/riscv.hpp **** 
   5:src/../h/riscv.hpp **** #ifndef OSMIUM_RISCV_HPP
   6:src/../h/riscv.hpp **** #define OSMIUM_RISCV_HPP
   7:src/../h/riscv.hpp **** 
GAS LISTING /tmp/cchpxuxe.s 			page 2


   8:src/../h/riscv.hpp **** 
   9:src/../h/riscv.hpp **** #include "../lib/hw.h"
  10:src/../h/riscv.hpp **** 
  11:src/../h/riscv.hpp **** class RiscV {
  12:src/../h/riscv.hpp **** public:
  13:src/../h/riscv.hpp ****     // pop spp and spie sstatus bits
  14:src/../h/riscv.hpp ****     static void popSppSpie();
  15:src/../h/riscv.hpp **** 
  16:src/../h/riscv.hpp ****     //push x3...x31 registers on stack
  17:src/../h/riscv.hpp ****     static void pushRegisters();
  18:src/../h/riscv.hpp **** 
  19:src/../h/riscv.hpp ****     //pop x3...x31 registers from stack
  20:src/../h/riscv.hpp ****     static void popRegisters();
  21:src/../h/riscv.hpp **** 
  22:src/../h/riscv.hpp ****     //read from scause register
  23:src/../h/riscv.hpp ****     static uint64 readScause();
  24:src/../h/riscv.hpp **** 
  25:src/../h/riscv.hpp ****     //write to scause register
  26:src/../h/riscv.hpp ****     static void writeScause(uint64 scause);
  27:src/../h/riscv.hpp **** 
  28:src/../h/riscv.hpp ****     //read from sepc register
  29:src/../h/riscv.hpp ****     static uint64 readSepc();
  30:src/../h/riscv.hpp **** 
  31:src/../h/riscv.hpp ****     //write to sepc register
  32:src/../h/riscv.hpp ****     static void writeSepc(uint64 sepc);
  33:src/../h/riscv.hpp **** 
  34:src/../h/riscv.hpp ****     //read from stvec register
  35:src/../h/riscv.hpp ****     static uint64 readStvec();
  36:src/../h/riscv.hpp **** 
  37:src/../h/riscv.hpp ****     //write to stvec register
  38:src/../h/riscv.hpp ****     static void writeStvec(uint64 stvec);
  39:src/../h/riscv.hpp **** 
  40:src/../h/riscv.hpp ****     enum SSTATUS
  41:src/../h/riscv.hpp ****     {
  42:src/../h/riscv.hpp ****         SIE = (1 << 1), //supervisor interrupt enable
  43:src/../h/riscv.hpp ****         SPIE = (1 << 5),//supervisor previous interrupt enable
  44:src/../h/riscv.hpp ****         SPP = (1 << 8), //supervisor previous privilege
  45:src/../h/riscv.hpp ****     };
  46:src/../h/riscv.hpp **** 
  47:src/../h/riscv.hpp ****     //set bit-mask bits in the sstatus register
  48:src/../h/riscv.hpp ****     static void setSstatus(uint64 mask);
  49:src/../h/riscv.hpp **** 
  50:src/../h/riscv.hpp ****     //clear bit-mask bits in the sstatus register
  51:src/../h/riscv.hpp ****     static void clearSstatus(uint64 mask);
  52:src/../h/riscv.hpp **** 
  53:src/../h/riscv.hpp ****     //read from sstatus register
  54:src/../h/riscv.hpp ****     static uint64 readSstatus();
  55:src/../h/riscv.hpp **** 
  56:src/../h/riscv.hpp ****     //write to sstatus register
  57:src/../h/riscv.hpp ****     static void writeSstatus(uint64 sstatus);
  58:src/../h/riscv.hpp **** 
  59:src/../h/riscv.hpp ****     enum SIP
  60:src/../h/riscv.hpp ****     {
  61:src/../h/riscv.hpp ****         SSIP = (1 << 1), //supervisor software interrupt pending
  62:src/../h/riscv.hpp ****         STIP = (1 << 5), //supervisor timer interrupt pending
  63:src/../h/riscv.hpp ****                          //(timer is configured to throw a software interrupt, so this is not used)
  64:src/../h/riscv.hpp ****         SEIP = (1 << 9), //supervisor external interrupt pending
GAS LISTING /tmp/cchpxuxe.s 			page 3


  65:src/../h/riscv.hpp ****     };
  66:src/../h/riscv.hpp **** 
  67:src/../h/riscv.hpp ****     //set bit-mask bits in the sip register
  68:src/../h/riscv.hpp ****     static void setSip(uint64 mask);
  69:src/../h/riscv.hpp **** 
  70:src/../h/riscv.hpp ****     //clear bit-mask bits in the sip register
  71:src/../h/riscv.hpp ****     static void clearSip(uint64 mask);
  72:src/../h/riscv.hpp **** 
  73:src/../h/riscv.hpp ****     //read from sip register
  74:src/../h/riscv.hpp ****     static uint64 readSip();
  75:src/../h/riscv.hpp **** 
  76:src/../h/riscv.hpp ****     //write to sip register
  77:src/../h/riscv.hpp ****     static void writeSip(uint64 Sip);
  78:src/../h/riscv.hpp **** private:
  79:src/../h/riscv.hpp **** 
  80:src/../h/riscv.hpp **** };
  81:src/../h/riscv.hpp **** 
  82:src/../h/riscv.hpp **** inline uint64 RiscV::readScause() {
  83:src/../h/riscv.hpp ****     uint64 volatile scause;
  84:src/../h/riscv.hpp ****     asm volatile("csrr %[scause], scause": [scause] "=r" (scause));
  85:src/../h/riscv.hpp ****     return scause;
  86:src/../h/riscv.hpp **** }
  87:src/../h/riscv.hpp **** 
  88:src/../h/riscv.hpp **** inline void RiscV::writeScause(uint64 scause) {
  89:src/../h/riscv.hpp ****     asm volatile("csrw scause, %[scause]":: [scause] "r" (scause));
  90:src/../h/riscv.hpp **** }
  91:src/../h/riscv.hpp **** 
  92:src/../h/riscv.hpp **** inline uint64 RiscV::readSepc() {
  93:src/../h/riscv.hpp ****     uint64 volatile sepc;
  94:src/../h/riscv.hpp ****     asm volatile("csrr %[sepc], sepc": [sepc] "=r" (sepc));
  95:src/../h/riscv.hpp ****     return sepc;
  96:src/../h/riscv.hpp **** }
  97:src/../h/riscv.hpp **** 
  98:src/../h/riscv.hpp **** inline void RiscV::writeSepc(uint64 sepc) {
  99:src/../h/riscv.hpp ****     asm volatile("csrw sepc, %[sepc]":: [sepc] "r" (sepc));
 100:src/../h/riscv.hpp **** }
 101:src/../h/riscv.hpp **** 
 102:src/../h/riscv.hpp **** inline uint64 RiscV::readStvec() {
 103:src/../h/riscv.hpp ****     uint64 volatile stvec;
 104:src/../h/riscv.hpp ****     asm volatile("csrr %[stvec], stvec": [stvec] "=r" (stvec));
 105:src/../h/riscv.hpp ****     return stvec;
 106:src/../h/riscv.hpp **** }
 107:src/../h/riscv.hpp **** 
 108:src/../h/riscv.hpp **** inline void RiscV::writeStvec(uint64 stvec) {
 109:src/../h/riscv.hpp ****     asm volatile("csrw stvec, %[stvec]":: [stvec] "r" (stvec));
  33              		.loc 2 109 5 is_stmt 1
  34              		.loc 2 109 63 is_stmt 0
  35              	#APP
  36              	# 109 "src/../h/riscv.hpp" 1
 110              	}
  37              		csrw stvec, a5
  38              	# 0 "" 2
  39              	.LVL2:
  40              	#NO_APP
  41              	.LBE73:
  42              	.LBE72:
  18:src/kernel.cpp **** 
GAS LISTING /tmp/cchpxuxe.s 			page 4


  19:src/kernel.cpp ****     Uart::initUart();
  43              		.loc 1 19 5 is_stmt 1
  44              		.loc 1 19 19 is_stmt 0
  45 0024 97000000 		call	_ZN4Uart8initUartEv@plt
  45      E7800000 
  46              	.LVL3:
  20:src/kernel.cpp ****     //RiscV::setSstatus(RiscV::SIE);
  21:src/kernel.cpp **** }
  47              		.loc 1 21 1
  48 002c 83308100 		ld	ra,8(sp)
  49              		.cfi_restore 1
  50 0030 03340100 		ld	s0,0(sp)
  51              		.cfi_restore 8
  52              		.cfi_def_cfa 2, 16
  53 0034 13010101 		addi	sp,sp,16
  54              		.cfi_def_cfa_offset 0
  55 0038 67800000 		jr	ra
  56              		.cfi_endproc
  57              	.LFE73:
  59              		.section	.rodata.str1.8,"aMS",@progbits,1
  60              		.align	3
  61              	.LC0:
  62 0000 72780A00 		.string	"rx\n"
  63              		.text
  64              		.align	2
  65              		.globl	_ZN6Kernel12uart_handlerEv
  67              	_ZN6Kernel12uart_handlerEv:
  68              	.LFB76:
  22:src/kernel.cpp **** 
  23:src/kernel.cpp **** void Kernel::supervisorTrapHandler() {
  24:src/kernel.cpp ****     uint64 scause = RiscV::readScause();
  25:src/kernel.cpp **** 
  26:src/kernel.cpp ****     if (scause == USER_SYSCALL || scause == SUPERVISOR_SYSCALL) {
  27:src/kernel.cpp ****         uint64 sepc = RiscV::readSepc() + 4;
  28:src/kernel.cpp ****         uint64 sstatus = RiscV::readSstatus();
  29:src/kernel.cpp **** 
  30:src/kernel.cpp ****         syscall_handler();
  31:src/kernel.cpp **** 
  32:src/kernel.cpp ****         asm volatile ("sd a0, 80(s0)");
  33:src/kernel.cpp ****         RiscV::writeSstatus(sstatus);
  34:src/kernel.cpp ****         RiscV::writeSepc(sepc);
  35:src/kernel.cpp ****         RiscV::clearSip(RiscV::SSIP);
  36:src/kernel.cpp ****         return;
  37:src/kernel.cpp ****     }
  38:src/kernel.cpp ****     if (scause == TIMER_IRQ) {
  39:src/kernel.cpp ****         //__print_string("timer\n");
  40:src/kernel.cpp ****         if (!TCB::running) { RiscV::clearSip(RiscV::SSIP); return; }
  41:src/kernel.cpp ****         Scheduler::timerInterrupt();
  42:src/kernel.cpp ****         TCB::incTimeSliceCounter();
  43:src/kernel.cpp ****         if (TCB::getTimeSliceCounter() >= TCB::running->getTimeSlice())
  44:src/kernel.cpp ****         {
  45:src/kernel.cpp ****             uint64 sepc = RiscV::readSepc();
  46:src/kernel.cpp ****             uint64 sstatus = RiscV::readSstatus();
  47:src/kernel.cpp ****             TCB::resetTimeSliceCounter();
  48:src/kernel.cpp ****             TCB::dispatch();
  49:src/kernel.cpp ****             RiscV::writeSstatus(sstatus);
  50:src/kernel.cpp ****             RiscV::writeSepc(sepc);
GAS LISTING /tmp/cchpxuxe.s 			page 5


  51:src/kernel.cpp ****         }
  52:src/kernel.cpp ****         RiscV::clearSip(RiscV::SSIP);
  53:src/kernel.cpp ****         return;
  54:src/kernel.cpp ****     }
  55:src/kernel.cpp ****     if (scause == HARDWARE_IRQ) {
  56:src/kernel.cpp ****         //console_handler();
  57:src/kernel.cpp ****         //ConsoleInterface::console_handler();
  58:src/kernel.cpp ****         hw_irq_handler();
  59:src/kernel.cpp ****         RiscV::clearSip(RiscV::SEIP);
  60:src/kernel.cpp ****         return;
  61:src/kernel.cpp ****     }
  62:src/kernel.cpp **** 
  63:src/kernel.cpp ****     uint64 sepc = RiscV::readSepc();
  64:src/kernel.cpp ****     __print_string("Neobradjen izuzetak.\n");
  65:src/kernel.cpp ****     __print_string("scause: ");
  66:src/kernel.cpp ****     __print_uint64(scause);
  67:src/kernel.cpp ****     Uart::txPut('\n');
  68:src/kernel.cpp ****     __print_string("sepc: ");
  69:src/kernel.cpp ****     __print_uint64(sepc);
  70:src/kernel.cpp ****     Uart::txPut('\n');
  71:src/kernel.cpp ****     //riscV::clearSip(RiscV::SSIP);
  72:src/kernel.cpp ****     RiscV::writeSepc(sepc);
  73:src/kernel.cpp ****     return;
  74:src/kernel.cpp **** }
  75:src/kernel.cpp **** 
  76:src/kernel.cpp **** void Kernel::hw_irq_handler() {
  77:src/kernel.cpp ****     //int hw_irq_id = plic_claim();
  78:src/kernel.cpp **** 
  79:src/kernel.cpp ****     //__print_string("hw\n");
  80:src/kernel.cpp ****     uart_handler();
  81:src/kernel.cpp ****     //plic_complete(hw_irq_id);
  82:src/kernel.cpp ****     /*switch (hw_irq_id) {
  83:src/kernel.cpp ****         case 10:
  84:src/kernel.cpp ****             //uart_handler();
  85:src/kernel.cpp ****             console_handler();
  86:src/kernel.cpp ****             //break;
  87:src/kernel.cpp ****         default:
  88:src/kernel.cpp ****             plic_complete(hw_irq_id);
  89:src/kernel.cpp ****             break;
  90:src/kernel.cpp ****     }*/
  91:src/kernel.cpp **** }
  92:src/kernel.cpp **** 
  93:src/kernel.cpp **** //0x0a - hardware
  94:src/kernel.cpp **** void Kernel::uart_handler() {
  69              		.loc 1 94 29 is_stmt 1
  70              		.cfi_startproc
  71 003c 130101FE 		addi	sp,sp,-32
  72              		.cfi_def_cfa_offset 32
  73 0040 233C1100 		sd	ra,24(sp)
  74 0044 23388100 		sd	s0,16(sp)
  75 0048 23349100 		sd	s1,8(sp)
  76              		.cfi_offset 1, -8
  77              		.cfi_offset 8, -16
  78              		.cfi_offset 9, -24
  79 004c 13040102 		addi	s0,sp,32
  80              		.cfi_def_cfa 8, 0
  95:src/kernel.cpp ****     int id = plic_claim();
GAS LISTING /tmp/cchpxuxe.s 			page 6


  81              		.loc 1 95 5
  82              		.loc 1 95 24 is_stmt 0
  83 0050 97000000 		call	plic_claim@plt
  83      E7800000 
  84              	.LVL4:
  85 0058 93040500 		mv	s1,a0
  86              	.LVL5:
  96:src/kernel.cpp ****     //__print_string("handle_uart\n");
  97:src/kernel.cpp ****     if (id == 0x0a) {
  87              		.loc 1 97 5 is_stmt 1
  88 005c 9307A000 		li	a5,10
  89 0060 6302F502 		beq	a0,a5,.L5
  90              	.LVL6:
  91              	.L4:
  98:src/kernel.cpp ****         //__print_string("handle_uart\n");
  99:src/kernel.cpp ****         /*if (Uart::getStatus() & Uart::TX) {
 100:src/kernel.cpp ****             //__print_string("tx\n");
 101:src/kernel.cpp ****             Uart::txSignal();
 102:src/kernel.cpp ****         }*/
 103:src/kernel.cpp ****         //if (uart->getStatus() & Uart::RX) uart->rxSignal();
 104:src/kernel.cpp ****         while (Uart::getStatus() & Uart::RX) {
 105:src/kernel.cpp ****             __print_string("rx\n");
 106:src/kernel.cpp ****             if(Uart::rxReceive() < 0) break;
 107:src/kernel.cpp ****             //plic_complete(id);
 108:src/kernel.cpp ****         }
 109:src/kernel.cpp ****     }
 110:src/kernel.cpp ****     plic_complete(id);
  92              		.loc 1 110 5
  93              		.loc 1 110 18 is_stmt 0
  94 0064 13850400 		mv	a0,s1
  95 0068 97000000 		call	plic_complete@plt
  95      E7800000 
  96              	.LVL7:
 111:src/kernel.cpp **** }
  97              		.loc 1 111 1
  98 0070 83308101 		ld	ra,24(sp)
  99              		.cfi_remember_state
 100              		.cfi_restore 1
 101 0074 03340101 		ld	s0,16(sp)
 102              		.cfi_restore 8
 103              		.cfi_def_cfa 2, 32
 104 0078 83348100 		ld	s1,8(sp)
 105              		.cfi_restore 9
 106 007c 13010102 		addi	sp,sp,32
 107              		.cfi_def_cfa_offset 0
 108 0080 67800000 		jr	ra
 109              	.L5:
 110              		.cfi_restore_state
 104:src/kernel.cpp ****             __print_string("rx\n");
 111              		.loc 1 104 9 is_stmt 1
 104:src/kernel.cpp ****             __print_string("rx\n");
 112              		.loc 1 104 42
 104:src/kernel.cpp ****             __print_string("rx\n");
 113              		.loc 1 104 31 is_stmt 0
 114 0084 97000000 		call	_ZN4Uart9getStatusEv@plt
 114      E7800000 
 115              	.LVL8:
GAS LISTING /tmp/cchpxuxe.s 			page 7


 104:src/kernel.cpp ****             __print_string("rx\n");
 116              		.loc 1 104 42
 117 008c 93771500 		andi	a5,a0,1
 118 0090 E38A07FC 		beqz	a5,.L4
 105:src/kernel.cpp ****             if(Uart::rxReceive() < 0) break;
 119              		.loc 1 105 13 is_stmt 1
 105:src/kernel.cpp ****             if(Uart::rxReceive() < 0) break;
 120              		.loc 1 105 27 is_stmt 0
 121 0094 17050000 		lla	a0,.LC0
 121      13050500 
 122 009c 97000000 		call	_Z14__print_stringPKc@plt
 122      E7800000 
 123              	.LVL9:
 106:src/kernel.cpp ****             //plic_complete(id);
 124              		.loc 1 106 13 is_stmt 1
 106:src/kernel.cpp ****             //plic_complete(id);
 125              		.loc 1 106 31 is_stmt 0
 126 00a4 97000000 		call	_ZN4Uart9rxReceiveEv@plt
 126      E7800000 
 127              	.LVL10:
 128 00ac 6FF09FFD 		j	.L5
 129              		.cfi_endproc
 130              	.LFE76:
 132              		.align	2
 133              		.globl	_ZN6Kernel14hw_irq_handlerEv
 135              	_ZN6Kernel14hw_irq_handlerEv:
 136              	.LFB75:
  76:src/kernel.cpp ****     //int hw_irq_id = plic_claim();
 137              		.loc 1 76 31 is_stmt 1
 138              		.cfi_startproc
 139 00b0 130101FF 		addi	sp,sp,-16
 140              		.cfi_def_cfa_offset 16
 141 00b4 23341100 		sd	ra,8(sp)
 142 00b8 23308100 		sd	s0,0(sp)
 143              		.cfi_offset 1, -8
 144              		.cfi_offset 8, -16
 145 00bc 13040101 		addi	s0,sp,16
 146              		.cfi_def_cfa 8, 0
  80:src/kernel.cpp ****     //plic_complete(hw_irq_id);
 147              		.loc 1 80 5
  80:src/kernel.cpp ****     //plic_complete(hw_irq_id);
 148              		.loc 1 80 17 is_stmt 0
 149 00c0 97000000 		call	_ZN6Kernel12uart_handlerEv
 149      E7800000 
 150              	.LVL11:
  91:src/kernel.cpp **** 
 151              		.loc 1 91 1
 152 00c8 83308100 		ld	ra,8(sp)
 153              		.cfi_restore 1
 154 00cc 03340100 		ld	s0,0(sp)
 155              		.cfi_restore 8
 156              		.cfi_def_cfa 2, 16
 157 00d0 13010101 		addi	sp,sp,16
 158              		.cfi_def_cfa_offset 0
 159 00d4 67800000 		jr	ra
 160              		.cfi_endproc
 161              	.LFE75:
GAS LISTING /tmp/cchpxuxe.s 			page 8


 163              		.section	.rodata.str1.8
 164 0004 00000000 		.align	3
 165              	.LC1:
 166 0008 4572726F 		.string	"Error: Invalid syscall id!"
 166      723A2049 
 166      6E76616C 
 166      69642073 
 166      79736361 
 167 0023 00000000 		.align	3
 167      00
 168              	.LC2:
 169 0028 4E656F62 		.string	"Neobradjen izuzetak.\n"
 169      7261646A 
 169      656E2069 
 169      7A757A65 
 169      74616B2E 
 170 003e 0000     		.align	3
 171              	.LC3:
 172 0040 73636175 		.string	"scause: "
 172      73653A20 
 172      00
 173 0049 00000000 		.align	3
 173      000000
 174              	.LC4:
 175 0050 73657063 		.string	"sepc: "
 175      3A2000
 176              		.text
 177              		.align	2
 178              		.globl	_ZN6Kernel21supervisorTrapHandlerEv
 180              	_ZN6Kernel21supervisorTrapHandlerEv:
 181              	.LFB74:
  23:src/kernel.cpp ****     uint64 scause = RiscV::readScause();
 182              		.loc 1 23 38 is_stmt 1
 183              		.cfi_startproc
 184 00d8 130101F1 		addi	sp,sp,-240
 185              		.cfi_def_cfa_offset 240
 186 00dc 2334110E 		sd	ra,232(sp)
 187 00e0 2330810E 		sd	s0,224(sp)
 188 00e4 233C910C 		sd	s1,216(sp)
 189 00e8 2338210D 		sd	s2,208(sp)
 190 00ec 2334310D 		sd	s3,200(sp)
 191              		.cfi_offset 1, -8
 192              		.cfi_offset 8, -16
 193              		.cfi_offset 9, -24
 194              		.cfi_offset 18, -32
 195              		.cfi_offset 19, -40
 196 00f0 1304010F 		addi	s0,sp,240
 197              		.cfi_def_cfa 8, 0
  24:src/kernel.cpp **** 
 198              		.loc 1 24 5
 199              	.LBB148:
 200              	.LBB149:
  83:src/../h/riscv.hpp ****     asm volatile("csrr %[scause], scause": [scause] "=r" (scause));
 201              		.loc 2 83 5
  84:src/../h/riscv.hpp ****     return scause;
 202              		.loc 2 84 5
  84:src/../h/riscv.hpp ****     return scause;
GAS LISTING /tmp/cchpxuxe.s 			page 9


 203              		.loc 2 84 67 is_stmt 0
 204              	#APP
 205              	# 84 "src/../h/riscv.hpp" 1
 206              		csrr a5, scause
 207              	# 0 "" 2
 208              	#NO_APP
 209 00f8 233CF4F0 		sd	a5,-232(s0)
  85:src/../h/riscv.hpp **** }
 210              		.loc 2 85 5 is_stmt 1
  85:src/../h/riscv.hpp **** }
 211              		.loc 2 85 12 is_stmt 0
 212 00fc 833484F1 		ld	s1,-232(s0)
 213              	.LVL12:
 214              	.LBE149:
 215              	.LBE148:
  26:src/kernel.cpp ****         uint64 sepc = RiscV::readSepc() + 4;
 216              		.loc 1 26 5 is_stmt 1
 217              	.LBB150:
  26:src/kernel.cpp ****         uint64 sepc = RiscV::readSepc() + 4;
 218              		.loc 1 26 32 is_stmt 0
 219 0100 138784FF 		addi	a4,s1,-8
  26:src/kernel.cpp ****         uint64 sepc = RiscV::readSepc() + 4;
 220              		.loc 1 26 5
 221 0104 93071000 		li	a5,1
 222 0108 63F8E70A 		bleu	a4,a5,.L37
 223              	.LBE150:
  38:src/kernel.cpp ****         //__print_string("timer\n");
 224              		.loc 1 38 5 is_stmt 1
 225              	.LBB196:
 226 010c 9307F0FF 		li	a5,-1
 227 0110 9397F703 		slli	a5,a5,63
 228 0114 93871700 		addi	a5,a5,1
 229 0118 638CF42E 		beq	s1,a5,.L38
 230              	.LBE196:
  55:src/kernel.cpp ****         //console_handler();
 231              		.loc 1 55 5
 232 011c 9307F0FF 		li	a5,-1
 233 0120 9397F703 		slli	a5,a5,63
 234 0124 93879700 		addi	a5,a5,9
 235 0128 638CF436 		beq	s1,a5,.L39
  63:src/kernel.cpp ****     __print_string("Neobradjen izuzetak.\n");
 236              		.loc 1 63 5
 237              	.LBB220:
 238              	.LBB221:
  93:src/../h/riscv.hpp ****     asm volatile("csrr %[sepc], sepc": [sepc] "=r" (sepc));
 239              		.loc 2 93 5
  94:src/../h/riscv.hpp ****     return sepc;
 240              		.loc 2 94 5
  94:src/../h/riscv.hpp ****     return sepc;
 241              		.loc 2 94 59 is_stmt 0
 242              	#APP
 243              	# 94 "src/../h/riscv.hpp" 1
 244              		csrr a5, sepc
 245              	# 0 "" 2
 246              	#NO_APP
 247 0130 2330F4F4 		sd	a5,-192(s0)
  95:src/../h/riscv.hpp **** }
GAS LISTING /tmp/cchpxuxe.s 			page 10


 248              		.loc 2 95 5 is_stmt 1
  95:src/../h/riscv.hpp **** }
 249              		.loc 2 95 12 is_stmt 0
 250 0134 033904F4 		ld	s2,-192(s0)
 251              	.LVL13:
 252              	.LBE221:
 253              	.LBE220:
  64:src/kernel.cpp ****     __print_string("scause: ");
 254              		.loc 1 64 5 is_stmt 1
  64:src/kernel.cpp ****     __print_string("scause: ");
 255              		.loc 1 64 19 is_stmt 0
 256 0138 17050000 		lla	a0,.LC2
 256      13050500 
 257 0140 97000000 		call	_Z14__print_stringPKc@plt
 257      E7800000 
 258              	.LVL14:
  65:src/kernel.cpp ****     __print_uint64(scause);
 259              		.loc 1 65 5 is_stmt 1
  65:src/kernel.cpp ****     __print_uint64(scause);
 260              		.loc 1 65 19 is_stmt 0
 261 0148 17050000 		lla	a0,.LC3
 261      13050500 
 262 0150 97000000 		call	_Z14__print_stringPKc@plt
 262      E7800000 
 263              	.LVL15:
  66:src/kernel.cpp ****     Uart::txPut('\n');
 264              		.loc 1 66 5 is_stmt 1
  66:src/kernel.cpp ****     Uart::txPut('\n');
 265              		.loc 1 66 19 is_stmt 0
 266 0158 13850400 		mv	a0,s1
 267 015c 97000000 		call	_Z14__print_uint64m@plt
 267      E7800000 
 268              	.LVL16:
  67:src/kernel.cpp ****     __print_string("sepc: ");
 269              		.loc 1 67 5 is_stmt 1
  67:src/kernel.cpp ****     __print_string("sepc: ");
 270              		.loc 1 67 16 is_stmt 0
 271 0164 1305A000 		li	a0,10
 272 0168 97000000 		call	_ZN4Uart5txPutEc@plt
 272      E7800000 
 273              	.LVL17:
  68:src/kernel.cpp ****     __print_uint64(sepc);
 274              		.loc 1 68 5 is_stmt 1
  68:src/kernel.cpp ****     __print_uint64(sepc);
 275              		.loc 1 68 19 is_stmt 0
 276 0170 17050000 		lla	a0,.LC4
 276      13050500 
 277 0178 97000000 		call	_Z14__print_stringPKc@plt
 277      E7800000 
 278              	.LVL18:
  69:src/kernel.cpp ****     Uart::txPut('\n');
 279              		.loc 1 69 5 is_stmt 1
  69:src/kernel.cpp ****     Uart::txPut('\n');
 280              		.loc 1 69 19 is_stmt 0
 281 0180 13050900 		mv	a0,s2
 282 0184 97000000 		call	_Z14__print_uint64m@plt
 282      E7800000 
GAS LISTING /tmp/cchpxuxe.s 			page 11


 283              	.LVL19:
  70:src/kernel.cpp ****     //riscV::clearSip(RiscV::SSIP);
 284              		.loc 1 70 5 is_stmt 1
  70:src/kernel.cpp ****     //riscV::clearSip(RiscV::SSIP);
 285              		.loc 1 70 16 is_stmt 0
 286 018c 1305A000 		li	a0,10
 287 0190 97000000 		call	_ZN4Uart5txPutEc@plt
 287      E7800000 
 288              	.LVL20:
  72:src/kernel.cpp ****     return;
 289              		.loc 1 72 5 is_stmt 1
 290              	.LBB222:
 291              	.LBB223:
  99:src/../h/riscv.hpp **** }
 292              		.loc 2 99 5
  99:src/../h/riscv.hpp **** }
 293              		.loc 2 99 59 is_stmt 0
 294              	#APP
 295              	# 99 "src/../h/riscv.hpp" 1
 296              		csrw sepc, s2
 297              	# 0 "" 2
 298              	.LVL21:
 299              	#NO_APP
 300              	.L9:
 301              	.LBE223:
 302              	.LBE222:
  74:src/kernel.cpp **** 
 303              		.loc 1 74 1
 304 019c 8330810E 		ld	ra,232(sp)
 305              		.cfi_remember_state
 306              		.cfi_restore 1
 307 01a0 0334010E 		ld	s0,224(sp)
 308              		.cfi_restore 8
 309              		.cfi_def_cfa 2, 240
 310 01a4 8334810D 		ld	s1,216(sp)
 311              		.cfi_restore 9
 312 01a8 0339010D 		ld	s2,208(sp)
 313              		.cfi_restore 18
 314 01ac 8339810C 		ld	s3,200(sp)
 315              		.cfi_restore 19
 316 01b0 1301010F 		addi	sp,sp,240
 317              		.cfi_def_cfa_offset 0
 318 01b4 67800000 		jr	ra
 319              	.LVL22:
 320              	.L37:
 321              		.cfi_restore_state
 322              	.LBB224:
 323              	.LBB151:
  27:src/kernel.cpp ****         uint64 sstatus = RiscV::readSstatus();
 324              		.loc 1 27 9 is_stmt 1
 325              	.LBB152:
 326              	.LBB153:
  93:src/../h/riscv.hpp ****     asm volatile("csrr %[sepc], sepc": [sepc] "=r" (sepc));
 327              		.loc 2 93 5
  94:src/../h/riscv.hpp ****     return sepc;
 328              		.loc 2 94 5
  94:src/../h/riscv.hpp ****     return sepc;
GAS LISTING /tmp/cchpxuxe.s 			page 12


 329              		.loc 2 94 59 is_stmt 0
 330              	#APP
 331              	# 94 "src/../h/riscv.hpp" 1
 332              		csrr a5, sepc
 333              	# 0 "" 2
 334              	#NO_APP
 335 01bc 2334F4F2 		sd	a5,-216(s0)
  95:src/../h/riscv.hpp **** }
 336              		.loc 2 95 5 is_stmt 1
  95:src/../h/riscv.hpp **** }
 337              		.loc 2 95 12 is_stmt 0
 338 01c0 833484F2 		ld	s1,-216(s0)
 339              	.LVL23:
 340              	.LBE153:
 341              	.LBE152:
  27:src/kernel.cpp ****         uint64 sstatus = RiscV::readSstatus();
 342              		.loc 1 27 43
 343 01c4 93844400 		addi	s1,s1,4
 344              	.LVL24:
  28:src/kernel.cpp **** 
 345              		.loc 1 28 9 is_stmt 1
 346              	.LBB154:
 347              	.LBB155:
 111:src/../h/riscv.hpp **** 
 112:src/../h/riscv.hpp **** inline void RiscV::setSstatus(uint64 mask) {
 113:src/../h/riscv.hpp ****     asm volatile("csrs sstatus, %[mask]":: [mask] "r" (mask));
 114:src/../h/riscv.hpp **** }
 115:src/../h/riscv.hpp **** 
 116:src/../h/riscv.hpp **** inline void RiscV::clearSstatus(uint64 mask) {
 117:src/../h/riscv.hpp ****     asm volatile("csrc sstatus, %[mask]":: [mask] "r" (mask));
 118:src/../h/riscv.hpp **** }
 119:src/../h/riscv.hpp **** 
 120:src/../h/riscv.hpp **** inline uint64 RiscV::readSstatus() {
 121:src/../h/riscv.hpp ****     uint64 volatile sstatus;
 348              		.loc 2 121 5
 122:src/../h/riscv.hpp ****     asm volatile("csrr %[sstatus], sstatus": [sstatus] "=r" (sstatus));
 349              		.loc 2 122 5
 350              		.loc 2 122 71 is_stmt 0
 351              	#APP
 352              	# 122 "src/../h/riscv.hpp" 1
 123              	    return sstatus;
 353              		csrr a5, sstatus
 354              	# 0 "" 2
 355              	#NO_APP
 356 01cc 2330F4F2 		sd	a5,-224(s0)
 357              		.loc 2 123 5 is_stmt 1
 358              		.loc 2 123 12 is_stmt 0
 359 01d0 033904F2 		ld	s2,-224(s0)
 360              	.LVL25:
 361              	.LBE155:
 362              	.LBE154:
  30:src/kernel.cpp **** 
 363              		.loc 1 30 9 is_stmt 1
 364              	.LBB156:
 365              	.LBB157:
 366              		.file 3 "src/../h/kernel.hpp"
   1:src/../h/kernel.hpp **** //
GAS LISTING /tmp/cchpxuxe.s 			page 13


   2:src/../h/kernel.hpp **** // Created by os on 9/6/22.
   3:src/../h/kernel.hpp **** //
   4:src/../h/kernel.hpp **** 
   5:src/../h/kernel.hpp **** #ifndef OSMIUM_KERNEL_HPP
   6:src/../h/kernel.hpp **** #define OSMIUM_KERNEL_HPP
   7:src/../h/kernel.hpp **** 
   8:src/../h/kernel.hpp **** #include "../lib/hw.h"
   9:src/../h/kernel.hpp **** #include "../lib/console.h"
  10:src/../h/kernel.hpp **** 
  11:src/../h/kernel.hpp **** #include "memory_allocator.hpp"
  12:src/../h/kernel.hpp **** #include "tcb.hpp"
  13:src/../h/kernel.hpp **** //#include "sem.hpp"
  14:src/../h/kernel.hpp **** #include "uart.hpp"
  15:src/../h/kernel.hpp **** 
  16:src/../h/kernel.hpp **** class Kernel {
  17:src/../h/kernel.hpp **** public:
  18:src/../h/kernel.hpp ****     static constexpr uint64 USER_SYSCALL = 0x0000000000000008UL;
  19:src/../h/kernel.hpp ****     static constexpr uint64 SUPERVISOR_SYSCALL = 0x0000000000000009UL;
  20:src/../h/kernel.hpp ****     static constexpr uint64 HARDWARE_IRQ = 0x8000000000000009UL;
  21:src/../h/kernel.hpp ****     static constexpr uint64 TIMER_IRQ = 0x8000000000000001UL;
  22:src/../h/kernel.hpp **** 
  23:src/../h/kernel.hpp ****     static void initKernel();
  24:src/../h/kernel.hpp ****     static void supervisorTrap();
  25:src/../h/kernel.hpp **** private:
  26:src/../h/kernel.hpp ****     /* supervisor Trap routines */
  27:src/../h/kernel.hpp ****     static void supervisorTrapHandler();
  28:src/../h/kernel.hpp ****     static void syscall_handler();
  29:src/../h/kernel.hpp ****     static void hw_irq_handler();
  30:src/../h/kernel.hpp **** 
  31:src/../h/kernel.hpp ****     /* software syscall_c handlers */
  32:src/../h/kernel.hpp ****     static void mem_alloc_handler();                    //0x01
  33:src/../h/kernel.hpp ****     static void mem_free_handler();                     //0x02
  34:src/../h/kernel.hpp ****     static void thread_create_handler();                //0x11
  35:src/../h/kernel.hpp ****     static void thread_exit_handler();                  //0x12
  36:src/../h/kernel.hpp ****     static void thread_dispatch_handler();              //0x13
  37:src/../h/kernel.hpp ****     static void thread_create_deactivated_handler();    //0x14
  38:src/../h/kernel.hpp ****     static void sem_open_handler();                     //0x21
  39:src/../h/kernel.hpp ****     static void sem_close_handler();                    //0x22
  40:src/../h/kernel.hpp ****     static void sem_wait_handler();                     //0x23
  41:src/../h/kernel.hpp ****     static void sem_signal_handler();                   //0x24
  42:src/../h/kernel.hpp ****     static void time_sleep_handler();                   //0x31
  43:src/../h/kernel.hpp ****     static void getc_handler();                         //0x41
  44:src/../h/kernel.hpp ****     static void putc_handler();                         //0x42
  45:src/../h/kernel.hpp **** 
  46:src/../h/kernel.hpp ****     /* hardware interrupt handlers */
  47:src/../h/kernel.hpp ****     static void uart_handler();                         //0x0a
  48:src/../h/kernel.hpp **** 
  49:src/../h/kernel.hpp ****     //private fields
  50:src/../h/kernel.hpp ****     //TODO:
  51:src/../h/kernel.hpp **** };
  52:src/../h/kernel.hpp **** 
  53:src/../h/kernel.hpp **** inline void Kernel::syscall_handler() {
  54:src/../h/kernel.hpp ****     //uint64 sepc = RiscV::readSepc();
  55:src/../h/kernel.hpp ****     volatile uint64 syscall_id;
 367              		.loc 3 55 5
  56:src/../h/kernel.hpp ****     asm volatile ("mv %[syscall_id], a7": [syscall_id] "=r" (syscall_id));
 368              		.loc 3 56 5
GAS LISTING /tmp/cchpxuxe.s 			page 14


 369              		.loc 3 56 74 is_stmt 0
 370              	#APP
 371              	# 56 "src/../h/kernel.hpp" 1
  57              	
 372              		mv a5, a7
 373              	# 0 "" 2
 374              	#NO_APP
 375 01d8 2334F4F4 		sd	a5,-184(s0)
  58:src/../h/kernel.hpp ****     //volatile uint64 arg0, arg1, arg2, temp;
  59:src/../h/kernel.hpp ****     switch(syscall_id) {
 376              		.loc 3 59 5 is_stmt 1
 377              		.loc 3 59 12 is_stmt 0
 378 01dc 833784F4 		ld	a5,-184(s0)
 379 01e0 13072004 		li	a4,66
 380              	.LVL26:
 381 01e4 636AF720 		bgtu	a5,a4,.L11
 382 01e8 93972700 		slli	a5,a5,2
 383 01ec 17070000 		lla	a4,.L13
 383      13070700 
 384 01f4 B387E700 		add	a5,a5,a4
 385 01f8 83A70700 		lw	a5,0(a5)
 386 01fc B387E700 		add	a5,a5,a4
 387 0200 67800700 		jr	a5
 388              		.section	.rodata
 389              		.align	2
 390              		.align	2
 391              	.L13:
 392 0000 00000000 		.word	.L11-.L13
 393 0004 00000000 		.word	.L25-.L13
 394 0008 00000000 		.word	.L24-.L13
 395 000c 00000000 		.word	.L11-.L13
 396 0010 00000000 		.word	.L11-.L13
 397 0014 00000000 		.word	.L11-.L13
 398 0018 00000000 		.word	.L11-.L13
 399 001c 00000000 		.word	.L11-.L13
 400 0020 00000000 		.word	.L11-.L13
 401 0024 00000000 		.word	.L11-.L13
 402 0028 00000000 		.word	.L11-.L13
 403 002c 00000000 		.word	.L11-.L13
 404 0030 00000000 		.word	.L11-.L13
 405 0034 00000000 		.word	.L11-.L13
 406 0038 00000000 		.word	.L11-.L13
 407 003c 00000000 		.word	.L11-.L13
 408 0040 00000000 		.word	.L11-.L13
 409 0044 00000000 		.word	.L23-.L13
 410 0048 00000000 		.word	.L22-.L13
 411 004c 00000000 		.word	.L21-.L13
 412 0050 00000000 		.word	.L20-.L13
 413 0054 00000000 		.word	.L11-.L13
 414 0058 00000000 		.word	.L11-.L13
 415 005c 00000000 		.word	.L11-.L13
 416 0060 00000000 		.word	.L11-.L13
 417 0064 00000000 		.word	.L11-.L13
 418 0068 00000000 		.word	.L11-.L13
 419 006c 00000000 		.word	.L11-.L13
 420 0070 00000000 		.word	.L11-.L13
 421 0074 00000000 		.word	.L11-.L13
GAS LISTING /tmp/cchpxuxe.s 			page 15


 422 0078 00000000 		.word	.L11-.L13
 423 007c 00000000 		.word	.L11-.L13
 424 0080 00000000 		.word	.L11-.L13
 425 0084 00000000 		.word	.L19-.L13
 426 0088 00000000 		.word	.L18-.L13
 427 008c 00000000 		.word	.L17-.L13
 428 0090 00000000 		.word	.L16-.L13
 429 0094 00000000 		.word	.L11-.L13
 430 0098 00000000 		.word	.L11-.L13
 431 009c 00000000 		.word	.L11-.L13
 432 00a0 00000000 		.word	.L11-.L13
 433 00a4 00000000 		.word	.L11-.L13
 434 00a8 00000000 		.word	.L11-.L13
 435 00ac 00000000 		.word	.L11-.L13
 436 00b0 00000000 		.word	.L11-.L13
 437 00b4 00000000 		.word	.L11-.L13
 438 00b8 00000000 		.word	.L11-.L13
 439 00bc 00000000 		.word	.L11-.L13
 440 00c0 00000000 		.word	.L11-.L13
 441 00c4 00000000 		.word	.L15-.L13
 442 00c8 00000000 		.word	.L11-.L13
 443 00cc 00000000 		.word	.L11-.L13
 444 00d0 00000000 		.word	.L11-.L13
 445 00d4 00000000 		.word	.L11-.L13
 446 00d8 00000000 		.word	.L11-.L13
 447 00dc 00000000 		.word	.L11-.L13
 448 00e0 00000000 		.word	.L11-.L13
 449 00e4 00000000 		.word	.L11-.L13
 450 00e8 00000000 		.word	.L11-.L13
 451 00ec 00000000 		.word	.L11-.L13
 452 00f0 00000000 		.word	.L11-.L13
 453 00f4 00000000 		.word	.L11-.L13
 454 00f8 00000000 		.word	.L11-.L13
 455 00fc 00000000 		.word	.L11-.L13
 456 0100 00000000 		.word	.L11-.L13
 457 0104 00000000 		.word	.L14-.L13
 458 0108 00000000 		.word	.L12-.L13
 459              		.text
 460              	.L25:
  60:src/../h/kernel.hpp ****         case 0x01:
 461              		.loc 3 60 9 is_stmt 1
  61:src/../h/kernel.hpp ****             Kernel::mem_alloc_handler();
 462              		.loc 3 61 13
 463              	.LBB158:
 464              	.LBB159:
  62:src/../h/kernel.hpp ****             break;
  63:src/../h/kernel.hpp ****         case 0x02:
  64:src/../h/kernel.hpp ****             Kernel::mem_free_handler();
  65:src/../h/kernel.hpp ****             break;
  66:src/../h/kernel.hpp ****         case 0x11:
  67:src/../h/kernel.hpp ****             Kernel::thread_create_handler();
  68:src/../h/kernel.hpp ****             break;
  69:src/../h/kernel.hpp ****         case 0x12:
  70:src/../h/kernel.hpp ****             Kernel::thread_exit_handler();
  71:src/../h/kernel.hpp ****             break;
  72:src/../h/kernel.hpp ****         case 0x13:
  73:src/../h/kernel.hpp ****             Kernel::thread_dispatch_handler();
GAS LISTING /tmp/cchpxuxe.s 			page 16


  74:src/../h/kernel.hpp ****             break;
  75:src/../h/kernel.hpp ****         case 0x14:
  76:src/../h/kernel.hpp ****             Kernel::thread_create_deactivated_handler();
  77:src/../h/kernel.hpp ****             break;
  78:src/../h/kernel.hpp ****         case 0x21:
  79:src/../h/kernel.hpp ****             Kernel::sem_open_handler();
  80:src/../h/kernel.hpp ****             break;
  81:src/../h/kernel.hpp ****         case 0x22:
  82:src/../h/kernel.hpp ****             Kernel::sem_close_handler();
  83:src/../h/kernel.hpp ****             break;
  84:src/../h/kernel.hpp ****         case 0x23:
  85:src/../h/kernel.hpp ****             Kernel::sem_wait_handler();
  86:src/../h/kernel.hpp ****             break;
  87:src/../h/kernel.hpp ****         case 0x24:
  88:src/../h/kernel.hpp ****             Kernel::sem_signal_handler();
  89:src/../h/kernel.hpp ****             break;
  90:src/../h/kernel.hpp ****         case 0x31:
  91:src/../h/kernel.hpp ****             Kernel::time_sleep_handler();
  92:src/../h/kernel.hpp ****             break;
  93:src/../h/kernel.hpp ****         case 0x41:
  94:src/../h/kernel.hpp ****             Kernel::getc_handler();
  95:src/../h/kernel.hpp ****             break;
  96:src/../h/kernel.hpp ****         case 0x42:
  97:src/../h/kernel.hpp ****             Kernel::putc_handler();
  98:src/../h/kernel.hpp ****             break;
  99:src/../h/kernel.hpp ****         default:
 100:src/../h/kernel.hpp ****             asm volatile ("addi a0, zero, -1");
 101:src/../h/kernel.hpp ****             __print_string("Error: Invalid syscall id!");
 102:src/../h/kernel.hpp ****             break;
 103:src/../h/kernel.hpp ****     }
 104:src/../h/kernel.hpp **** }
 105:src/../h/kernel.hpp **** 
 106:src/../h/kernel.hpp **** //0x01
 107:src/../h/kernel.hpp **** inline void Kernel::mem_alloc_handler() {
 108:src/../h/kernel.hpp ****     volatile uint64 arg0;
 465              		.loc 3 108 5
 109:src/../h/kernel.hpp ****     asm volatile ("mv %[arg0], a0": [arg0] "=r"(arg0));
 466              		.loc 3 109 5
 467              		.loc 3 109 55 is_stmt 0
 468              	#APP
 469              	# 109 "src/../h/kernel.hpp" 1
 110              	    MemoryAllocator::allocate((size_t)arg0);
 470              		mv a5, a0
 471              	# 0 "" 2
 472              	#NO_APP
 473 0208 2330F4F8 		sd	a5,-128(s0)
 474              		.loc 3 110 5 is_stmt 1
 475              		.loc 3 110 30 is_stmt 0
 476 020c 033504F8 		ld	a0,-128(s0)
 477 0210 97000000 		call	_ZN15MemoryAllocator8allocateEm@plt
 477      E7800000 
 478              	.LVL27:
 479              	.L26:
 480              	.LBE159:
 481              	.LBE158:
 482              	.LBE157:
 483              	.LBE156:
GAS LISTING /tmp/cchpxuxe.s 			page 17


  32:src/kernel.cpp ****         RiscV::writeSstatus(sstatus);
 484              		.loc 1 32 9 is_stmt 1
  32:src/kernel.cpp ****         RiscV::writeSstatus(sstatus);
 485              		.loc 1 32 39 is_stmt 0
 486              	#APP
 487              	# 32 "src/kernel.cpp" 1
  33:src/kernel.cpp ****         RiscV::writeSepc(sepc);
 488              		sd a0, 80(s0)
 489              	# 0 "" 2
 490              		.loc 1 33 9 is_stmt 1
 491              	.LVL28:
 492              	#NO_APP
 493              	.LBB189:
 494              	.LBB190:
 124:src/../h/riscv.hpp **** }
 125:src/../h/riscv.hpp **** 
 126:src/../h/riscv.hpp **** inline void RiscV::writeSstatus(uint64 sstatus) {
 127:src/../h/riscv.hpp ****     asm volatile("csrw sstatus, %[sstatus]":: [sstatus] "r" (sstatus));
 495              		.loc 2 127 5
 496              		.loc 2 127 71 is_stmt 0
 497              	#APP
 498              	# 127 "src/../h/riscv.hpp" 1
 128              	}
 499              		csrw sstatus, s2
 500              	# 0 "" 2
 501              	.LVL29:
 502              	#NO_APP
 503              	.LBE190:
 504              	.LBE189:
  34:src/kernel.cpp ****         RiscV::clearSip(RiscV::SSIP);
 505              		.loc 1 34 9 is_stmt 1
 506              	.LBB191:
 507              	.LBB192:
  99:src/../h/riscv.hpp **** }
 508              		.loc 2 99 5
  99:src/../h/riscv.hpp **** }
 509              		.loc 2 99 59 is_stmt 0
 510              	#APP
 511              	# 99 "src/../h/riscv.hpp" 1
 512              		csrw sepc, s1
 513              	# 0 "" 2
 514              	.LVL30:
 515              	#NO_APP
 516              	.LBE192:
 517              	.LBE191:
  35:src/kernel.cpp ****         return;
 518              		.loc 1 35 9 is_stmt 1
 519              	.LBB193:
 520              	.LBB194:
 129:src/../h/riscv.hpp **** 
 130:src/../h/riscv.hpp **** inline void RiscV::setSip(uint64 mask) {
 131:src/../h/riscv.hpp ****     asm volatile("csrs sip, %[mask]":: [mask] "r" (mask));
 132:src/../h/riscv.hpp **** }
 133:src/../h/riscv.hpp **** 
 134:src/../h/riscv.hpp **** inline void RiscV::clearSip(uint64 mask) {
 135:src/../h/riscv.hpp ****     asm volatile("csrc sip, %[mask]":: [mask] "r" (mask));
 521              		.loc 2 135 5
GAS LISTING /tmp/cchpxuxe.s 			page 18


 522              		.loc 2 135 58 is_stmt 0
 523 0224 93072000 		li	a5,2
 524              	#APP
 525              	# 135 "src/../h/riscv.hpp" 1
 136              	}
 526              		csrc sip, a5
 527              	# 0 "" 2
 528              	.LVL31:
 529              	#NO_APP
 530              	.LBE194:
 531              	.LBE193:
  36:src/kernel.cpp ****     }
 532              		.loc 1 36 9 is_stmt 1
 533 022c 6FF01FF7 		j	.L9
 534              	.L24:
 535              	.LBB195:
 536              	.LBB188:
  63:src/../h/kernel.hpp ****             Kernel::mem_free_handler();
 537              		.loc 3 63 9
  64:src/../h/kernel.hpp ****             break;
 538              		.loc 3 64 13
 539              	.LBB160:
 540              	.LBB161:
 111:src/../h/kernel.hpp **** }
 112:src/../h/kernel.hpp **** 
 113:src/../h/kernel.hpp **** //0x02
 114:src/../h/kernel.hpp **** inline void Kernel::mem_free_handler() {
 115:src/../h/kernel.hpp ****     volatile uint64 arg0;
 541              		.loc 3 115 5
 116:src/../h/kernel.hpp ****     asm volatile ("mv %[arg0], a0": [arg0] "=r"(arg0));
 542              		.loc 3 116 5
 543              		.loc 3 116 55 is_stmt 0
 544              	#APP
 545              	# 116 "src/../h/kernel.hpp" 1
 117              	    MemoryAllocator::free((void*)arg0);
 546              		mv a5, a0
 547              	# 0 "" 2
 548              	#NO_APP
 549 0234 233CF4F6 		sd	a5,-136(s0)
 550              		.loc 3 117 5 is_stmt 1
 551              		.loc 3 117 26 is_stmt 0
 552 0238 033584F7 		ld	a0,-136(s0)
 553 023c 97000000 		call	_ZN15MemoryAllocator4freeEPv@plt
 553      E7800000 
 554              	.LVL32:
 118:src/../h/kernel.hpp **** }
 555              		.loc 3 118 1
 556 0244 6FF05FFD 		j	.L26
 557              	.L23:
 558              	.LBE161:
 559              	.LBE160:
  66:src/../h/kernel.hpp ****             Kernel::thread_create_handler();
 560              		.loc 3 66 9 is_stmt 1
  67:src/../h/kernel.hpp ****             break;
 561              		.loc 3 67 13
 562              	.LBB162:
 563              	.LBB163:
GAS LISTING /tmp/cchpxuxe.s 			page 19


 119:src/../h/kernel.hpp **** 
 120:src/../h/kernel.hpp **** //0x11
 121:src/../h/kernel.hpp **** inline void Kernel::thread_create_handler() {
 122:src/../h/kernel.hpp ****     volatile uint64 arg0, arg1, arg2;
 564              		.loc 3 122 5
 123:src/../h/kernel.hpp ****     asm volatile ("mv %[arg0], a0": [arg0] "=r"(arg0));
 565              		.loc 3 123 5
 566              		.loc 3 123 55 is_stmt 0
 567              	#APP
 568              	# 123 "src/../h/kernel.hpp" 1
 124              	    asm volatile ("mv %[arg1], a1": [arg1] "=r"(arg1));
 569              		mv a5, a0
 570              	# 0 "" 2
 571              	#NO_APP
 572 024c 2334F4F8 		sd	a5,-120(s0)
 573              		.loc 3 124 5 is_stmt 1
 574              		.loc 3 124 55 is_stmt 0
 575              	#APP
 576              	# 124 "src/../h/kernel.hpp" 1
 125              	    asm volatile ("mv %[arg2], a2": [arg2] "=r"(arg2));
 577              		mv a5, a1
 578              	# 0 "" 2
 579              	#NO_APP
 580 0254 2338F4F8 		sd	a5,-112(s0)
 581              		.loc 3 125 5 is_stmt 1
 582              		.loc 3 125 55 is_stmt 0
 583              	#APP
 584              	# 125 "src/../h/kernel.hpp" 1
 126              	
 585              		mv a5, a2
 586              	# 0 "" 2
 587              	#NO_APP
 588 025c 233CF4F8 		sd	a5,-104(s0)
 127:src/../h/kernel.hpp ****     *(TCB**)arg0 = TCB::createTCB((TCB::Body)arg1, (void*)arg2);
 589              		.loc 3 127 5 is_stmt 1
 590              		.loc 3 127 34 is_stmt 0
 591 0260 033504F9 		ld	a0,-112(s0)
 592 0264 833584F9 		ld	a1,-104(s0)
 593              		.loc 3 127 5
 594 0268 833984F8 		ld	s3,-120(s0)
 595              		.loc 3 127 34
 596 026c 97000000 		call	_ZN3TCB9createTCBEPFvPvES0_@plt
 596      E7800000 
 597              	.LVL33:
 598              		.loc 3 127 18
 599 0274 23B0A900 		sd	a0,0(s3)
 128:src/../h/kernel.hpp **** 
 129:src/../h/kernel.hpp ****     asm volatile("mv a0, zero");
 600              		.loc 3 129 5 is_stmt 1
 601              		.loc 3 129 32 is_stmt 0
 602              	#APP
 603              	# 129 "src/../h/kernel.hpp" 1
 130              	    if (!(*(TCB**)arg0)) asm volatile("addi a0, a0, -1");
 604              		mv a0, zero
 605              	# 0 "" 2
 606              		.loc 3 130 5 is_stmt 1
 607              		.loc 3 130 11 is_stmt 0
GAS LISTING /tmp/cchpxuxe.s 			page 20


 608              	#NO_APP
 609 027c 833784F8 		ld	a5,-120(s0)
 610 0280 83B70700 		ld	a5,0(a5)
 611              		.loc 3 130 5
 612 0284 E39A07F8 		bnez	a5,.L26
 613              		.loc 3 130 26 is_stmt 1
 614              		.loc 3 130 57 is_stmt 0
 615              	#APP
 616              	# 130 "src/../h/kernel.hpp" 1
 131              	}
 617              		addi a0, a0, -1
 618              	# 0 "" 2
 619              		.loc 3 131 1
 620              	#NO_APP
 621 028c 6FF0DFF8 		j	.L26
 622              	.L22:
 623              	.LBE163:
 624              	.LBE162:
  69:src/../h/kernel.hpp ****             Kernel::thread_exit_handler();
 625              		.loc 3 69 9 is_stmt 1
  70:src/../h/kernel.hpp ****             break;
 626              		.loc 3 70 13
 627              	.LBB164:
 628              	.LBB165:
 132:src/../h/kernel.hpp **** 
 133:src/../h/kernel.hpp **** //0x12
 134:src/../h/kernel.hpp **** inline void Kernel::thread_exit_handler() {
 135:src/../h/kernel.hpp ****     TCB::running->setFinished(true);
 629              		.loc 3 135 5
 630              		.loc 3 135 30 is_stmt 0
 631 0290 97070000 		la	a5,_ZN3TCB7runningE
 631      83B70700 
 632 0298 83B70700 		ld	a5,0(a5)
 633              	.LVL34:
 634              	.LBB166:
 635              	.LBB167:
 636              		.file 4 "src/../h/tcb.hpp"
   1:src/../h/tcb.hpp **** //
   2:src/../h/tcb.hpp **** // Created by os on 9/9/22.
   3:src/../h/tcb.hpp **** //
   4:src/../h/tcb.hpp **** 
   5:src/../h/tcb.hpp **** #ifndef OSMIUM_TCB_HPP
   6:src/../h/tcb.hpp **** #define OSMIUM_TCB_HPP
   7:src/../h/tcb.hpp **** 
   8:src/../h/tcb.hpp **** #include "../lib/hw.h"
   9:src/../h/tcb.hpp **** //#include "../h/scheduler.hpp"
  10:src/../h/tcb.hpp **** #include "riscv.hpp"
  11:src/../h/tcb.hpp **** #include "memory_allocator.hpp"
  12:src/../h/tcb.hpp **** 
  13:src/../h/tcb.hpp **** class Scheduler;
  14:src/../h/tcb.hpp **** 
  15:src/../h/tcb.hpp **** 
  16:src/../h/tcb.hpp **** class TCB {
  17:src/../h/tcb.hpp **** public:
  18:src/../h/tcb.hpp ****     using Body = void (*)(void*);
  19:src/../h/tcb.hpp **** 
  20:src/../h/tcb.hpp ****     static TCB* createTCB(Body body, void* args);
GAS LISTING /tmp/cchpxuxe.s 			page 21


  21:src/../h/tcb.hpp **** 
  22:src/../h/tcb.hpp ****     static TCB* createDeactivatedTCB(Body body, void* args);
  23:src/../h/tcb.hpp **** 
  24:src/../h/tcb.hpp ****     static TCB* createSupervisorTCB(Body body, void* args);
  25:src/../h/tcb.hpp **** 
  26:src/../h/tcb.hpp ****     bool isFinished() const { return finished; }
  27:src/../h/tcb.hpp **** 
  28:src/../h/tcb.hpp ****     void setFinished(bool val) { finished = val; }
 637              		.loc 4 28 34 is_stmt 1
 638              		.loc 4 28 43 is_stmt 0
 639 029c 13071000 		li	a4,1
 640 02a0 238CE700 		sb	a4,24(a5)
 641              	.LVL35:
 642              	.LBE167:
 643              	.LBE166:
 136:src/../h/kernel.hpp ****     asm volatile ("addi a0, zero, 0");
 644              		.loc 3 136 5 is_stmt 1
 645              		.loc 3 136 38 is_stmt 0
 646              	#APP
 647              	# 136 "src/../h/kernel.hpp" 1
 137              	    //TCB::yield();
 138:src/../h/kernel.hpp ****     TCB::dispatch();
 648              		addi a0, zero, 0
 649              	# 0 "" 2
 650              		.loc 3 138 5 is_stmt 1
 651              		.loc 3 138 18 is_stmt 0
 652              	#NO_APP
 653 02a8 97000000 		call	_ZN3TCB8dispatchEv@plt
 653      E7800000 
 654              	.LVL36:
 139:src/../h/kernel.hpp **** }
 655              		.loc 3 139 1
 656 02b0 6FF09FF6 		j	.L26
 657              	.L21:
 658              	.LBE165:
 659              	.LBE164:
  72:src/../h/kernel.hpp ****             Kernel::thread_dispatch_handler();
 660              		.loc 3 72 9 is_stmt 1
  73:src/../h/kernel.hpp ****             break;
 661              		.loc 3 73 13
 662              	.LBB168:
 663              	.LBB169:
 140:src/../h/kernel.hpp **** 
 141:src/../h/kernel.hpp **** //0x13
 142:src/../h/kernel.hpp **** inline void Kernel::thread_dispatch_handler() {
 143:src/../h/kernel.hpp ****     //TCB::yield();
 144:src/../h/kernel.hpp ****     TCB::dispatch();
 664              		.loc 3 144 5
 665              		.loc 3 144 18 is_stmt 0
 666 02b4 97000000 		call	_ZN3TCB8dispatchEv@plt
 666      E7800000 
 667              	.LVL37:
 145:src/../h/kernel.hpp **** }
 668              		.loc 3 145 1
 669 02bc 6FF0DFF5 		j	.L26
 670              	.L20:
 671              	.LBE169:
GAS LISTING /tmp/cchpxuxe.s 			page 22


 672              	.LBE168:
  75:src/../h/kernel.hpp ****             Kernel::thread_create_deactivated_handler();
 673              		.loc 3 75 9 is_stmt 1
  76:src/../h/kernel.hpp ****             break;
 674              		.loc 3 76 13
 675              	.LBB170:
 676              	.LBB171:
 146:src/../h/kernel.hpp **** 
 147:src/../h/kernel.hpp **** //0x14
 148:src/../h/kernel.hpp **** inline void Kernel::thread_create_deactivated_handler() {
 149:src/../h/kernel.hpp ****     volatile uint64 arg0, arg1, arg2;
 677              		.loc 3 149 5
 150:src/../h/kernel.hpp ****     asm volatile ("mv %[arg0], a0": [arg0] "=r"(arg0));
 678              		.loc 3 150 5
 679              		.loc 3 150 55 is_stmt 0
 680              	#APP
 681              	# 150 "src/../h/kernel.hpp" 1
 151              	    asm volatile ("mv %[arg1], a1": [arg1] "=r"(arg1));
 682              		mv a5, a0
 683              	# 0 "" 2
 684              	#NO_APP
 685 02c4 2330F4FA 		sd	a5,-96(s0)
 686              		.loc 3 151 5 is_stmt 1
 687              		.loc 3 151 55 is_stmt 0
 688              	#APP
 689              	# 151 "src/../h/kernel.hpp" 1
 152              	    asm volatile ("mv %[arg2], a2": [arg2] "=r"(arg2));
 690              		mv a5, a1
 691              	# 0 "" 2
 692              	#NO_APP
 693 02cc 2334F4FA 		sd	a5,-88(s0)
 694              		.loc 3 152 5 is_stmt 1
 695              		.loc 3 152 55 is_stmt 0
 696              	#APP
 697              	# 152 "src/../h/kernel.hpp" 1
 153              	
 698              		mv a5, a2
 699              	# 0 "" 2
 700              	#NO_APP
 701 02d4 2338F4FA 		sd	a5,-80(s0)
 154:src/../h/kernel.hpp ****     *(TCB**)arg0 = TCB::createDeactivatedTCB((TCB::Body)arg1, (void*)arg2);
 702              		.loc 3 154 5 is_stmt 1
 703              		.loc 3 154 45 is_stmt 0
 704 02d8 033584FA 		ld	a0,-88(s0)
 705 02dc 833504FB 		ld	a1,-80(s0)
 706              		.loc 3 154 5
 707 02e0 833904FA 		ld	s3,-96(s0)
 708              		.loc 3 154 45
 709 02e4 97000000 		call	_ZN3TCB20createDeactivatedTCBEPFvPvES0_@plt
 709      E7800000 
 710              	.LVL38:
 711              		.loc 3 154 18
 712 02ec 23B0A900 		sd	a0,0(s3)
 155:src/../h/kernel.hpp **** 
 156:src/../h/kernel.hpp ****     asm volatile("mv a0, zero");
 713              		.loc 3 156 5 is_stmt 1
 714              		.loc 3 156 32 is_stmt 0
GAS LISTING /tmp/cchpxuxe.s 			page 23


 715              	#APP
 716              	# 156 "src/../h/kernel.hpp" 1
 157              	    if (!(*(TCB**)arg0)) asm volatile("addi a0, a0, -1");
 717              		mv a0, zero
 718              	# 0 "" 2
 719              		.loc 3 157 5 is_stmt 1
 720              		.loc 3 157 11 is_stmt 0
 721              	#NO_APP
 722 02f4 833704FA 		ld	a5,-96(s0)
 723 02f8 83B70700 		ld	a5,0(a5)
 724              		.loc 3 157 5
 725 02fc E39E07F0 		bnez	a5,.L26
 726              		.loc 3 157 26 is_stmt 1
 727              		.loc 3 157 57 is_stmt 0
 728              	#APP
 729              	# 157 "src/../h/kernel.hpp" 1
 158              	}
 730              		addi a0, a0, -1
 731              	# 0 "" 2
 732              		.loc 3 158 1
 733              	#NO_APP
 734 0304 6FF05FF1 		j	.L26
 735              	.L19:
 736              	.LBE171:
 737              	.LBE170:
  78:src/../h/kernel.hpp ****             Kernel::sem_open_handler();
 738              		.loc 3 78 9 is_stmt 1
  79:src/../h/kernel.hpp ****             break;
 739              		.loc 3 79 13
 740              	.LBB172:
 741              	.LBB173:
 159:src/../h/kernel.hpp **** 
 160:src/../h/kernel.hpp **** //0x021
 161:src/../h/kernel.hpp **** inline void Kernel::sem_open_handler() {
 162:src/../h/kernel.hpp ****     volatile uint64 arg0, arg1;
 742              		.loc 3 162 5
 163:src/../h/kernel.hpp ****     asm volatile ("mv %[arg0], a0": [arg0] "=r"(arg0));
 743              		.loc 3 163 5
 744              		.loc 3 163 55 is_stmt 0
 745              	#APP
 746              	# 163 "src/../h/kernel.hpp" 1
 164              	    asm volatile ("mv %[arg1], a1": [arg1] "=r"(arg1));
 747              		mv a5, a0
 748              	# 0 "" 2
 749              	#NO_APP
 750 030c 233CF4FA 		sd	a5,-72(s0)
 751              		.loc 3 164 5 is_stmt 1
 752              		.loc 3 164 55 is_stmt 0
 753              	#APP
 754              	# 164 "src/../h/kernel.hpp" 1
 165              	
 755              		mv a5, a1
 756              	# 0 "" 2
 757              	#NO_APP
 758 0314 2330F4FC 		sd	a5,-64(s0)
 166:src/../h/kernel.hpp ****     *(Sem**)arg0 = Sem::createSem((unsigned)arg1);
 759              		.loc 3 166 5 is_stmt 1
GAS LISTING /tmp/cchpxuxe.s 			page 24


 760              		.loc 3 166 34 is_stmt 0
 761 0318 033504FC 		ld	a0,-64(s0)
 762              		.loc 3 166 5
 763 031c 833984FB 		ld	s3,-72(s0)
 764              		.loc 3 166 34
 765 0320 1B050500 		sext.w	a0,a0
 766 0324 97000000 		call	_ZN3Sem9createSemEj@plt
 766      E7800000 
 767              	.LVL39:
 768              		.loc 3 166 18
 769 032c 23B0A900 		sd	a0,0(s3)
 167:src/../h/kernel.hpp **** 
 168:src/../h/kernel.hpp ****     asm volatile("mv a0, zero");
 770              		.loc 3 168 5 is_stmt 1
 771              		.loc 3 168 32 is_stmt 0
 772              	#APP
 773              	# 168 "src/../h/kernel.hpp" 1
 169              	    if (!(*(Sem**)arg0)) asm volatile("addi a0, a0, -1");
 774              		mv a0, zero
 775              	# 0 "" 2
 776              		.loc 3 169 5 is_stmt 1
 777              		.loc 3 169 11 is_stmt 0
 778              	#NO_APP
 779 0334 833784FB 		ld	a5,-72(s0)
 780 0338 83B70700 		ld	a5,0(a5)
 781              		.loc 3 169 5
 782 033c E39E07EC 		bnez	a5,.L26
 783              		.loc 3 169 26 is_stmt 1
 784              		.loc 3 169 57 is_stmt 0
 785              	#APP
 786              	# 169 "src/../h/kernel.hpp" 1
 170              	}
 787              		addi a0, a0, -1
 788              	# 0 "" 2
 789              		.loc 3 170 1
 790              	#NO_APP
 791 0344 6FF05FED 		j	.L26
 792              	.L18:
 793              	.LBE173:
 794              	.LBE172:
  81:src/../h/kernel.hpp ****             Kernel::sem_close_handler();
 795              		.loc 3 81 9 is_stmt 1
  82:src/../h/kernel.hpp ****             break;
 796              		.loc 3 82 13
 797              	.LBB174:
 798              	.LBB175:
 171:src/../h/kernel.hpp **** 
 172:src/../h/kernel.hpp **** //0x22
 173:src/../h/kernel.hpp **** inline void Kernel::sem_close_handler() {
 174:src/../h/kernel.hpp ****     volatile uint64 arg0;
 799              		.loc 3 174 5
 175:src/../h/kernel.hpp ****     asm volatile ("mv %[arg0], a0": [arg0] "=r"(arg0));
 800              		.loc 3 175 5
 801              		.loc 3 175 55 is_stmt 0
 802              	#APP
 803              	# 175 "src/../h/kernel.hpp" 1
 176              	    delete *(Sem**)arg0;
GAS LISTING /tmp/cchpxuxe.s 			page 25


 804              		mv a5, a0
 805              	# 0 "" 2
 806              	#NO_APP
 807 034c 2334F4FC 		sd	a5,-56(s0)
 808              		.loc 3 176 5 is_stmt 1
 809              		.loc 3 176 12 is_stmt 0
 810 0350 833784FC 		ld	a5,-56(s0)
 811 0354 83B90700 		ld	s3,0(a5)
 812              		.loc 3 176 24
 813 0358 638E0900 		beqz	s3,.L30
 814              		.loc 3 176 20
 815 035c 13850900 		mv	a0,s3
 816 0360 97000000 		call	_ZN3SemD1Ev@plt
 816      E7800000 
 817              	.LVL40:
 818              	.LBB176:
 819              	.LBB177:
 820              		.file 5 "src/../h/sem.hpp"
   1:src/../h/sem.hpp **** //
   2:src/../h/sem.hpp **** // Created by os on 9/12/22.
   3:src/../h/sem.hpp **** //
   4:src/../h/sem.hpp **** 
   5:src/../h/sem.hpp **** #ifndef OSMIUM_SEM_HPP
   6:src/../h/sem.hpp **** #define OSMIUM_SEM_HPP
   7:src/../h/sem.hpp **** 
   8:src/../h/sem.hpp **** #include "../lib/hw.h"
   9:src/../h/sem.hpp **** #include "tcb.hpp"
  10:src/../h/sem.hpp **** #include "list.hpp"
  11:src/../h/sem.hpp **** #include "scheduler.hpp"
  12:src/../h/sem.hpp **** 
  13:src/../h/sem.hpp **** class Sem {
  14:src/../h/sem.hpp **** public:
  15:src/../h/sem.hpp ****     static Sem* createSem(unsigned init);
  16:src/../h/sem.hpp **** 
  17:src/../h/sem.hpp ****     ~Sem();
  18:src/../h/sem.hpp **** 
  19:src/../h/sem.hpp ****     int semWait();
  20:src/../h/sem.hpp **** 
  21:src/../h/sem.hpp ****     int semSignal();
  22:src/../h/sem.hpp **** 
  23:src/../h/sem.hpp ****     void* operator new(size_t size) {
  24:src/../h/sem.hpp ****         return MemoryAllocator::allocate(size);
  25:src/../h/sem.hpp ****     }
  26:src/../h/sem.hpp **** 
  27:src/../h/sem.hpp ****     void* operator new[](size_t size) {
  28:src/../h/sem.hpp ****         return MemoryAllocator::allocate(size);
  29:src/../h/sem.hpp ****     }
  30:src/../h/sem.hpp **** 
  31:src/../h/sem.hpp ****     void operator delete(void* ptr) {
  32:src/../h/sem.hpp ****         MemoryAllocator::free(ptr);
 821              		.loc 5 32 9 is_stmt 1
 822              		.loc 5 32 30 is_stmt 0
 823 0368 13850900 		mv	a0,s3
 824 036c 97000000 		call	_ZN15MemoryAllocator4freeEPv@plt
 824      E7800000 
 825              	.LVL41:
 826              	.L30:
GAS LISTING /tmp/cchpxuxe.s 			page 26


 827              	.LBE177:
 828              	.LBE176:
 177:src/../h/kernel.hpp **** 
 178:src/../h/kernel.hpp ****     asm volatile("mv a0, zero");
 829              		.loc 3 178 5 is_stmt 1
 830              		.loc 3 178 32 is_stmt 0
 831              	#APP
 832              	# 178 "src/../h/kernel.hpp" 1
 179              	}
 833              		mv a0, zero
 834              	# 0 "" 2
 835              		.loc 3 179 1
 836              	#NO_APP
 837 0378 6FF01FEA 		j	.L26
 838              	.L17:
 839              	.LBE175:
 840              	.LBE174:
  84:src/../h/kernel.hpp ****             Kernel::sem_wait_handler();
 841              		.loc 3 84 9 is_stmt 1
  85:src/../h/kernel.hpp ****             break;
 842              		.loc 3 85 13
 843              	.LBB178:
 844              	.LBB179:
 180:src/../h/kernel.hpp **** 
 181:src/../h/kernel.hpp **** //0x23
 182:src/../h/kernel.hpp **** inline void Kernel::sem_wait_handler() {
 183:src/../h/kernel.hpp ****     volatile uint64 arg0;
 845              		.loc 3 183 5
 184:src/../h/kernel.hpp ****     asm volatile ("mv %[arg0], a0": [arg0] "=r"(arg0));
 846              		.loc 3 184 5
 847              		.loc 3 184 55 is_stmt 0
 848              	#APP
 849              	# 184 "src/../h/kernel.hpp" 1
 185              	    ((Sem*)arg0)->semWait();
 850              		mv a5, a0
 851              	# 0 "" 2
 852              	#NO_APP
 853 0380 2338F4F6 		sd	a5,-144(s0)
 854              		.loc 3 185 5 is_stmt 1
 855              		.loc 3 185 26 is_stmt 0
 856 0384 033504F7 		ld	a0,-144(s0)
 857 0388 97000000 		call	_ZN3Sem7semWaitEv@plt
 857      E7800000 
 858              	.LVL42:
 186:src/../h/kernel.hpp **** 
 187:src/../h/kernel.hpp ****     //asm volatile("mv a0, zero");
 188:src/../h/kernel.hpp **** }
 859              		.loc 3 188 1
 860 0390 6FF09FE8 		j	.L26
 861              	.L16:
 862              	.LBE179:
 863              	.LBE178:
  87:src/../h/kernel.hpp ****             Kernel::sem_signal_handler();
 864              		.loc 3 87 9 is_stmt 1
  88:src/../h/kernel.hpp ****             break;
 865              		.loc 3 88 13
 866              	.LBB180:
GAS LISTING /tmp/cchpxuxe.s 			page 27


 867              	.LBB181:
 189:src/../h/kernel.hpp **** 
 190:src/../h/kernel.hpp **** //0x24
 191:src/../h/kernel.hpp **** inline void Kernel::sem_signal_handler() {
 192:src/../h/kernel.hpp ****     volatile uint64 arg0;
 868              		.loc 3 192 5
 193:src/../h/kernel.hpp ****     asm volatile ("mv %[arg0], a0": [arg0] "=r"(arg0));
 869              		.loc 3 193 5
 870              		.loc 3 193 55 is_stmt 0
 871              	#APP
 872              	# 193 "src/../h/kernel.hpp" 1
 194              	    ((Sem*)arg0)->semSignal();
 873              		mv a5, a0
 874              	# 0 "" 2
 875              	#NO_APP
 876 0398 2334F4F6 		sd	a5,-152(s0)
 877              		.loc 3 194 5 is_stmt 1
 878              		.loc 3 194 28 is_stmt 0
 879 039c 033584F6 		ld	a0,-152(s0)
 880 03a0 97000000 		call	_ZN3Sem9semSignalEv@plt
 880      E7800000 
 881              	.LVL43:
 195:src/../h/kernel.hpp **** }
 882              		.loc 3 195 1
 883 03a8 6FF01FE7 		j	.L26
 884              	.L15:
 885              	.LBE181:
 886              	.LBE180:
  90:src/../h/kernel.hpp ****             Kernel::time_sleep_handler();
 887              		.loc 3 90 9 is_stmt 1
  91:src/../h/kernel.hpp ****             break;
 888              		.loc 3 91 13
 889              	.LBB182:
 890              	.LBB183:
 196:src/../h/kernel.hpp **** 
 197:src/../h/kernel.hpp **** //0x31
 198:src/../h/kernel.hpp **** inline void Kernel::time_sleep_handler() {
 199:src/../h/kernel.hpp ****     volatile uint64 arg0;
 891              		.loc 3 199 5
 200:src/../h/kernel.hpp ****     asm volatile ("mv %[arg0], a0": [arg0] "=r"(arg0));
 892              		.loc 3 200 5
 893              		.loc 3 200 55 is_stmt 0
 894              	#APP
 895              	# 200 "src/../h/kernel.hpp" 1
 201              	    Scheduler::timeSleep((time_t)arg0);
 896              		mv a5, a0
 897              	# 0 "" 2
 898              	#NO_APP
 899 03b0 2330F4F6 		sd	a5,-160(s0)
 900              		.loc 3 201 5 is_stmt 1
 901              		.loc 3 201 25 is_stmt 0
 902 03b4 033504F6 		ld	a0,-160(s0)
 903 03b8 97000000 		call	_ZN9Scheduler9timeSleepEm@plt
 903      E7800000 
 904              	.LVL44:
 202:src/../h/kernel.hpp **** }
 905              		.loc 3 202 1
GAS LISTING /tmp/cchpxuxe.s 			page 28


 906 03c0 6FF09FE5 		j	.L26
 907              	.L14:
 908              	.LBE183:
 909              	.LBE182:
  93:src/../h/kernel.hpp ****             Kernel::getc_handler();
 910              		.loc 3 93 9 is_stmt 1
  94:src/../h/kernel.hpp ****             break;
 911              		.loc 3 94 13
 912              	.LBB184:
 913              	.LBB185:
 203:src/../h/kernel.hpp **** 
 204:src/../h/kernel.hpp **** //0x41
 205:src/../h/kernel.hpp **** inline void Kernel::getc_handler() {
 206:src/../h/kernel.hpp ****     volatile uint64 arg0;
 914              		.loc 3 206 5
 207:src/../h/kernel.hpp ****     //arg0 = __getc();
 208:src/../h/kernel.hpp ****     //__print_string("getc");
 209:src/../h/kernel.hpp ****     arg0 = Uart::rxGet();
 915              		.loc 3 209 5
 916              		.loc 3 209 23 is_stmt 0
 917 03c4 97000000 		call	_ZN4Uart5rxGetEv@plt
 917      E7800000 
 918              	.LVL45:
 919              		.loc 3 209 10
 920 03cc 233CA4F4 		sd	a0,-168(s0)
 210:src/../h/kernel.hpp ****     asm volatile ("mv a0, %[arg0]":: [arg0] "r"(arg0));
 921              		.loc 3 210 5 is_stmt 1
 922              		.loc 3 210 49 is_stmt 0
 923 03d0 833784F5 		ld	a5,-168(s0)
 924              		.loc 3 210 55
 925              	#APP
 926              	# 210 "src/../h/kernel.hpp" 1
 211              	}
 927              		mv a0, a5
 928              	# 0 "" 2
 929              		.loc 3 211 1
 930              	#NO_APP
 931 03d8 6FF01FE4 		j	.L26
 932              	.L12:
 933              	.LBE185:
 934              	.LBE184:
  96:src/../h/kernel.hpp ****             Kernel::putc_handler();
 935              		.loc 3 96 9 is_stmt 1
  97:src/../h/kernel.hpp ****             break;
 936              		.loc 3 97 13
 937              	.LBB186:
 938              	.LBB187:
 212:src/../h/kernel.hpp **** 
 213:src/../h/kernel.hpp **** //0x42
 214:src/../h/kernel.hpp **** inline void Kernel::putc_handler() {
 215:src/../h/kernel.hpp ****     volatile uint64 arg0;
 939              		.loc 3 215 5
 216:src/../h/kernel.hpp ****     asm volatile ("mv %[arg0], a0": [arg0] "=r"(arg0));
 940              		.loc 3 216 5
 941              		.loc 3 216 55 is_stmt 0
 942              	#APP
 943              	# 216 "src/../h/kernel.hpp" 1
GAS LISTING /tmp/cchpxuxe.s 			page 29


 217              	    //__putc(arg0);
 944              		mv a5, a0
 945              	# 0 "" 2
 946              	#NO_APP
 947 03e0 2338F4F4 		sd	a5,-176(s0)
 218:src/../h/kernel.hpp ****     Uart::txPut(arg0);
 948              		.loc 3 218 5 is_stmt 1
 949              		.loc 3 218 16 is_stmt 0
 950 03e4 033504F5 		ld	a0,-176(s0)
 951 03e8 1375F50F 		andi	a0,a0,0xff
 952 03ec 97000000 		call	_ZN4Uart5txPutEc@plt
 952      E7800000 
 953              	.LVL46:
 219:src/../h/kernel.hpp ****     //uart->tx
 220:src/../h/kernel.hpp **** }
 954              		.loc 3 220 1
 955 03f4 6FF05FE2 		j	.L26
 956              	.L11:
 957              	.LBE187:
 958              	.LBE186:
  99:src/../h/kernel.hpp ****             asm volatile ("addi a0, zero, -1");
 959              		.loc 3 99 9 is_stmt 1
 100:src/../h/kernel.hpp ****             __print_string("Error: Invalid syscall id!");
 960              		.loc 3 100 13
 100:src/../h/kernel.hpp ****             __print_string("Error: Invalid syscall id!");
 961              		.loc 3 100 47 is_stmt 0
 962              	#APP
 963              	# 100 "src/../h/kernel.hpp" 1
 101:src/../h/kernel.hpp ****             break;
 964              		addi a0, zero, -1
 965              	# 0 "" 2
 966              		.loc 3 101 13 is_stmt 1
 101:src/../h/kernel.hpp ****             break;
 967              		.loc 3 101 27 is_stmt 0
 968              	#NO_APP
 969 03fc 17050000 		lla	a0,.LC1
 969      13050500 
 970 0404 97000000 		call	_Z14__print_stringPKc@plt
 970      E7800000 
 971              	.LVL47:
 102:src/../h/kernel.hpp ****     }
 972              		.loc 3 102 13 is_stmt 1
 973 040c 6FF0DFE0 		j	.L26
 974              	.LVL48:
 975              	.L38:
 976              	.LBE188:
 977              	.LBE195:
 978              	.LBE151:
 979              	.LBE224:
 980              	.LBB225:
 981              	.LBB197:
  40:src/kernel.cpp ****         Scheduler::timerInterrupt();
 982              		.loc 1 40 9
  40:src/kernel.cpp ****         Scheduler::timerInterrupt();
 983              		.loc 1 40 13 is_stmt 0
 984 0410 97070000 		la	a5,_ZN3TCB7runningE
 984      83B70700 
GAS LISTING /tmp/cchpxuxe.s 			page 30


 985 0418 83B70700 		ld	a5,0(a5)
  40:src/kernel.cpp ****         Scheduler::timerInterrupt();
 986              		.loc 1 40 9
 987 041c 63800704 		beqz	a5,.L40
  41:src/kernel.cpp ****         TCB::incTimeSliceCounter();
 988              		.loc 1 41 9 is_stmt 1
  41:src/kernel.cpp ****         TCB::incTimeSliceCounter();
 989              		.loc 1 41 34 is_stmt 0
 990 0420 97000000 		call	_ZN9Scheduler14timerInterruptEv@plt
 990      E7800000 
 991              	.LVL49:
  42:src/kernel.cpp ****         if (TCB::getTimeSliceCounter() >= TCB::running->getTimeSlice())
 992              		.loc 1 42 9 is_stmt 1
 993              	.LBB198:
 994              	.LBB199:
  29:src/../h/tcb.hpp **** 
  30:src/../h/tcb.hpp ****     bool isBlocked() const { return blocked; }
  31:src/../h/tcb.hpp **** 
  32:src/../h/tcb.hpp ****     void setBlocked(bool val) { blocked = val; }
  33:src/../h/tcb.hpp **** 
  34:src/../h/tcb.hpp ****     uint64 getTimeSlice() const { return timeSlice; }
  35:src/../h/tcb.hpp **** 
  36:src/../h/tcb.hpp ****     static TCB* running;
  37:src/../h/tcb.hpp **** 
  38:src/../h/tcb.hpp ****     //static void yield();
  39:src/../h/tcb.hpp **** 
  40:src/../h/tcb.hpp ****     static void dispatch();
  41:src/../h/tcb.hpp **** 
  42:src/../h/tcb.hpp ****     static void incTimeSliceCounter() { timeSliceCounter++; }
 995              		.loc 4 42 41
 996              		.loc 4 42 57 is_stmt 0
 997 0428 17070000 		la	a4,_ZN3TCB16timeSliceCounterE
 997      03370700 
 998 0430 83370700 		ld	a5,0(a4)
 999 0434 93871700 		addi	a5,a5,1
 1000 0438 2330F700 		sd	a5,0(a4)
 1001              	.LBE199:
 1002              	.LBE198:
  43:src/kernel.cpp ****         {
 1003              		.loc 1 43 9 is_stmt 1
 1004              	.LBE197:
 1005              	.LBE225:
  43:src/../h/tcb.hpp ****     static uint64 getTimeSliceCounter() { return timeSliceCounter; }
 1006              		.loc 4 43 43
 1007              	.LBB226:
 1008              	.LBB219:
 1009              	.LBB200:
  43:src/kernel.cpp ****         {
 1010              		.loc 1 43 69 is_stmt 0
 1011 043c 17070000 		la	a4,_ZN3TCB7runningE
 1011      03370700 
 1012 0444 03370700 		ld	a4,0(a4)
 1013              	.LVL50:
 1014              	.LBB201:
 1015              	.LBB202:
  34:src/../h/tcb.hpp **** 
 1016              		.loc 4 34 35 is_stmt 1
GAS LISTING /tmp/cchpxuxe.s 			page 31


  34:src/../h/tcb.hpp **** 
 1017              		.loc 4 34 42 is_stmt 0
 1018 0448 03370702 		ld	a4,32(a4)
 1019              	.LVL51:
 1020              	.LBE202:
 1021              	.LBE201:
  43:src/kernel.cpp ****         {
 1022              		.loc 1 43 9
 1023 044c 63FEE700 		bleu	a4,a5,.L41
 1024              	.LVL52:
 1025              	.L34:
 1026              	.LBE200:
  52:src/kernel.cpp ****         return;
 1027              		.loc 1 52 9 is_stmt 1
 1028              	.LBB214:
 1029              	.LBB215:
 135:src/../h/riscv.hpp **** }
 1030              		.loc 2 135 5
 135:src/../h/riscv.hpp **** }
 1031              		.loc 2 135 58 is_stmt 0
 1032 0450 93072000 		li	a5,2
 1033              	#APP
 1034              	# 135 "src/../h/riscv.hpp" 1
 1035              		csrc sip, a5
 1036              	# 0 "" 2
 1037              	.LVL53:
 1038              	#NO_APP
 1039              	.LBE215:
 1040              	.LBE214:
  53:src/kernel.cpp ****     }
 1041              		.loc 1 53 9 is_stmt 1
 1042 0458 6FF05FD4 		j	.L9
 1043              	.LVL54:
 1044              	.L40:
  40:src/kernel.cpp ****         Scheduler::timerInterrupt();
 1045              		.loc 1 40 30
 1046              	.LBB216:
 1047              	.LBB217:
 135:src/../h/riscv.hpp **** }
 1048              		.loc 2 135 5
 135:src/../h/riscv.hpp **** }
 1049              		.loc 2 135 58 is_stmt 0
 1050 045c 93072000 		li	a5,2
 1051              	#APP
 1052              	# 135 "src/../h/riscv.hpp" 1
 1053              		csrc sip, a5
 1054              	# 0 "" 2
 1055              	.LVL55:
 1056              	#NO_APP
 1057              	.LBE217:
 1058              	.LBE216:
  40:src/kernel.cpp ****         Scheduler::timerInterrupt();
 1059              		.loc 1 40 60 is_stmt 1
 1060 0464 6FF09FD3 		j	.L9
 1061              	.L41:
 1062              	.LBB218:
 1063              	.LBB203:
GAS LISTING /tmp/cchpxuxe.s 			page 32


  45:src/kernel.cpp ****             uint64 sstatus = RiscV::readSstatus();
 1064              		.loc 1 45 13
 1065              	.LBB204:
 1066              	.LBB205:
  93:src/../h/riscv.hpp ****     asm volatile("csrr %[sepc], sepc": [sepc] "=r" (sepc));
 1067              		.loc 2 93 5
  94:src/../h/riscv.hpp ****     return sepc;
 1068              		.loc 2 94 5
  94:src/../h/riscv.hpp ****     return sepc;
 1069              		.loc 2 94 59 is_stmt 0
 1070              	#APP
 1071              	# 94 "src/../h/riscv.hpp" 1
 1072              		csrr a5, sepc
 1073              	# 0 "" 2
 1074              	#NO_APP
 1075 046c 233CF4F2 		sd	a5,-200(s0)
  95:src/../h/riscv.hpp **** }
 1076              		.loc 2 95 5 is_stmt 1
  95:src/../h/riscv.hpp **** }
 1077              		.loc 2 95 12 is_stmt 0
 1078 0470 833484F3 		ld	s1,-200(s0)
 1079              	.LVL56:
 1080              	.LBE205:
 1081              	.LBE204:
  46:src/kernel.cpp ****             TCB::resetTimeSliceCounter();
 1082              		.loc 1 46 13 is_stmt 1
 1083              	.LBB206:
 1084              	.LBB207:
 121:src/../h/riscv.hpp ****     asm volatile("csrr %[sstatus], sstatus": [sstatus] "=r" (sstatus));
 1085              		.loc 2 121 5
 122:src/../h/riscv.hpp ****     return sstatus;
 1086              		.loc 2 122 5
 122:src/../h/riscv.hpp ****     return sstatus;
 1087              		.loc 2 122 71 is_stmt 0
 1088              	#APP
 1089              	# 122 "src/../h/riscv.hpp" 1
 1090              		csrr a5, sstatus
 1091              	# 0 "" 2
 1092              	#NO_APP
 1093 0478 2338F4F2 		sd	a5,-208(s0)
 123:src/../h/riscv.hpp **** }
 1094              		.loc 2 123 5 is_stmt 1
 123:src/../h/riscv.hpp **** }
 1095              		.loc 2 123 12 is_stmt 0
 1096 047c 033904F3 		ld	s2,-208(s0)
 1097              	.LVL57:
 1098              	.LBE207:
 1099              	.LBE206:
  47:src/kernel.cpp ****             TCB::dispatch();
 1100              		.loc 1 47 13 is_stmt 1
 1101              	.LBB208:
 1102              	.LBB209:
  44:src/../h/tcb.hpp ****     static void resetTimeSliceCounter() { timeSliceCounter = 0; }
 1103              		.loc 4 44 43
 1104              		.loc 4 44 60 is_stmt 0
 1105 0480 97070000 		la	a5,_ZN3TCB16timeSliceCounterE
 1105      83B70700 
GAS LISTING /tmp/cchpxuxe.s 			page 33


 1106 0488 23B00700 		sd	zero,0(a5)
 1107              	.LBE209:
 1108              	.LBE208:
  48:src/kernel.cpp ****             RiscV::writeSstatus(sstatus);
 1109              		.loc 1 48 13 is_stmt 1
  48:src/kernel.cpp ****             RiscV::writeSstatus(sstatus);
 1110              		.loc 1 48 26 is_stmt 0
 1111 048c 97000000 		call	_ZN3TCB8dispatchEv@plt
 1111      E7800000 
 1112              	.LVL58:
  49:src/kernel.cpp ****             RiscV::writeSepc(sepc);
 1113              		.loc 1 49 13 is_stmt 1
 1114              	.LBB210:
 1115              	.LBB211:
 127:src/../h/riscv.hpp **** }
 1116              		.loc 2 127 5
 127:src/../h/riscv.hpp **** }
 1117              		.loc 2 127 71 is_stmt 0
 1118              	#APP
 1119              	# 127 "src/../h/riscv.hpp" 1
 1120              		csrw sstatus, s2
 1121              	# 0 "" 2
 1122              	.LVL59:
 1123              	#NO_APP
 1124              	.LBE211:
 1125              	.LBE210:
  50:src/kernel.cpp ****         }
 1126              		.loc 1 50 13 is_stmt 1
 1127              	.LBB212:
 1128              	.LBB213:
  99:src/../h/riscv.hpp **** }
 1129              		.loc 2 99 5
  99:src/../h/riscv.hpp **** }
 1130              		.loc 2 99 59 is_stmt 0
 1131              	#APP
 1132              	# 99 "src/../h/riscv.hpp" 1
 100:src/../h/riscv.hpp **** 
 1133              		csrw sepc, s1
 1134              	# 0 "" 2
 1135              		.loc 2 100 1
 1136              	#NO_APP
 1137 049c 6FF05FFB 		j	.L34
 1138              	.LVL60:
 1139              	.L39:
 1140              	.LBE213:
 1141              	.LBE212:
 1142              	.LBE203:
 1143              	.LBE218:
 1144              	.LBE219:
 1145              	.LBE226:
  58:src/kernel.cpp ****         RiscV::clearSip(RiscV::SEIP);
 1146              		.loc 1 58 9 is_stmt 1
  58:src/kernel.cpp ****         RiscV::clearSip(RiscV::SEIP);
 1147              		.loc 1 58 23 is_stmt 0
 1148 04a0 97000000 		call	_ZN6Kernel14hw_irq_handlerEv
 1148      E7800000 
 1149              	.LVL61:
GAS LISTING /tmp/cchpxuxe.s 			page 34


  59:src/kernel.cpp ****         return;
 1150              		.loc 1 59 9 is_stmt 1
 1151              	.LBB227:
 1152              	.LBB228:
 135:src/../h/riscv.hpp **** }
 1153              		.loc 2 135 5
 135:src/../h/riscv.hpp **** }
 1154              		.loc 2 135 58 is_stmt 0
 1155 04a8 93070020 		li	a5,512
 1156              	#APP
 1157              	# 135 "src/../h/riscv.hpp" 1
 1158              		csrc sip, a5
 1159              	# 0 "" 2
 1160              	.LVL62:
 1161              	#NO_APP
 1162              	.LBE228:
 1163              	.LBE227:
  60:src/kernel.cpp ****     }
 1164              		.loc 1 60 9 is_stmt 1
 1165 04b0 6FF0DFCE 		j	.L9
 1166              		.cfi_endproc
 1167              	.LFE74:
 1169              	.Letext0:
 1170              		.file 6 "src/../h/../lib/hw.h"
 1171              		.file 7 "src/../h/memory_allocator.hpp"
 1172              		.file 8 "src/../h/scheduler.hpp"
 1173              		.file 9 "src/../h/list.hpp"
 1174              		.file 10 "src/../h/uart.hpp"
 1175              		.file 11 "src/../h/syscall_c.h"
 1176              		.file 12 "src/../h/__print.hpp"
GAS LISTING /tmp/cchpxuxe.s 			page 35


DEFINED SYMBOLS
                            *ABS*:0000000000000000 kernel.cpp
     /tmp/cchpxuxe.s:9      .text:0000000000000000 _ZN6Kernel10initKernelEv
     /tmp/cchpxuxe.s:13     .text:0000000000000000 .L0 
     /tmp/cchpxuxe.s:14     .text:0000000000000000 .L0 
     /tmp/cchpxuxe.s:15     .text:0000000000000004 .L0 
     /tmp/cchpxuxe.s:18     .text:000000000000000c .L0 
     /tmp/cchpxuxe.s:19     .text:000000000000000c .L0 
     /tmp/cchpxuxe.s:21     .text:0000000000000010 .L0 
     /tmp/cchpxuxe.s:23     .text:0000000000000010 .L0 
     /tmp/cchpxuxe.s:24     .text:0000000000000010 .L0 
     /tmp/cchpxuxe.s:27     .text:0000000000000018 .L0 
     /tmp/cchpxuxe.s:28     .text:0000000000000018 .L0 
     /tmp/cchpxuxe.s:34     .text:0000000000000020 .L0 
  src/../h/riscv.hpp:109    .text:0000000000000020 .L0 
     /tmp/cchpxuxe.s:44     .text:0000000000000024 .L0 
     /tmp/cchpxuxe.s:45     .text:0000000000000024 .L0 
     /tmp/cchpxuxe.s:48     .text:000000000000002c .L0 
     /tmp/cchpxuxe.s:49     .text:0000000000000030 .L0 
     /tmp/cchpxuxe.s:51     .text:0000000000000034 .L0 
     /tmp/cchpxuxe.s:52     .text:0000000000000034 .L0 
     /tmp/cchpxuxe.s:54     .text:0000000000000038 .L0 
     /tmp/cchpxuxe.s:56     .text:000000000000003c .L0 
     /tmp/cchpxuxe.s:67     .text:000000000000003c _ZN6Kernel12uart_handlerEv
     /tmp/cchpxuxe.s:70     .text:000000000000003c .L0 
     /tmp/cchpxuxe.s:71     .text:000000000000003c .L0 
     /tmp/cchpxuxe.s:72     .text:0000000000000040 .L0 
     /tmp/cchpxuxe.s:76     .text:000000000000004c .L0 
     /tmp/cchpxuxe.s:77     .text:000000000000004c .L0 
     /tmp/cchpxuxe.s:78     .text:000000000000004c .L0 
     /tmp/cchpxuxe.s:80     .text:0000000000000050 .L0 
     /tmp/cchpxuxe.s:82     .text:0000000000000050 .L0 
     /tmp/cchpxuxe.s:83     .text:0000000000000050 .L0 
     /tmp/cchpxuxe.s:88     .text:000000000000005c .L0 
     /tmp/cchpxuxe.s:93     .text:0000000000000064 .L0 
     /tmp/cchpxuxe.s:94     .text:0000000000000064 .L0 
     /tmp/cchpxuxe.s:98     .text:0000000000000070 .L0 
     /tmp/cchpxuxe.s:99     .text:0000000000000074 .L0 
     /tmp/cchpxuxe.s:100    .text:0000000000000074 .L0 
     /tmp/cchpxuxe.s:102    .text:0000000000000078 .L0 
     /tmp/cchpxuxe.s:103    .text:0000000000000078 .L0 
     /tmp/cchpxuxe.s:105    .text:000000000000007c .L0 
     /tmp/cchpxuxe.s:107    .text:0000000000000080 .L0 
     /tmp/cchpxuxe.s:110    .text:0000000000000084 .L0 
     /tmp/cchpxuxe.s:112    .text:0000000000000084 .L0 
     /tmp/cchpxuxe.s:113    .text:0000000000000084 .L0 
     /tmp/cchpxuxe.s:114    .text:0000000000000084 .L0 
     /tmp/cchpxuxe.s:117    .text:000000000000008c .L0 
     /tmp/cchpxuxe.s:120    .text:0000000000000094 .L0 
     /tmp/cchpxuxe.s:121    .text:0000000000000094 .L0 
     /tmp/cchpxuxe.s:125    .text:00000000000000a4 .L0 
     /tmp/cchpxuxe.s:126    .text:00000000000000a4 .L0 
     /tmp/cchpxuxe.s:129    .text:00000000000000b0 .L0 
     /tmp/cchpxuxe.s:135    .text:00000000000000b0 _ZN6Kernel14hw_irq_handlerEv
     /tmp/cchpxuxe.s:138    .text:00000000000000b0 .L0 
     /tmp/cchpxuxe.s:139    .text:00000000000000b0 .L0 
     /tmp/cchpxuxe.s:140    .text:00000000000000b4 .L0 
GAS LISTING /tmp/cchpxuxe.s 			page 36


     /tmp/cchpxuxe.s:143    .text:00000000000000bc .L0 
     /tmp/cchpxuxe.s:144    .text:00000000000000bc .L0 
     /tmp/cchpxuxe.s:146    .text:00000000000000c0 .L0 
     /tmp/cchpxuxe.s:148    .text:00000000000000c0 .L0 
     /tmp/cchpxuxe.s:149    .text:00000000000000c0 .L0 
     /tmp/cchpxuxe.s:152    .text:00000000000000c8 .L0 
     /tmp/cchpxuxe.s:153    .text:00000000000000cc .L0 
     /tmp/cchpxuxe.s:155    .text:00000000000000d0 .L0 
     /tmp/cchpxuxe.s:156    .text:00000000000000d0 .L0 
     /tmp/cchpxuxe.s:158    .text:00000000000000d4 .L0 
     /tmp/cchpxuxe.s:160    .text:00000000000000d8 .L0 
     /tmp/cchpxuxe.s:180    .text:00000000000000d8 _ZN6Kernel21supervisorTrapHandlerEv
     /tmp/cchpxuxe.s:183    .text:00000000000000d8 .L0 
     /tmp/cchpxuxe.s:184    .text:00000000000000d8 .L0 
     /tmp/cchpxuxe.s:185    .text:00000000000000dc .L0 
     /tmp/cchpxuxe.s:191    .text:00000000000000f0 .L0 
     /tmp/cchpxuxe.s:192    .text:00000000000000f0 .L0 
     /tmp/cchpxuxe.s:193    .text:00000000000000f0 .L0 
     /tmp/cchpxuxe.s:194    .text:00000000000000f0 .L0 
     /tmp/cchpxuxe.s:195    .text:00000000000000f0 .L0 
     /tmp/cchpxuxe.s:197    .text:00000000000000f4 .L0 
     /tmp/cchpxuxe.s:201    .text:00000000000000f4 .L0 
     /tmp/cchpxuxe.s:202    .text:00000000000000f4 .L0 
     /tmp/cchpxuxe.s:203    .text:00000000000000f4 .L0 
  src/../h/riscv.hpp:84     .text:00000000000000f4 .L0 
     /tmp/cchpxuxe.s:211    .text:00000000000000fc .L0 
     /tmp/cchpxuxe.s:212    .text:00000000000000fc .L0 
     /tmp/cchpxuxe.s:218    .text:0000000000000100 .L0 
     /tmp/cchpxuxe.s:219    .text:0000000000000100 .L0 
     /tmp/cchpxuxe.s:221    .text:0000000000000104 .L0 
     /tmp/cchpxuxe.s:226    .text:000000000000010c .L0 
     /tmp/cchpxuxe.s:232    .text:000000000000011c .L0 
     /tmp/cchpxuxe.s:239    .text:000000000000012c .L0 
     /tmp/cchpxuxe.s:240    .text:000000000000012c .L0 
     /tmp/cchpxuxe.s:241    .text:000000000000012c .L0 
  src/../h/riscv.hpp:94     .text:000000000000012c .L0 
     /tmp/cchpxuxe.s:249    .text:0000000000000134 .L0 
     /tmp/cchpxuxe.s:250    .text:0000000000000134 .L0 
     /tmp/cchpxuxe.s:255    .text:0000000000000138 .L0 
     /tmp/cchpxuxe.s:256    .text:0000000000000138 .L0 
     /tmp/cchpxuxe.s:260    .text:0000000000000148 .L0 
     /tmp/cchpxuxe.s:261    .text:0000000000000148 .L0 
     /tmp/cchpxuxe.s:265    .text:0000000000000158 .L0 
     /tmp/cchpxuxe.s:266    .text:0000000000000158 .L0 
     /tmp/cchpxuxe.s:270    .text:0000000000000164 .L0 
     /tmp/cchpxuxe.s:271    .text:0000000000000164 .L0 
     /tmp/cchpxuxe.s:275    .text:0000000000000170 .L0 
     /tmp/cchpxuxe.s:276    .text:0000000000000170 .L0 
     /tmp/cchpxuxe.s:280    .text:0000000000000180 .L0 
     /tmp/cchpxuxe.s:281    .text:0000000000000180 .L0 
     /tmp/cchpxuxe.s:285    .text:000000000000018c .L0 
     /tmp/cchpxuxe.s:286    .text:000000000000018c .L0 
     /tmp/cchpxuxe.s:292    .text:0000000000000198 .L0 
     /tmp/cchpxuxe.s:293    .text:0000000000000198 .L0 
  src/../h/riscv.hpp:99     .text:0000000000000198 .L0 
     /tmp/cchpxuxe.s:304    .text:000000000000019c .L0 
     /tmp/cchpxuxe.s:305    .text:00000000000001a0 .L0 
GAS LISTING /tmp/cchpxuxe.s 			page 37


     /tmp/cchpxuxe.s:306    .text:00000000000001a0 .L0 
     /tmp/cchpxuxe.s:308    .text:00000000000001a4 .L0 
     /tmp/cchpxuxe.s:309    .text:00000000000001a4 .L0 
     /tmp/cchpxuxe.s:311    .text:00000000000001a8 .L0 
     /tmp/cchpxuxe.s:313    .text:00000000000001ac .L0 
     /tmp/cchpxuxe.s:315    .text:00000000000001b0 .L0 
     /tmp/cchpxuxe.s:317    .text:00000000000001b4 .L0 
     /tmp/cchpxuxe.s:321    .text:00000000000001b8 .L0 
     /tmp/cchpxuxe.s:327    .text:00000000000001b8 .L0 
     /tmp/cchpxuxe.s:328    .text:00000000000001b8 .L0 
     /tmp/cchpxuxe.s:329    .text:00000000000001b8 .L0 
  src/../h/riscv.hpp:94     .text:00000000000001b8 .L0 
     /tmp/cchpxuxe.s:337    .text:00000000000001c0 .L0 
     /tmp/cchpxuxe.s:338    .text:00000000000001c0 .L0 
     /tmp/cchpxuxe.s:343    .text:00000000000001c4 .L0 
     /tmp/cchpxuxe.s:348    .text:00000000000001c8 .L0 
     /tmp/cchpxuxe.s:349    .text:00000000000001c8 .L0 
     /tmp/cchpxuxe.s:350    .text:00000000000001c8 .L0 
  src/../h/riscv.hpp:122    .text:00000000000001c8 .L0 
     /tmp/cchpxuxe.s:358    .text:00000000000001d0 .L0 
     /tmp/cchpxuxe.s:359    .text:00000000000001d0 .L0 
     /tmp/cchpxuxe.s:367    .text:00000000000001d4 .L0 
     /tmp/cchpxuxe.s:368    .text:00000000000001d4 .L0 
     /tmp/cchpxuxe.s:369    .text:00000000000001d4 .L0 
 src/../h/kernel.hpp:56     .text:00000000000001d4 .L0 
     /tmp/cchpxuxe.s:377    .text:00000000000001dc .L0 
     /tmp/cchpxuxe.s:378    .text:00000000000001dc .L0 
     /tmp/cchpxuxe.s:462    .text:0000000000000204 .L0 
     /tmp/cchpxuxe.s:465    .text:0000000000000204 .L0 
     /tmp/cchpxuxe.s:466    .text:0000000000000204 .L0 
     /tmp/cchpxuxe.s:467    .text:0000000000000204 .L0 
 src/../h/kernel.hpp:109    .text:0000000000000204 .L0 
     /tmp/cchpxuxe.s:475    .text:000000000000020c .L0 
     /tmp/cchpxuxe.s:476    .text:000000000000020c .L0 
     /tmp/cchpxuxe.s:485    .text:0000000000000218 .L0 
      src/kernel.cpp:32     .text:0000000000000218 .L0 
     /tmp/cchpxuxe.s:495    .text:000000000000021c .L0 
     /tmp/cchpxuxe.s:496    .text:000000000000021c .L0 
  src/../h/riscv.hpp:127    .text:000000000000021c .L0 
     /tmp/cchpxuxe.s:508    .text:0000000000000220 .L0 
     /tmp/cchpxuxe.s:509    .text:0000000000000220 .L0 
  src/../h/riscv.hpp:99     .text:0000000000000220 .L0 
     /tmp/cchpxuxe.s:521    .text:0000000000000224 .L0 
     /tmp/cchpxuxe.s:522    .text:0000000000000224 .L0 
     /tmp/cchpxuxe.s:523    .text:0000000000000224 .L0 
     /tmp/cchpxuxe.s:533    .text:000000000000022c .L0 
     /tmp/cchpxuxe.s:538    .text:0000000000000230 .L0 
     /tmp/cchpxuxe.s:541    .text:0000000000000230 .L0 
     /tmp/cchpxuxe.s:542    .text:0000000000000230 .L0 
     /tmp/cchpxuxe.s:543    .text:0000000000000230 .L0 
 src/../h/kernel.hpp:116    .text:0000000000000230 .L0 
     /tmp/cchpxuxe.s:551    .text:0000000000000238 .L0 
     /tmp/cchpxuxe.s:552    .text:0000000000000238 .L0 
     /tmp/cchpxuxe.s:556    .text:0000000000000244 .L0 
     /tmp/cchpxuxe.s:561    .text:0000000000000248 .L0 
     /tmp/cchpxuxe.s:564    .text:0000000000000248 .L0 
     /tmp/cchpxuxe.s:565    .text:0000000000000248 .L0 
GAS LISTING /tmp/cchpxuxe.s 			page 38


     /tmp/cchpxuxe.s:566    .text:0000000000000248 .L0 
 src/../h/kernel.hpp:123    .text:0000000000000248 .L0 
     /tmp/cchpxuxe.s:574    .text:0000000000000250 .L0 
 src/../h/kernel.hpp:124    .text:0000000000000250 .L0 
     /tmp/cchpxuxe.s:582    .text:0000000000000258 .L0 
 src/../h/kernel.hpp:125    .text:0000000000000258 .L0 
     /tmp/cchpxuxe.s:590    .text:0000000000000260 .L0 
     /tmp/cchpxuxe.s:591    .text:0000000000000260 .L0 
     /tmp/cchpxuxe.s:594    .text:0000000000000268 .L0 
     /tmp/cchpxuxe.s:596    .text:000000000000026c .L0 
     /tmp/cchpxuxe.s:599    .text:0000000000000274 .L0 
     /tmp/cchpxuxe.s:601    .text:0000000000000278 .L0 
 src/../h/kernel.hpp:129    .text:0000000000000278 .L0 
     /tmp/cchpxuxe.s:607    .text:000000000000027c .L0 
     /tmp/cchpxuxe.s:609    .text:000000000000027c .L0 
     /tmp/cchpxuxe.s:612    .text:0000000000000284 .L0 
     /tmp/cchpxuxe.s:614    .text:0000000000000288 .L0 
 src/../h/kernel.hpp:130    .text:0000000000000288 .L0 
     /tmp/cchpxuxe.s:621    .text:000000000000028c .L0 
     /tmp/cchpxuxe.s:626    .text:0000000000000290 .L0 
     /tmp/cchpxuxe.s:629    .text:0000000000000290 .L0 
     /tmp/cchpxuxe.s:630    .text:0000000000000290 .L0 
     /tmp/cchpxuxe.s:631    .text:0000000000000290 .L0 
     /tmp/cchpxuxe.s:638    .text:000000000000029c .L0 
     /tmp/cchpxuxe.s:639    .text:000000000000029c .L0 
     /tmp/cchpxuxe.s:645    .text:00000000000002a4 .L0 
 src/../h/kernel.hpp:136    .text:00000000000002a4 .L0 
     /tmp/cchpxuxe.s:651    .text:00000000000002a8 .L0 
     /tmp/cchpxuxe.s:653    .text:00000000000002a8 .L0 
     /tmp/cchpxuxe.s:656    .text:00000000000002b0 .L0 
     /tmp/cchpxuxe.s:661    .text:00000000000002b4 .L0 
     /tmp/cchpxuxe.s:664    .text:00000000000002b4 .L0 
     /tmp/cchpxuxe.s:665    .text:00000000000002b4 .L0 
     /tmp/cchpxuxe.s:666    .text:00000000000002b4 .L0 
     /tmp/cchpxuxe.s:669    .text:00000000000002bc .L0 
     /tmp/cchpxuxe.s:674    .text:00000000000002c0 .L0 
     /tmp/cchpxuxe.s:677    .text:00000000000002c0 .L0 
     /tmp/cchpxuxe.s:678    .text:00000000000002c0 .L0 
     /tmp/cchpxuxe.s:679    .text:00000000000002c0 .L0 
 src/../h/kernel.hpp:150    .text:00000000000002c0 .L0 
     /tmp/cchpxuxe.s:687    .text:00000000000002c8 .L0 
 src/../h/kernel.hpp:151    .text:00000000000002c8 .L0 
     /tmp/cchpxuxe.s:695    .text:00000000000002d0 .L0 
 src/../h/kernel.hpp:152    .text:00000000000002d0 .L0 
     /tmp/cchpxuxe.s:703    .text:00000000000002d8 .L0 
     /tmp/cchpxuxe.s:704    .text:00000000000002d8 .L0 
     /tmp/cchpxuxe.s:707    .text:00000000000002e0 .L0 
     /tmp/cchpxuxe.s:709    .text:00000000000002e4 .L0 
     /tmp/cchpxuxe.s:712    .text:00000000000002ec .L0 
     /tmp/cchpxuxe.s:714    .text:00000000000002f0 .L0 
 src/../h/kernel.hpp:156    .text:00000000000002f0 .L0 
     /tmp/cchpxuxe.s:720    .text:00000000000002f4 .L0 
     /tmp/cchpxuxe.s:722    .text:00000000000002f4 .L0 
     /tmp/cchpxuxe.s:725    .text:00000000000002fc .L0 
     /tmp/cchpxuxe.s:727    .text:0000000000000300 .L0 
 src/../h/kernel.hpp:157    .text:0000000000000300 .L0 
     /tmp/cchpxuxe.s:734    .text:0000000000000304 .L0 
GAS LISTING /tmp/cchpxuxe.s 			page 39


     /tmp/cchpxuxe.s:739    .text:0000000000000308 .L0 
     /tmp/cchpxuxe.s:742    .text:0000000000000308 .L0 
     /tmp/cchpxuxe.s:743    .text:0000000000000308 .L0 
     /tmp/cchpxuxe.s:744    .text:0000000000000308 .L0 
 src/../h/kernel.hpp:163    .text:0000000000000308 .L0 
     /tmp/cchpxuxe.s:752    .text:0000000000000310 .L0 
 src/../h/kernel.hpp:164    .text:0000000000000310 .L0 
     /tmp/cchpxuxe.s:760    .text:0000000000000318 .L0 
     /tmp/cchpxuxe.s:761    .text:0000000000000318 .L0 
     /tmp/cchpxuxe.s:763    .text:000000000000031c .L0 
     /tmp/cchpxuxe.s:765    .text:0000000000000320 .L0 
     /tmp/cchpxuxe.s:769    .text:000000000000032c .L0 
     /tmp/cchpxuxe.s:771    .text:0000000000000330 .L0 
 src/../h/kernel.hpp:168    .text:0000000000000330 .L0 
     /tmp/cchpxuxe.s:777    .text:0000000000000334 .L0 
     /tmp/cchpxuxe.s:779    .text:0000000000000334 .L0 
     /tmp/cchpxuxe.s:782    .text:000000000000033c .L0 
     /tmp/cchpxuxe.s:784    .text:0000000000000340 .L0 
 src/../h/kernel.hpp:169    .text:0000000000000340 .L0 
     /tmp/cchpxuxe.s:791    .text:0000000000000344 .L0 
     /tmp/cchpxuxe.s:796    .text:0000000000000348 .L0 
     /tmp/cchpxuxe.s:799    .text:0000000000000348 .L0 
     /tmp/cchpxuxe.s:800    .text:0000000000000348 .L0 
     /tmp/cchpxuxe.s:801    .text:0000000000000348 .L0 
 src/../h/kernel.hpp:175    .text:0000000000000348 .L0 
     /tmp/cchpxuxe.s:809    .text:0000000000000350 .L0 
     /tmp/cchpxuxe.s:810    .text:0000000000000350 .L0 
     /tmp/cchpxuxe.s:813    .text:0000000000000358 .L0 
     /tmp/cchpxuxe.s:815    .text:000000000000035c .L0 
     /tmp/cchpxuxe.s:822    .text:0000000000000368 .L0 
     /tmp/cchpxuxe.s:823    .text:0000000000000368 .L0 
     /tmp/cchpxuxe.s:830    .text:0000000000000374 .L0 
 src/../h/kernel.hpp:178    .text:0000000000000374 .L0 
     /tmp/cchpxuxe.s:837    .text:0000000000000378 .L0 
     /tmp/cchpxuxe.s:842    .text:000000000000037c .L0 
     /tmp/cchpxuxe.s:845    .text:000000000000037c .L0 
     /tmp/cchpxuxe.s:846    .text:000000000000037c .L0 
     /tmp/cchpxuxe.s:847    .text:000000000000037c .L0 
 src/../h/kernel.hpp:184    .text:000000000000037c .L0 
     /tmp/cchpxuxe.s:855    .text:0000000000000384 .L0 
     /tmp/cchpxuxe.s:856    .text:0000000000000384 .L0 
     /tmp/cchpxuxe.s:860    .text:0000000000000390 .L0 
     /tmp/cchpxuxe.s:865    .text:0000000000000394 .L0 
     /tmp/cchpxuxe.s:868    .text:0000000000000394 .L0 
     /tmp/cchpxuxe.s:869    .text:0000000000000394 .L0 
     /tmp/cchpxuxe.s:870    .text:0000000000000394 .L0 
 src/../h/kernel.hpp:193    .text:0000000000000394 .L0 
     /tmp/cchpxuxe.s:878    .text:000000000000039c .L0 
     /tmp/cchpxuxe.s:879    .text:000000000000039c .L0 
     /tmp/cchpxuxe.s:883    .text:00000000000003a8 .L0 
     /tmp/cchpxuxe.s:888    .text:00000000000003ac .L0 
     /tmp/cchpxuxe.s:891    .text:00000000000003ac .L0 
     /tmp/cchpxuxe.s:892    .text:00000000000003ac .L0 
     /tmp/cchpxuxe.s:893    .text:00000000000003ac .L0 
 src/../h/kernel.hpp:200    .text:00000000000003ac .L0 
     /tmp/cchpxuxe.s:901    .text:00000000000003b4 .L0 
     /tmp/cchpxuxe.s:902    .text:00000000000003b4 .L0 
GAS LISTING /tmp/cchpxuxe.s 			page 40


     /tmp/cchpxuxe.s:906    .text:00000000000003c0 .L0 
     /tmp/cchpxuxe.s:911    .text:00000000000003c4 .L0 
     /tmp/cchpxuxe.s:914    .text:00000000000003c4 .L0 
     /tmp/cchpxuxe.s:915    .text:00000000000003c4 .L0 
     /tmp/cchpxuxe.s:916    .text:00000000000003c4 .L0 
     /tmp/cchpxuxe.s:917    .text:00000000000003c4 .L0 
     /tmp/cchpxuxe.s:920    .text:00000000000003cc .L0 
     /tmp/cchpxuxe.s:922    .text:00000000000003d0 .L0 
     /tmp/cchpxuxe.s:923    .text:00000000000003d0 .L0 
 src/../h/kernel.hpp:210    .text:00000000000003d4 .L0 
     /tmp/cchpxuxe.s:931    .text:00000000000003d8 .L0 
     /tmp/cchpxuxe.s:936    .text:00000000000003dc .L0 
     /tmp/cchpxuxe.s:939    .text:00000000000003dc .L0 
     /tmp/cchpxuxe.s:940    .text:00000000000003dc .L0 
     /tmp/cchpxuxe.s:941    .text:00000000000003dc .L0 
 src/../h/kernel.hpp:216    .text:00000000000003dc .L0 
     /tmp/cchpxuxe.s:949    .text:00000000000003e4 .L0 
     /tmp/cchpxuxe.s:950    .text:00000000000003e4 .L0 
     /tmp/cchpxuxe.s:955    .text:00000000000003f4 .L0 
     /tmp/cchpxuxe.s:960    .text:00000000000003f8 .L0 
     /tmp/cchpxuxe.s:961    .text:00000000000003f8 .L0 
 src/../h/kernel.hpp:100    .text:00000000000003f8 .L0 
     /tmp/cchpxuxe.s:967    .text:00000000000003fc .L0 
     /tmp/cchpxuxe.s:969    .text:00000000000003fc .L0 
     /tmp/cchpxuxe.s:973    .text:000000000000040c .L0 
     /tmp/cchpxuxe.s:983    .text:0000000000000410 .L0 
     /tmp/cchpxuxe.s:984    .text:0000000000000410 .L0 
     /tmp/cchpxuxe.s:987    .text:000000000000041c .L0 
     /tmp/cchpxuxe.s:989    .text:0000000000000420 .L0 
     /tmp/cchpxuxe.s:990    .text:0000000000000420 .L0 
     /tmp/cchpxuxe.s:995    .text:0000000000000428 .L0 
     /tmp/cchpxuxe.s:996    .text:0000000000000428 .L0 
     /tmp/cchpxuxe.s:997    .text:0000000000000428 .L0 
     /tmp/cchpxuxe.s:1006   .text:000000000000043c .L0 
     /tmp/cchpxuxe.s:1010   .text:000000000000043c .L0 
     /tmp/cchpxuxe.s:1011   .text:000000000000043c .L0 
     /tmp/cchpxuxe.s:1017   .text:0000000000000448 .L0 
     /tmp/cchpxuxe.s:1018   .text:0000000000000448 .L0 
     /tmp/cchpxuxe.s:1023   .text:000000000000044c .L0 
     /tmp/cchpxuxe.s:1030   .text:0000000000000450 .L0 
     /tmp/cchpxuxe.s:1031   .text:0000000000000450 .L0 
     /tmp/cchpxuxe.s:1032   .text:0000000000000450 .L0 
     /tmp/cchpxuxe.s:1042   .text:0000000000000458 .L0 
     /tmp/cchpxuxe.s:1048   .text:000000000000045c .L0 
     /tmp/cchpxuxe.s:1049   .text:000000000000045c .L0 
     /tmp/cchpxuxe.s:1050   .text:000000000000045c .L0 
     /tmp/cchpxuxe.s:1060   .text:0000000000000464 .L0 
     /tmp/cchpxuxe.s:1067   .text:0000000000000468 .L0 
     /tmp/cchpxuxe.s:1068   .text:0000000000000468 .L0 
     /tmp/cchpxuxe.s:1069   .text:0000000000000468 .L0 
  src/../h/riscv.hpp:94     .text:0000000000000468 .L0 
     /tmp/cchpxuxe.s:1077   .text:0000000000000470 .L0 
     /tmp/cchpxuxe.s:1078   .text:0000000000000470 .L0 
     /tmp/cchpxuxe.s:1085   .text:0000000000000474 .L0 
     /tmp/cchpxuxe.s:1086   .text:0000000000000474 .L0 
     /tmp/cchpxuxe.s:1087   .text:0000000000000474 .L0 
  src/../h/riscv.hpp:122    .text:0000000000000474 .L0 
GAS LISTING /tmp/cchpxuxe.s 			page 41


     /tmp/cchpxuxe.s:1095   .text:000000000000047c .L0 
     /tmp/cchpxuxe.s:1096   .text:000000000000047c .L0 
     /tmp/cchpxuxe.s:1103   .text:0000000000000480 .L0 
     /tmp/cchpxuxe.s:1104   .text:0000000000000480 .L0 
     /tmp/cchpxuxe.s:1105   .text:0000000000000480 .L0 
     /tmp/cchpxuxe.s:1110   .text:000000000000048c .L0 
     /tmp/cchpxuxe.s:1111   .text:000000000000048c .L0 
     /tmp/cchpxuxe.s:1116   .text:0000000000000494 .L0 
     /tmp/cchpxuxe.s:1117   .text:0000000000000494 .L0 
  src/../h/riscv.hpp:127    .text:0000000000000494 .L0 
     /tmp/cchpxuxe.s:1129   .text:0000000000000498 .L0 
     /tmp/cchpxuxe.s:1130   .text:0000000000000498 .L0 
  src/../h/riscv.hpp:99     .text:0000000000000498 .L0 
     /tmp/cchpxuxe.s:1137   .text:000000000000049c .L0 
     /tmp/cchpxuxe.s:1147   .text:00000000000004a0 .L0 
     /tmp/cchpxuxe.s:1148   .text:00000000000004a0 .L0 
     /tmp/cchpxuxe.s:1153   .text:00000000000004a8 .L0 
     /tmp/cchpxuxe.s:1154   .text:00000000000004a8 .L0 
     /tmp/cchpxuxe.s:1155   .text:00000000000004a8 .L0 
     /tmp/cchpxuxe.s:1165   .text:00000000000004b0 .L0 
     /tmp/cchpxuxe.s:1166   .text:00000000000004b4 .L0 
     /tmp/cchpxuxe.s:1177   .text:00000000000004b4 .L0 
     /tmp/cchpxuxe.s:28     .text:0000000000000018 .L0 
     /tmp/cchpxuxe.s:61     .rodata.str1.8:0000000000000000 .LC0
     /tmp/cchpxuxe.s:121    .text:0000000000000094 .L0 
     /tmp/cchpxuxe.s:168    .rodata.str1.8:0000000000000028 .LC2
     /tmp/cchpxuxe.s:256    .text:0000000000000138 .L0 
     /tmp/cchpxuxe.s:171    .rodata.str1.8:0000000000000040 .LC3
     /tmp/cchpxuxe.s:261    .text:0000000000000148 .L0 
     /tmp/cchpxuxe.s:174    .rodata.str1.8:0000000000000050 .LC4
     /tmp/cchpxuxe.s:276    .text:0000000000000170 .L0 
     /tmp/cchpxuxe.s:391    .rodata:0000000000000000 .L13
     /tmp/cchpxuxe.s:383    .text:00000000000001ec .L0 
     /tmp/cchpxuxe.s:631    .text:0000000000000290 .L0 
     /tmp/cchpxuxe.s:165    .rodata.str1.8:0000000000000008 .LC1
     /tmp/cchpxuxe.s:969    .text:00000000000003fc .L0 
     /tmp/cchpxuxe.s:984    .text:0000000000000410 .L0 
     /tmp/cchpxuxe.s:997    .text:0000000000000428 .L0 
     /tmp/cchpxuxe.s:1011   .text:000000000000043c .L0 
     /tmp/cchpxuxe.s:1105   .text:0000000000000480 .L0 
     /tmp/cchpxuxe.s:109    .text:0000000000000084 .L5
     /tmp/cchpxuxe.s:91     .text:0000000000000064 .L4
     /tmp/cchpxuxe.s:320    .text:00000000000001b8 .L37
     /tmp/cchpxuxe.s:975    .text:0000000000000410 .L38
     /tmp/cchpxuxe.s:1139   .text:00000000000004a0 .L39
     /tmp/cchpxuxe.s:956    .text:00000000000003f8 .L11
     /tmp/cchpxuxe.s:300    .text:000000000000019c .L9
     /tmp/cchpxuxe.s:479    .text:0000000000000218 .L26
     /tmp/cchpxuxe.s:826    .text:0000000000000374 .L30
     /tmp/cchpxuxe.s:1044   .text:000000000000045c .L40
     /tmp/cchpxuxe.s:1061   .text:0000000000000468 .L41
     /tmp/cchpxuxe.s:1025   .text:0000000000000450 .L34
     /tmp/cchpxuxe.s:460    .text:0000000000000204 .L25
     /tmp/cchpxuxe.s:534    .text:0000000000000230 .L24
     /tmp/cchpxuxe.s:557    .text:0000000000000248 .L23
     /tmp/cchpxuxe.s:622    .text:0000000000000290 .L22
     /tmp/cchpxuxe.s:657    .text:00000000000002b4 .L21
GAS LISTING /tmp/cchpxuxe.s 			page 42


     /tmp/cchpxuxe.s:670    .text:00000000000002c0 .L20
     /tmp/cchpxuxe.s:735    .text:0000000000000308 .L19
     /tmp/cchpxuxe.s:792    .text:0000000000000348 .L18
     /tmp/cchpxuxe.s:838    .text:000000000000037c .L17
     /tmp/cchpxuxe.s:861    .text:0000000000000394 .L16
     /tmp/cchpxuxe.s:884    .text:00000000000003ac .L15
     /tmp/cchpxuxe.s:907    .text:00000000000003c4 .L14
     /tmp/cchpxuxe.s:932    .text:00000000000003dc .L12
     /tmp/cchpxuxe.s:4026   .debug_abbrev:0000000000000000 .Ldebug_abbrev0
     /tmp/cchpxuxe.s:5969   .debug_str:0000000000000efe .LASF288
     /tmp/cchpxuxe.s:5573   .debug_str:0000000000000277 .LASF289
     /tmp/cchpxuxe.s:5925   .debug_str:0000000000000dcc .LASF290
     /tmp/cchpxuxe.s:5      .text:0000000000000000 .Ltext0
     /tmp/cchpxuxe.s:1169   .text:00000000000004b4 .Letext0
     /tmp/cchpxuxe.s:5503   .debug_line:0000000000000000 .Ldebug_line0
     /tmp/cchpxuxe.s:5689   .debug_str:000000000000061b .LASF0
     /tmp/cchpxuxe.s:5731   .debug_str:000000000000078d .LASF1
     /tmp/cchpxuxe.s:5885   .debug_str:0000000000000c84 .LASF2
     /tmp/cchpxuxe.s:5633   .debug_str:000000000000043c .LASF3
     /tmp/cchpxuxe.s:5507   .debug_str:0000000000000008 .LASF4
     /tmp/cchpxuxe.s:5895   .debug_str:0000000000000cd2 .LASF5
     /tmp/cchpxuxe.s:5701   .debug_str:0000000000000669 .LASF6
     /tmp/cchpxuxe.s:5527   .debug_str:00000000000000cc .LASF7
     /tmp/cchpxuxe.s:5847   .debug_str:0000000000000b96 .LASF8
     /tmp/cchpxuxe.s:5833   .debug_str:0000000000000b13 .LASF9
     /tmp/cchpxuxe.s:5721   .debug_str:000000000000073f .LASF10
     /tmp/cchpxuxe.s:5659   .debug_str:00000000000004de .LASF11
     /tmp/cchpxuxe.s:5669   .debug_str:0000000000000544 .LASF12
     /tmp/cchpxuxe.s:5581   .debug_str:00000000000002c7 .LASF13
     /tmp/cchpxuxe.s:5645   .debug_str:0000000000000495 .LASF14
     /tmp/cchpxuxe.s:5599   .debug_str:0000000000000350 .LASF15
     /tmp/cchpxuxe.s:5579   .debug_str:00000000000002b7 .LASF16
     /tmp/cchpxuxe.s:5941   .debug_str:0000000000000e4c .LASF17
     /tmp/cchpxuxe.s:5627   .debug_str:000000000000040d .LASF18
     /tmp/cchpxuxe.s:5931   .debug_str:0000000000000e0c .LASF19
     /tmp/cchpxuxe.s:5823   .debug_str:0000000000000ab1 .LASF35
     /tmp/cchpxuxe.s:5963   .debug_str:0000000000000ee2 .LASF291
     /tmp/cchpxuxe.s:5729   .debug_str:0000000000000788 .LASF20
     /tmp/cchpxuxe.s:5543   .debug_str:000000000000016a .LASF21
     /tmp/cchpxuxe.s:5583   .debug_str:00000000000002d6 .LASF22
     /tmp/cchpxuxe.s:6097   .debug_str:00000000000013a4 .LASF72
     /tmp/cchpxuxe.s:5667   .debug_str:0000000000000524 .LASF74
     /tmp/cchpxuxe.s:5999   .debug_str:000000000000108f .LASF27
     /tmp/cchpxuxe.s:5707   .debug_str:0000000000000692 .LASF29
     /tmp/cchpxuxe.s:5779   .debug_str:0000000000000937 .LASF23
     /tmp/cchpxuxe.s:5903   .debug_str:0000000000000cfe .LASF25
     /tmp/cchpxuxe.s:5881   .debug_str:0000000000000c71 .LASF24
     /tmp/cchpxuxe.s:5831   .debug_str:0000000000000af3 .LASF26
     /tmp/cchpxuxe.s:6069   .debug_str:00000000000012c0 .LASF108
     /tmp/cchpxuxe.s:5725   .debug_str:000000000000076a .LASF28
     /tmp/cchpxuxe.s:5799   .debug_str:00000000000009e6 .LASF30
     /tmp/cchpxuxe.s:5629   .debug_str:0000000000000423 .LASF31
     /tmp/cchpxuxe.s:6029   .debug_str:000000000000118a .LASF32
     /tmp/cchpxuxe.s:6091   .debug_str:000000000000136f .LASF33
     /tmp/cchpxuxe.s:5547   .debug_str:000000000000018a .LASF34
     /tmp/cchpxuxe.s:5587   .debug_str:00000000000002f4 .LASF160
     /tmp/cchpxuxe.s:5959   .debug_str:0000000000000eab .LASF161
GAS LISTING /tmp/cchpxuxe.s 			page 43


     /tmp/cchpxuxe.s:6001   .debug_str:0000000000001094 .LASF36
     /tmp/cchpxuxe.s:5561   .debug_str:0000000000000212 .LASF37
     /tmp/cchpxuxe.s:6043   .debug_str:00000000000011fb .LASF38
     /tmp/cchpxuxe.s:5865   .debug_str:0000000000000c02 .LASF39
     /tmp/cchpxuxe.s:5679   .debug_str:00000000000005b3 .LASF40
     /tmp/cchpxuxe.s:5787   .debug_str:0000000000000982 .LASF41
     /tmp/cchpxuxe.s:5905   .debug_str:0000000000000d1d .LASF42
     /tmp/cchpxuxe.s:5671   .debug_str:0000000000000552 .LASF43
     /tmp/cchpxuxe.s:5691   .debug_str:0000000000000628 .LASF44
     /tmp/cchpxuxe.s:5793   .debug_str:00000000000009b0 .LASF45
     /tmp/cchpxuxe.s:5653   .debug_str:00000000000004bd .LASF48
     /tmp/cchpxuxe.s:5591   .debug_str:0000000000000312 .LASF50
     /tmp/cchpxuxe.s:5803   .debug_str:0000000000000a0f .LASF46
     /tmp/cchpxuxe.s:5981   .debug_str:0000000000001026 .LASF47
     /tmp/cchpxuxe.s:6031   .debug_str:00000000000011bb .LASF49
     /tmp/cchpxuxe.s:6051   .debug_str:0000000000001221 .LASF51
     /tmp/cchpxuxe.s:5861   .debug_str:0000000000000bee .LASF52
     /tmp/cchpxuxe.s:6075   .debug_str:00000000000012f8 .LASF53
     /tmp/cchpxuxe.s:5595   .debug_str:000000000000033b .LASF54
     /tmp/cchpxuxe.s:5569   .debug_str:0000000000000241 .LASF55
     /tmp/cchpxuxe.s:5607   .debug_str:0000000000000386 .LASF56
     /tmp/cchpxuxe.s:5723   .debug_str:0000000000000752 .LASF57
     /tmp/cchpxuxe.s:5765   .debug_str:0000000000000895 .LASF58
     /tmp/cchpxuxe.s:6053   .debug_str:0000000000001236 .LASF59
     /tmp/cchpxuxe.s:5983   .debug_str:000000000000103f .LASF60
     /tmp/cchpxuxe.s:5901   .debug_str:0000000000000ce4 .LASF61
     /tmp/cchpxuxe.s:5853   .debug_str:0000000000000bb2 .LASF62
     /tmp/cchpxuxe.s:5737   .debug_str:00000000000007bc .LASF63
     /tmp/cchpxuxe.s:5631   .debug_str:000000000000042f .LASF64
     /tmp/cchpxuxe.s:5635   .debug_str:0000000000000442 .LASF65
     /tmp/cchpxuxe.s:5943   .debug_str:0000000000000e58 .LASF66
     /tmp/cchpxuxe.s:5913   .debug_str:0000000000000d6f .LASF67
     /tmp/cchpxuxe.s:5849   .debug_str:0000000000000b9d .LASF68
     /tmp/cchpxuxe.s:5693   .debug_str:0000000000000635 .LASF69
     /tmp/cchpxuxe.s:5505   .debug_str:0000000000000000 .LASF70
     /tmp/cchpxuxe.s:5977   .debug_str:0000000000001007 .LASF71
     /tmp/cchpxuxe.s:5917   .debug_str:0000000000000d8b .LASF117
     /tmp/cchpxuxe.s:5727   .debug_str:0000000000000773 .LASF119
     /tmp/cchpxuxe.s:5949   .debug_str:0000000000000e7c .LASF153
     /tmp/cchpxuxe.s:6081   .debug_str:0000000000001318 .LASF73
     /tmp/cchpxuxe.s:5577   .debug_str:000000000000029b .LASF75
     /tmp/cchpxuxe.s:5817   .debug_str:0000000000000a90 .LASF292
     /tmp/cchpxuxe.s:5785   .debug_str:000000000000096d .LASF76
     /tmp/cchpxuxe.s:5919   .debug_str:0000000000000d94 .LASF77
     /tmp/cchpxuxe.s:5995   .debug_str:0000000000001073 .LASF78
     /tmp/cchpxuxe.s:6095   .debug_str:000000000000137d .LASF79
     /tmp/cchpxuxe.s:5951   .debug_str:0000000000000e84 .LASF82
     /tmp/cchpxuxe.s:5795   .debug_str:00000000000009ca .LASF84
     /tmp/cchpxuxe.s:5553   .debug_str:00000000000001dd .LASF80
     /tmp/cchpxuxe.s:5815   .debug_str:0000000000000a79 .LASF81
     /tmp/cchpxuxe.s:5889   .debug_str:0000000000000c9f .LASF83
     /tmp/cchpxuxe.s:5575   .debug_str:0000000000000286 .LASF85
     /tmp/cchpxuxe.s:5953   .debug_str:0000000000000e8f .LASF86
     /tmp/cchpxuxe.s:5641   .debug_str:0000000000000470 .LASF87
     /tmp/cchpxuxe.s:5739   .debug_str:00000000000007d5 .LASF88
     /tmp/cchpxuxe.s:6015   .debug_str:0000000000001102 .LASF89
     /tmp/cchpxuxe.s:5965   .debug_str:0000000000000eea .LASF293
GAS LISTING /tmp/cchpxuxe.s 			page 44


     /tmp/cchpxuxe.s:5619   .debug_str:00000000000003d0 .LASF90
     /tmp/cchpxuxe.s:5589   .debug_str:00000000000002ff .LASF91
     /tmp/cchpxuxe.s:5621   .debug_str:00000000000003d9 .LASF92
     /tmp/cchpxuxe.s:5891   .debug_str:0000000000000ca9 .LASF93
     /tmp/cchpxuxe.s:5753   .debug_str:000000000000082d .LASF94
     /tmp/cchpxuxe.s:5675   .debug_str:0000000000000588 .LASF95
     /tmp/cchpxuxe.s:5811   .debug_str:0000000000000a5b .LASF96
     /tmp/cchpxuxe.s:6009   .debug_str:00000000000010ad .LASF97
     /tmp/cchpxuxe.s:5897   .debug_str:0000000000000cd9 .LASF98
     /tmp/cchpxuxe.s:5521   .debug_str:000000000000009a .LASF99
     /tmp/cchpxuxe.s:6087   .debug_str:0000000000001359 .LASF100
     /tmp/cchpxuxe.s:5665   .debug_str:0000000000000518 .LASF101
     /tmp/cchpxuxe.s:5565   .debug_str:0000000000000225 .LASF102
     /tmp/cchpxuxe.s:5655   .debug_str:00000000000004c8 .LASF103
     /tmp/cchpxuxe.s:5513   .debug_str:000000000000002b .LASF104
     /tmp/cchpxuxe.s:5763   .debug_str:0000000000000888 .LASF105
     /tmp/cchpxuxe.s:5929   .debug_str:0000000000000df9 .LASF106
     /tmp/cchpxuxe.s:5887   .debug_str:0000000000000c92 .LASF107
     /tmp/cchpxuxe.s:5509   .debug_str:000000000000000f .LASF138
     /tmp/cchpxuxe.s:5909   .debug_str:0000000000000d3a .LASF109
     /tmp/cchpxuxe.s:5511   .debug_str:0000000000000026 .LASF110
     /tmp/cchpxuxe.s:6079   .debug_str:0000000000001313 .LASF111
     /tmp/cchpxuxe.s:5923   .debug_str:0000000000000dc6 .LASF112
     /tmp/cchpxuxe.s:5947   .debug_str:0000000000000e73 .LASF113
     /tmp/cchpxuxe.s:5813   .debug_str:0000000000000a71 .LASF114
     /tmp/cchpxuxe.s:5975   .debug_str:0000000000000ffd .LASF115
     /tmp/cchpxuxe.s:5997   .debug_str:0000000000001087 .LASF116
     /tmp/cchpxuxe.s:5609   .debug_str:0000000000000391 .LASF118
     /tmp/cchpxuxe.s:5519   .debug_str:0000000000000072 .LASF120
     /tmp/cchpxuxe.s:5563   .debug_str:0000000000000217 .LASF121
     /tmp/cchpxuxe.s:5741   .debug_str:00000000000007e2 .LASF123
     /tmp/cchpxuxe.s:5643   .debug_str:0000000000000486 .LASF122
     /tmp/cchpxuxe.s:6083   .debug_str:0000000000001322 .LASF124
     /tmp/cchpxuxe.s:5867   .debug_str:0000000000000c07 .LASF125
     /tmp/cchpxuxe.s:5927   .debug_str:0000000000000def .LASF126
     /tmp/cchpxuxe.s:5761   .debug_str:0000000000000874 .LASF127
     /tmp/cchpxuxe.s:5743   .debug_str:00000000000007fb .LASF128
     /tmp/cchpxuxe.s:5851   .debug_str:0000000000000ba6 .LASF129
     /tmp/cchpxuxe.s:5825   .debug_str:0000000000000ac1 .LASF130
     /tmp/cchpxuxe.s:5769   .debug_str:00000000000008b9 .LASF131
     /tmp/cchpxuxe.s:5557   .debug_str:00000000000001f6 .LASF132
     /tmp/cchpxuxe.s:5733   .debug_str:00000000000007a0 .LASF133
     /tmp/cchpxuxe.s:5661   .debug_str:00000000000004ee .LASF134
     /tmp/cchpxuxe.s:5967   .debug_str:0000000000000ef2 .LASF135
     /tmp/cchpxuxe.s:5719   .debug_str:0000000000000732 .LASF136
     /tmp/cchpxuxe.s:5637   .debug_str:000000000000045c .LASF137
     /tmp/cchpxuxe.s:5567   .debug_str:0000000000000235 .LASF139
     /tmp/cchpxuxe.s:6077   .debug_str:000000000000130e .LASF140
     /tmp/cchpxuxe.s:5855   .debug_str:0000000000000bbe .LASF141
     /tmp/cchpxuxe.s:5657   .debug_str:00000000000004d4 .LASF142
     /tmp/cchpxuxe.s:5597   .debug_str:0000000000000345 .LASF143
     /tmp/cchpxuxe.s:5979   .debug_str:000000000000101b .LASF144
     /tmp/cchpxuxe.s:5945   .debug_str:0000000000000e5f .LASF294
     /tmp/cchpxuxe.s:5683   .debug_str:00000000000005db .LASF145
     /tmp/cchpxuxe.s:6101   .debug_str:00000000000013b5 .LASF146
     /tmp/cchpxuxe.s:6025   .debug_str:000000000000115a .LASF147
     /tmp/cchpxuxe.s:5529   .debug_str:00000000000000d3 .LASF148
GAS LISTING /tmp/cchpxuxe.s 			page 45


     /tmp/cchpxuxe.s:6011   .debug_str:00000000000010ce .LASF149
     /tmp/cchpxuxe.s:5985   .debug_str:000000000000104c .LASF150
     /tmp/cchpxuxe.s:5773   .debug_str:00000000000008e1 .LASF151
     /tmp/cchpxuxe.s:5835   .debug_str:0000000000000b26 .LASF152
     /tmp/cchpxuxe.s:5613   .debug_str:00000000000003a9 .LASF154
     /tmp/cchpxuxe.s:5989   .debug_str:000000000000105d .LASF155
     /tmp/cchpxuxe.s:5517   .debug_str:0000000000000053 .LASF156
     /tmp/cchpxuxe.s:5535   .debug_str:0000000000000118 .LASF157
     /tmp/cchpxuxe.s:5515   .debug_str:000000000000003b .LASF158
     /tmp/cchpxuxe.s:5585   .debug_str:00000000000002db .LASF159
     /tmp/cchpxuxe.s:5767   .debug_str:00000000000008a0 .LASF162
     /tmp/cchpxuxe.s:5937   .debug_str:0000000000000e3c .LASF163
     /tmp/cchpxuxe.s:5797   .debug_str:00000000000009e1 .LASF164
     /tmp/cchpxuxe.s:5789   .debug_str:000000000000099a .LASF165
     /tmp/cchpxuxe.s:5933   .debug_str:0000000000000e22 .LASF166
     /tmp/cchpxuxe.s:5625   .debug_str:00000000000003f6 .LASF167
     /tmp/cchpxuxe.s:5611   .debug_str:000000000000039f .LASF295
     /tmp/cchpxuxe.s:5871   .debug_str:0000000000000c29 .LASF296
     /tmp/cchpxuxe.s:6007   .debug_str:00000000000010a4 .LASF168
     /tmp/cchpxuxe.s:5681   .debug_str:00000000000005be .LASF169
     /tmp/cchpxuxe.s:5735   .debug_str:00000000000007b4 .LASF170
     /tmp/cchpxuxe.s:5781   .debug_str:000000000000093f .LASF171
     /tmp/cchpxuxe.s:5893   .debug_str:0000000000000cc8 .LASF172
     /tmp/cchpxuxe.s:5663   .debug_str:00000000000004fa .LASF173
     /tmp/cchpxuxe.s:5879   .debug_str:0000000000000c67 .LASF174
     /tmp/cchpxuxe.s:5673   .debug_str:000000000000056d .LASF175
     /tmp/cchpxuxe.s:6039   .debug_str:00000000000011ea .LASF176
     /tmp/cchpxuxe.s:6055   .debug_str:000000000000124e .LASF177
     /tmp/cchpxuxe.s:5821   .debug_str:0000000000000aa8 .LASF178
     /tmp/cchpxuxe.s:5525   .debug_str:00000000000000b2 .LASF179
     /tmp/cchpxuxe.s:6099   .debug_str:00000000000013ad .LASF180
     /tmp/cchpxuxe.s:5841   .debug_str:0000000000000b50 .LASF181
     /tmp/cchpxuxe.s:5957   .debug_str:0000000000000e9f .LASF182
     /tmp/cchpxuxe.s:5859   .debug_str:0000000000000bd0 .LASF183
     /tmp/cchpxuxe.s:5545   .debug_str:000000000000016f .LASF297
     /tmp/cchpxuxe.s:5623   .debug_str:00000000000003ed .LASF184
     /tmp/cchpxuxe.s:6093   .debug_str:0000000000001378 .LASF185
     /tmp/cchpxuxe.s:5699   .debug_str:0000000000000663 .LASF186
     /tmp/cchpxuxe.s:5915   .debug_str:0000000000000d82 .LASF187
     /tmp/cchpxuxe.s:5829   .debug_str:0000000000000adf .LASF188
     /tmp/cchpxuxe.s:5863   .debug_str:0000000000000bf8 .LASF189
     /tmp/cchpxuxe.s:5875   .debug_str:0000000000000c46 .LASF190
     /tmp/cchpxuxe.s:5899   .debug_str:0000000000000cde .LASF191
     /tmp/cchpxuxe.s:6071   .debug_str:00000000000012c9 .LASF192
     /tmp/cchpxuxe.s:5705   .debug_str:000000000000068c .LASF193
     /tmp/cchpxuxe.s:6019   .debug_str:0000000000001125 .LASF194
     /tmp/cchpxuxe.s:5921   .debug_str:0000000000000dbc .LASF195
     /tmp/cchpxuxe.s:5837   .debug_str:0000000000000b30 .LASF196
     /tmp/cchpxuxe.s:5873   .debug_str:0000000000000c40 .LASF197
     /tmp/cchpxuxe.s:5697   .debug_str:0000000000000652 .LASF198
     /tmp/cchpxuxe.s:5987   .debug_str:0000000000001056 .LASF199
     /tmp/cchpxuxe.s:5805   .debug_str:0000000000000a1b .LASF200
     /tmp/cchpxuxe.s:6047   .debug_str:000000000000120d .LASF201
     /tmp/cchpxuxe.s:5593   .debug_str:000000000000032a .LASF202
     /tmp/cchpxuxe.s:5843   .debug_str:0000000000000b69 .LASF203
     /tmp/cchpxuxe.s:6063   .debug_str:00000000000012a0 .LASF204
     /tmp/cchpxuxe.s:6089   .debug_str:0000000000001366 .LASF205
GAS LISTING /tmp/cchpxuxe.s 			page 46


     /tmp/cchpxuxe.s:5759   .debug_str:0000000000000860 .LASF206
     /tmp/cchpxuxe.s:5639   .debug_str:0000000000000469 .LASF207
     /tmp/cchpxuxe.s:5559   .debug_str:0000000000000200 .LASF208
     /tmp/cchpxuxe.s:5801   .debug_str:0000000000000a06 .LASF209
     /tmp/cchpxuxe.s:5713   .debug_str:00000000000006cf .LASF210
     /tmp/cchpxuxe.s:5523   .debug_str:00000000000000a6 .LASF298
     /tmp/cchpxuxe.s:5993   .debug_str:000000000000106c .LASF211
     /tmp/cchpxuxe.s:5961   .debug_str:0000000000000eda .LASF212
     /tmp/cchpxuxe.s:6059   .debug_str:0000000000001278 .LASF213
     /tmp/cchpxuxe.s:6017   .debug_str:000000000000111b .LASF214
     /tmp/cchpxuxe.s:5605   .debug_str:000000000000037e .LASF215
     /tmp/cchpxuxe.s:5647   .debug_str:00000000000004a4 .LASF216
     /tmp/cchpxuxe.s:6065   .debug_str:00000000000012b2 .LASF217
     /tmp/cchpxuxe.s:5883   .debug_str:0000000000000c7a .LASF218
     /tmp/cchpxuxe.s:5695   .debug_str:000000000000064a .LASF219
     /tmp/cchpxuxe.s:5539   .debug_str:0000000000000152 .LASF220
     /tmp/cchpxuxe.s:5757   .debug_str:0000000000000859 .LASF221
     /tmp/cchpxuxe.s:5687   .debug_str:000000000000060e .LASF222
     /tmp/cchpxuxe.s:5877   .debug_str:0000000000000c5b .LASF223
     /tmp/cchpxuxe.s:5809   .debug_str:0000000000000a4e .LASF224
     /tmp/cchpxuxe.s:5677   .debug_str:00000000000005a7 .LASF225
     /tmp/cchpxuxe.s:6035   .debug_str:00000000000011c9 .LASF226
     /tmp/cchpxuxe.s:5939   .debug_str:0000000000000e41 .LASF227
     /tmp/cchpxuxe.s:5955   .debug_str:0000000000000e9a .LASF228
     /tmp/cchpxuxe.s:6067   .debug_str:00000000000012b9 .LASF229
     /tmp/cchpxuxe.s:6045   .debug_str:0000000000001200 .LASF230
     /tmp/cchpxuxe.s:5601   .debug_str:0000000000000360 .LASF231
     /tmp/cchpxuxe.s:5747   .debug_str:000000000000080f .LASF232
     /tmp/cchpxuxe.s:5991   .debug_str:0000000000001062 .LASF233
     /tmp/cchpxuxe.s:5839   .debug_str:0000000000000b45 .LASF234
     /tmp/cchpxuxe.s:5971   .debug_str:0000000000000fc2 .LASF235
     /tmp/cchpxuxe.s:5907   .debug_str:0000000000000d2b .LASF236
     /tmp/cchpxuxe.s:6085   .debug_str:000000000000133c .LASF237
     /tmp/cchpxuxe.s:5827   .debug_str:0000000000000ac9 .LASF238
     /tmp/cchpxuxe.s:5531   .debug_str:00000000000000e2 .LASF239
     /tmp/cchpxuxe.s:6057   .debug_str:0000000000001268 .LASF240
     /tmp/cchpxuxe.s:6073   .debug_str:00000000000012da .LASF241
     /tmp/cchpxuxe.s:5745   .debug_str:0000000000000800 .LASF242
     /tmp/cchpxuxe.s:5869   .debug_str:0000000000000c0c .LASF243
     /tmp/cchpxuxe.s:5533   .debug_str:0000000000000106 .LASF244
     /tmp/cchpxuxe.s:5571   .debug_str:0000000000000257 .LASF245
     /tmp/cchpxuxe.s:5791   .debug_str:000000000000099f .LASF246
     /tmp/cchpxuxe.s:6021   .debug_str:0000000000001136 .LASF247
     /tmp/cchpxuxe.s:6037   .debug_str:00000000000011d4 .LASF248
     /tmp/cchpxuxe.s:5911   .debug_str:0000000000000d4b .LASF249
     /tmp/cchpxuxe.s:6013   .debug_str:00000000000010ee .LASF250
     /tmp/cchpxuxe.s:5973   .debug_str:0000000000000fdb .LASF251
     /tmp/cchpxuxe.s:5755   .debug_str:0000000000000841 .LASF252
     /tmp/cchpxuxe.s:5845   .debug_str:0000000000000b70 .LASF253
     /tmp/cchpxuxe.s:5537   .debug_str:0000000000000130 .LASF254
     /tmp/cchpxuxe.s:5715   .debug_str:00000000000006e3 .LASF255
     /tmp/cchpxuxe.s:5541   .debug_str:0000000000000159 .LASF256
     /tmp/cchpxuxe.s:5551   .debug_str:00000000000001be .LASF257
     /tmp/cchpxuxe.s:5783   .debug_str:000000000000095b .LASF258
     /tmp/cchpxuxe.s:6061   .debug_str:0000000000001280 .LASF259
     /tmp/cchpxuxe.s:5703   .debug_str:000000000000067b .LASF260
     /tmp/cchpxuxe.s:5717   .debug_str:0000000000000713 .LASF261
GAS LISTING /tmp/cchpxuxe.s 			page 47


     /tmp/cchpxuxe.s:5617   .debug_str:00000000000003bd .LASF262
     /tmp/cchpxuxe.s:5807   .debug_str:0000000000000a2d .LASF263
     /tmp/cchpxuxe.s:5819   .debug_str:0000000000000a95 .LASF264
     /tmp/cchpxuxe.s:5777   .debug_str:0000000000000916 .LASF265
     /tmp/cchpxuxe.s:5857   .debug_str:0000000000000bc3 .LASF266
     /tmp/cchpxuxe.s:5685   .debug_str:00000000000005f3 .LASF267
     /tmp/cchpxuxe.s:5555   .debug_str:00000000000001e9 .LASF268
     /tmp/cchpxuxe.s:5775   .debug_str:00000000000008fb .LASF269
     /tmp/cchpxuxe.s:5649   .debug_str:00000000000004ab .LASF270
     /tmp/cchpxuxe.s:5709   .debug_str:00000000000006af .LASF271
     /tmp/cchpxuxe.s:68     .text:000000000000003c .LFB76
     /tmp/cchpxuxe.s:130    .text:00000000000000b0 .LFE76
     /tmp/cchpxuxe.s:5314   .debug_loc:0000000000000000 .LLST0
     /tmp/cchpxuxe.s:84     .text:0000000000000058 .LVL4
     /tmp/cchpxuxe.s:96     .text:0000000000000070 .LVL7
     /tmp/cchpxuxe.s:115    .text:000000000000008c .LVL8
     /tmp/cchpxuxe.s:123    .text:00000000000000a4 .LVL9
     /tmp/cchpxuxe.s:127    .text:00000000000000ac .LVL10
     /tmp/cchpxuxe.s:136    .text:00000000000000b0 .LFB75
     /tmp/cchpxuxe.s:161    .text:00000000000000d8 .LFE75
     /tmp/cchpxuxe.s:150    .text:00000000000000c8 .LVL11
     /tmp/cchpxuxe.s:181    .text:00000000000000d8 .LFB74
     /tmp/cchpxuxe.s:1167   .text:00000000000004b4 .LFE74
     /tmp/cchpxuxe.s:5935   .debug_str:0000000000000e35 .LASF272
     /tmp/cchpxuxe.s:5321   .debug_loc:0000000000000023 .LLST1
     /tmp/cchpxuxe.s:6033   .debug_str:00000000000011c4 .LASF273
     /tmp/cchpxuxe.s:5350   .debug_loc:00000000000000a7 .LLST2
     /tmp/cchpxuxe.s:323    .text:00000000000001b8 .LBB151
     /tmp/cchpxuxe.s:978    .text:0000000000000410 .LBE151
     /tmp/cchpxuxe.s:5357   .debug_loc:00000000000000ca .LLST3
     /tmp/cchpxuxe.s:6041   .debug_str:00000000000011f3 .LASF274
     /tmp/cchpxuxe.s:5364   .debug_loc:00000000000000ed .LLST4
     /tmp/cchpxuxe.s:325    .text:00000000000001b8 .LBB152
     /tmp/cchpxuxe.s:341    .text:00000000000001c4 .LBE152
     /tmp/cchpxuxe.s:346    .text:00000000000001c8 .LBB154
     /tmp/cchpxuxe.s:362    .text:00000000000001d4 .LBE154
     /tmp/cchpxuxe.s:364    .text:00000000000001d4 .LBB156
     /tmp/cchpxuxe.s:5495   .debug_ranges:0000000000000000 .Ldebug_ranges0
     /tmp/cchpxuxe.s:463    .text:0000000000000204 .LBB158
     /tmp/cchpxuxe.s:481    .text:0000000000000218 .LBE158
     /tmp/cchpxuxe.s:478    .text:0000000000000218 .LVL27
     /tmp/cchpxuxe.s:539    .text:0000000000000230 .LBB160
     /tmp/cchpxuxe.s:559    .text:0000000000000248 .LBE160
     /tmp/cchpxuxe.s:554    .text:0000000000000244 .LVL32
     /tmp/cchpxuxe.s:562    .text:0000000000000248 .LBB162
     /tmp/cchpxuxe.s:624    .text:0000000000000290 .LBE162
     /tmp/cchpxuxe.s:597    .text:0000000000000274 .LVL33
     /tmp/cchpxuxe.s:627    .text:0000000000000290 .LBB164
     /tmp/cchpxuxe.s:659    .text:00000000000002b4 .LBE164
     /tmp/cchpxuxe.s:634    .text:000000000000029c .LBB166
     /tmp/cchpxuxe.s:643    .text:00000000000002a4 .LBE166
     /tmp/cchpxuxe.s:5371   .debug_loc:0000000000000110 .LLST5
     /tmp/cchpxuxe.s:5379   .debug_loc:0000000000000134 .LLST6
     /tmp/cchpxuxe.s:654    .text:00000000000002b0 .LVL36
     /tmp/cchpxuxe.s:662    .text:00000000000002b4 .LBB168
     /tmp/cchpxuxe.s:672    .text:00000000000002c0 .LBE168
     /tmp/cchpxuxe.s:667    .text:00000000000002bc .LVL37
GAS LISTING /tmp/cchpxuxe.s 			page 48


     /tmp/cchpxuxe.s:675    .text:00000000000002c0 .LBB170
     /tmp/cchpxuxe.s:737    .text:0000000000000308 .LBE170
     /tmp/cchpxuxe.s:710    .text:00000000000002ec .LVL38
     /tmp/cchpxuxe.s:740    .text:0000000000000308 .LBB172
     /tmp/cchpxuxe.s:794    .text:0000000000000348 .LBE172
     /tmp/cchpxuxe.s:767    .text:000000000000032c .LVL39
     /tmp/cchpxuxe.s:797    .text:0000000000000348 .LBB174
     /tmp/cchpxuxe.s:840    .text:000000000000037c .LBE174
     /tmp/cchpxuxe.s:818    .text:0000000000000368 .LBB176
     /tmp/cchpxuxe.s:828    .text:0000000000000374 .LBE176
     /tmp/cchpxuxe.s:5386   .debug_loc:0000000000000157 .LLST7
     /tmp/cchpxuxe.s:825    .text:0000000000000374 .LVL41
     /tmp/cchpxuxe.s:817    .text:0000000000000368 .LVL40
     /tmp/cchpxuxe.s:843    .text:000000000000037c .LBB178
     /tmp/cchpxuxe.s:863    .text:0000000000000394 .LBE178
     /tmp/cchpxuxe.s:858    .text:0000000000000390 .LVL42
     /tmp/cchpxuxe.s:866    .text:0000000000000394 .LBB180
     /tmp/cchpxuxe.s:886    .text:00000000000003ac .LBE180
     /tmp/cchpxuxe.s:881    .text:00000000000003a8 .LVL43
     /tmp/cchpxuxe.s:889    .text:00000000000003ac .LBB182
     /tmp/cchpxuxe.s:909    .text:00000000000003c4 .LBE182
     /tmp/cchpxuxe.s:904    .text:00000000000003c0 .LVL44
     /tmp/cchpxuxe.s:912    .text:00000000000003c4 .LBB184
     /tmp/cchpxuxe.s:934    .text:00000000000003dc .LBE184
     /tmp/cchpxuxe.s:918    .text:00000000000003cc .LVL45
     /tmp/cchpxuxe.s:937    .text:00000000000003dc .LBB186
     /tmp/cchpxuxe.s:958    .text:00000000000003f8 .LBE186
     /tmp/cchpxuxe.s:953    .text:00000000000003f4 .LVL46
     /tmp/cchpxuxe.s:971    .text:000000000000040c .LVL47
     /tmp/cchpxuxe.s:493    .text:000000000000021c .LBB189
     /tmp/cchpxuxe.s:504    .text:0000000000000220 .LBE189
     /tmp/cchpxuxe.s:5393   .debug_loc:000000000000017a .LLST8
     /tmp/cchpxuxe.s:506    .text:0000000000000220 .LBB191
     /tmp/cchpxuxe.s:517    .text:0000000000000224 .LBE191
     /tmp/cchpxuxe.s:5400   .debug_loc:000000000000019d .LLST9
     /tmp/cchpxuxe.s:519    .text:0000000000000224 .LBB193
     /tmp/cchpxuxe.s:531    .text:000000000000022c .LBE193
     /tmp/cchpxuxe.s:5407   .debug_loc:00000000000001c0 .LLST10
     /tmp/cchpxuxe.s:1063   .text:0000000000000468 .LBB203
     /tmp/cchpxuxe.s:1142   .text:00000000000004a0 .LBE203
     /tmp/cchpxuxe.s:5415   .debug_loc:00000000000001e4 .LLST12
     /tmp/cchpxuxe.s:5422   .debug_loc:0000000000000207 .LLST13
     /tmp/cchpxuxe.s:1065   .text:0000000000000468 .LBB204
     /tmp/cchpxuxe.s:1081   .text:0000000000000474 .LBE204
     /tmp/cchpxuxe.s:1083   .text:0000000000000474 .LBB206
     /tmp/cchpxuxe.s:1099   .text:0000000000000480 .LBE206
     /tmp/cchpxuxe.s:1101   .text:0000000000000480 .LBB208
     /tmp/cchpxuxe.s:1108   .text:000000000000048c .LBE208
     /tmp/cchpxuxe.s:1114   .text:0000000000000494 .LBB210
     /tmp/cchpxuxe.s:1125   .text:0000000000000498 .LBE210
     /tmp/cchpxuxe.s:5429   .debug_loc:000000000000022a .LLST14
     /tmp/cchpxuxe.s:1127   .text:0000000000000498 .LBB212
     /tmp/cchpxuxe.s:1141   .text:00000000000004a0 .LBE212
     /tmp/cchpxuxe.s:5436   .debug_loc:000000000000024d .LLST15
     /tmp/cchpxuxe.s:1112   .text:0000000000000494 .LVL58
     /tmp/cchpxuxe.s:199    .text:00000000000000f4 .LBB148
     /tmp/cchpxuxe.s:215    .text:0000000000000100 .LBE148
GAS LISTING /tmp/cchpxuxe.s 			page 49


     /tmp/cchpxuxe.s:993    .text:0000000000000428 .LBB198
     /tmp/cchpxuxe.s:1002   .text:000000000000043c .LBE198
     /tmp/cchpxuxe.s:1014   .text:0000000000000448 .LBB201
     /tmp/cchpxuxe.s:1021   .text:000000000000044c .LBE201
     /tmp/cchpxuxe.s:5443   .debug_loc:0000000000000270 .LLST11
     /tmp/cchpxuxe.s:1028   .text:0000000000000450 .LBB214
     /tmp/cchpxuxe.s:1040   .text:0000000000000458 .LBE214
     /tmp/cchpxuxe.s:5450   .debug_loc:0000000000000293 .LLST16
     /tmp/cchpxuxe.s:1046   .text:000000000000045c .LBB216
     /tmp/cchpxuxe.s:1058   .text:0000000000000464 .LBE216
     /tmp/cchpxuxe.s:5458   .debug_loc:00000000000002b7 .LLST17
     /tmp/cchpxuxe.s:237    .text:000000000000012c .LBB220
     /tmp/cchpxuxe.s:253    .text:0000000000000138 .LBE220
     /tmp/cchpxuxe.s:290    .text:0000000000000198 .LBB222
     /tmp/cchpxuxe.s:302    .text:000000000000019c .LBE222
     /tmp/cchpxuxe.s:5466   .debug_loc:00000000000002db .LLST18
     /tmp/cchpxuxe.s:1151   .text:00000000000004a8 .LBB227
     /tmp/cchpxuxe.s:1163   .text:00000000000004b0 .LBE227
     /tmp/cchpxuxe.s:5473   .debug_loc:00000000000002fe .LLST19
     /tmp/cchpxuxe.s:258    .text:0000000000000148 .LVL14
     /tmp/cchpxuxe.s:263    .text:0000000000000158 .LVL15
     /tmp/cchpxuxe.s:268    .text:0000000000000164 .LVL16
     /tmp/cchpxuxe.s:273    .text:0000000000000170 .LVL17
     /tmp/cchpxuxe.s:278    .text:0000000000000180 .LVL18
     /tmp/cchpxuxe.s:283    .text:000000000000018c .LVL19
     /tmp/cchpxuxe.s:288    .text:0000000000000198 .LVL20
     /tmp/cchpxuxe.s:991    .text:0000000000000428 .LVL49
     /tmp/cchpxuxe.s:1149   .text:00000000000004a8 .LVL61
     /tmp/cchpxuxe.s:10     .text:0000000000000000 .LFB73
     /tmp/cchpxuxe.s:57     .text:000000000000003c .LFE73
     /tmp/cchpxuxe.s:30     .text:0000000000000020 .LBB72
     /tmp/cchpxuxe.s:42     .text:0000000000000024 .LBE72
     /tmp/cchpxuxe.s:25     .text:0000000000000018 .LVL0
     /tmp/cchpxuxe.s:46     .text:000000000000002c .LVL3
     /tmp/cchpxuxe.s:6003   .debug_str:000000000000109a .LASF275
     /tmp/cchpxuxe.s:6005   .debug_str:000000000000109f .LASF276
     /tmp/cchpxuxe.s:5711   .debug_str:00000000000006ca .LASF277
     /tmp/cchpxuxe.s:5603   .debug_str:0000000000000373 .LASF278
     /tmp/cchpxuxe.s:5651   .debug_str:00000000000004b8 .LASF279
     /tmp/cchpxuxe.s:6023   .debug_str:0000000000001155 .LASF280
     /tmp/cchpxuxe.s:5749   .debug_str:000000000000081c .LASF281
     /tmp/cchpxuxe.s:5751   .debug_str:0000000000000822 .LASF282
     /tmp/cchpxuxe.s:6049   .debug_str:0000000000001213 .LASF283
     /tmp/cchpxuxe.s:5771   .debug_str:00000000000008cb .LASF284
     /tmp/cchpxuxe.s:5615   .debug_str:00000000000003ae .LASF285
     /tmp/cchpxuxe.s:5549   .debug_str:00000000000001aa .LASF286
     /tmp/cchpxuxe.s:6027   .debug_str:000000000000117b .LASF287
     /tmp/cchpxuxe.s:86     .text:000000000000005c .LVL5
     /tmp/cchpxuxe.s:90     .text:0000000000000064 .LVL6
     /tmp/cchpxuxe.s:213    .text:0000000000000100 .LVL12
     /tmp/cchpxuxe.s:298    .text:000000000000019c .LVL21
     /tmp/cchpxuxe.s:319    .text:00000000000001b8 .LVL22
     /tmp/cchpxuxe.s:339    .text:00000000000001c4 .LVL23
     /tmp/cchpxuxe.s:380    .text:00000000000001e4 .LVL26
     /tmp/cchpxuxe.s:974    .text:0000000000000410 .LVL48
     /tmp/cchpxuxe.s:1024   .text:0000000000000450 .LVL52
     /tmp/cchpxuxe.s:1043   .text:000000000000045c .LVL54
GAS LISTING /tmp/cchpxuxe.s 			page 50


     /tmp/cchpxuxe.s:1079   .text:0000000000000474 .LVL56
     /tmp/cchpxuxe.s:1138   .text:00000000000004a0 .LVL60
     /tmp/cchpxuxe.s:251    .text:0000000000000138 .LVL13
     /tmp/cchpxuxe.s:344    .text:00000000000001c8 .LVL24
     /tmp/cchpxuxe.s:360    .text:00000000000001d4 .LVL25
     /tmp/cchpxuxe.s:633    .text:000000000000029c .LVL34
     /tmp/cchpxuxe.s:641    .text:00000000000002a4 .LVL35
     /tmp/cchpxuxe.s:491    .text:000000000000021c .LVL28
     /tmp/cchpxuxe.s:501    .text:0000000000000220 .LVL29
     /tmp/cchpxuxe.s:514    .text:0000000000000224 .LVL30
     /tmp/cchpxuxe.s:528    .text:000000000000022c .LVL31
     /tmp/cchpxuxe.s:1097   .text:0000000000000480 .LVL57
     /tmp/cchpxuxe.s:1122   .text:0000000000000498 .LVL59
     /tmp/cchpxuxe.s:1013   .text:0000000000000448 .LVL50
     /tmp/cchpxuxe.s:1019   .text:000000000000044c .LVL51
     /tmp/cchpxuxe.s:1037   .text:0000000000000458 .LVL53
     /tmp/cchpxuxe.s:1055   .text:0000000000000464 .LVL55
     /tmp/cchpxuxe.s:1160   .text:00000000000004b0 .LVL62
     /tmp/cchpxuxe.s:1178   .debug_info:0000000000000000 .Ldebug_info0
     /tmp/cchpxuxe.s:483    .text:0000000000000218 .LBE156
     /tmp/cchpxuxe.s:535    .text:0000000000000230 .LBB195
     /tmp/cchpxuxe.s:977    .text:0000000000000410 .LBE195

UNDEFINED SYMBOLS
_ZN15MemoryAllocator7initMemEv
_ZN6Kernel14supervisorTrapEv
_ZN4Uart8initUartEv
plic_claim
plic_complete
_ZN4Uart9getStatusEv
_Z14__print_stringPKc
_ZN4Uart9rxReceiveEv
_Z14__print_uint64m
_ZN4Uart5txPutEc
_ZN15MemoryAllocator8allocateEm
_ZN15MemoryAllocator4freeEPv
_ZN3TCB9createTCBEPFvPvES0_
_ZN3TCB7runningE
_ZN3TCB8dispatchEv
_ZN3TCB20createDeactivatedTCBEPFvPvES0_
_ZN3Sem9createSemEj
_ZN3SemD1Ev
_ZN3Sem7semWaitEv
_ZN3Sem9semSignalEv
_ZN9Scheduler9timeSleepEm
_ZN4Uart5rxGetEv
_ZN9Scheduler14timerInterruptEv
_ZN3TCB16timeSliceCounterE
