GAS LISTING /tmp/ccN8OYvr.s 			page 1


   1              		.file	"memory_allocator.cpp"
   2              		.option pic
   3              		.option norelax
   4              		.text
   5              	.Ltext0:
   6              		.align	2
   7              		.globl	_ZN15MemoryAllocator7initMemEv
   9              	_ZN15MemoryAllocator7initMemEv:
  10              	.LFB3:
  11              		.file 1 "src/memory_allocator.cpp"
   1:src/memory_allocator.cpp **** //
   2:src/memory_allocator.cpp **** // Created by os on 9/6/22.
   3:src/memory_allocator.cpp **** //
   4:src/memory_allocator.cpp **** 
   5:src/memory_allocator.cpp **** #include "../h/memory_allocator.hpp"
   6:src/memory_allocator.cpp **** 
   7:src/memory_allocator.cpp **** MemoryAllocator::FreeMem* MemoryAllocator::fMemHead = nullptr;
   8:src/memory_allocator.cpp **** /*const void* MemoryAllocator::FreeMemStart = HEAP_START_ADDR;
   9:src/memory_allocator.cpp **** const void* MemoryAllocator::FreeMemEnd = HEAP_END_ADDR;
  10:src/memory_allocator.cpp **** const size_t MemoryAllocator::BlockSize = MEM_BLOCK_SIZE;*/
  11:src/memory_allocator.cpp **** 
  12:src/memory_allocator.cpp **** void *MemoryAllocator::allocate(size_t size) {
  13:src/memory_allocator.cpp ****     //printMem();
  14:src/memory_allocator.cpp ****     //__print_string("mem_alloc\n");
  15:src/memory_allocator.cpp ****     void *ret = allocBlocks(firstFit(size), size);
  16:src/memory_allocator.cpp ****     //__print_uint64((uint64)ret);
  17:src/memory_allocator.cpp ****     //__putc('\n');
  18:src/memory_allocator.cpp ****     //printMem();
  19:src/memory_allocator.cpp ****     //__putc('\n');
  20:src/memory_allocator.cpp ****     return ret;
  21:src/memory_allocator.cpp **** }
  22:src/memory_allocator.cpp **** 
  23:src/memory_allocator.cpp **** void MemoryAllocator::free(void* addr) {
  24:src/memory_allocator.cpp ****     //printMem();
  25:src/memory_allocator.cpp ****     //__print_string("mem_free\n");
  26:src/memory_allocator.cpp ****     addr = (void*)((uint64)addr - sizeof(size_t));
  27:src/memory_allocator.cpp ****     size_t deallocSize = *(size_t*)addr;
  28:src/memory_allocator.cpp **** 
  29:src/memory_allocator.cpp ****     FreeMem* curr = nullptr;
  30:src/memory_allocator.cpp ****     if (fMemHead && (addr>(void*)fMemHead))
  31:src/memory_allocator.cpp ****         for(curr = fMemHead; curr->next != 0 && (void*)curr->next < addr; curr = curr->next);
  32:src/memory_allocator.cpp **** 
  33:src/memory_allocator.cpp ****     FreeMem* newNode = (FreeMem*)addr;
  34:src/memory_allocator.cpp ****     newNode->size = deallocSize; //this line may be unnecessary
  35:src/memory_allocator.cpp ****     newNode->prev = curr;
  36:src/memory_allocator.cpp ****     if (curr) newNode->next = curr->next, curr->next = newNode;
  37:src/memory_allocator.cpp ****     else newNode->next = fMemHead, fMemHead = newNode;
  38:src/memory_allocator.cpp ****     if (newNode->next) newNode->next->prev = newNode;
  39:src/memory_allocator.cpp **** 
  40:src/memory_allocator.cpp ****     tryToMerge(newNode);
  41:src/memory_allocator.cpp ****     tryToMerge(curr);
  42:src/memory_allocator.cpp ****     //printMem();
  43:src/memory_allocator.cpp **** }
  44:src/memory_allocator.cpp **** 
  45:src/memory_allocator.cpp **** void MemoryAllocator::initMem()  {
  12              		.loc 1 45 34
  13              		.cfi_startproc
GAS LISTING /tmp/ccN8OYvr.s 			page 2


  14 0000 130101FF 		addi	sp,sp,-16
  15              		.cfi_def_cfa_offset 16
  16 0004 23348100 		sd	s0,8(sp)
  17              		.cfi_offset 8, -8
  18 0008 13040101 		addi	s0,sp,16
  19              		.cfi_def_cfa 8, 0
  46:src/memory_allocator.cpp ****     fMemHead = (FreeMem*)HEAP_START_ADDR;
  20              		.loc 1 46 5
  21              		.loc 1 46 14 is_stmt 0
  22 000c 97070000 		la	a5,HEAP_START_ADDR
  22      83B70700 
  23 0014 83B70700 		ld	a5,0(a5)
  24 0018 97060000 		lla	a3,.LANCHOR0
  24      93860600 
  25 0020 23B0F600 		sd	a5,0(a3)
  47:src/memory_allocator.cpp ****     fMemHead->size = (size_t) ((uint64)HEAP_END_ADDR - (uint64)HEAP_START_ADDR );
  26              		.loc 1 47 5 is_stmt 1
  27              		.loc 1 47 22 is_stmt 0
  28 0024 17070000 		la	a4,HEAP_END_ADDR
  28      03370700 
  29 002c 03370700 		ld	a4,0(a4)
  30              		.loc 1 47 54
  31 0030 3307F740 		sub	a4,a4,a5
  32              		.loc 1 47 20
  33 0034 23B0E700 		sd	a4,0(a5)
  48:src/memory_allocator.cpp ****     /*fMemHead->prev = fMemHead;
  49:src/memory_allocator.cpp ****     fMemHead->next = fMemHead;*/
  50:src/memory_allocator.cpp ****     fMemHead->prev = nullptr;
  34              		.loc 1 50 5 is_stmt 1
  35              		.loc 1 50 15 is_stmt 0
  36 0038 83B70600 		ld	a5,0(a3)
  37              		.loc 1 50 20
  38 003c 23B40700 		sd	zero,8(a5)
  51:src/memory_allocator.cpp ****     fMemHead->next = nullptr;
  39              		.loc 1 51 5 is_stmt 1
  40              		.loc 1 51 20 is_stmt 0
  41 0040 23B80700 		sd	zero,16(a5)
  52:src/memory_allocator.cpp **** }
  42              		.loc 1 52 1
  43 0044 03348100 		ld	s0,8(sp)
  44              		.cfi_restore 8
  45              		.cfi_def_cfa 2, 16
  46 0048 13010101 		addi	sp,sp,16
  47              		.cfi_def_cfa_offset 0
  48 004c 67800000 		jr	ra
  49              		.cfi_endproc
  50              	.LFE3:
  52              		.align	2
  53              		.globl	_ZN15MemoryAllocator8firstFitEm
  55              	_ZN15MemoryAllocator8firstFitEm:
  56              	.LFB4:
  53:src/memory_allocator.cpp **** 
  54:src/memory_allocator.cpp **** MemoryAllocator::FreeMem *MemoryAllocator::firstFit(size_t size) {
  57              		.loc 1 54 66 is_stmt 1
  58              		.cfi_startproc
  59              	.LVL0:
  60 0050 130101FF 		addi	sp,sp,-16
GAS LISTING /tmp/ccN8OYvr.s 			page 3


  61              		.cfi_def_cfa_offset 16
  62 0054 23348100 		sd	s0,8(sp)
  63              		.cfi_offset 8, -8
  64 0058 13040101 		addi	s0,sp,16
  65              		.cfi_def_cfa 8, 0
  66 005c 13060500 		mv	a2,a0
  55:src/memory_allocator.cpp ****     FreeMem* curr = fMemHead;
  67              		.loc 1 55 5
  68              		.loc 1 55 14 is_stmt 0
  69 0060 17050000 		ld	a0,.LANCHOR0
  69      03350500 
  70              	.LVL1:
  71              	.L6:
  56:src/memory_allocator.cpp ****     for(; curr && curr->next; curr = curr->next)
  72              		.loc 1 56 5 is_stmt 1 discriminator 2
  73              		.loc 1 56 16 discriminator 2
  74 0068 63000502 		beqz	a0,.L4
  75              		.loc 1 56 25 is_stmt 0 discriminator 1
  76 006c 03370501 		ld	a4,16(a0)
  77              		.loc 1 56 16 discriminator 1
  78 0070 630C0700 		beqz	a4,.L4
  57:src/memory_allocator.cpp ****         if (size + sizeof(size_t) <= curr->size) return curr;
  79              		.loc 1 57 9 is_stmt 1
  80              		.loc 1 57 18 is_stmt 0
  81 0074 93078600 		addi	a5,a2,8
  82              		.loc 1 57 44
  83 0078 83360500 		ld	a3,0(a0)
  84              		.loc 1 57 9
  85 007c 63FEF600 		bleu	a5,a3,.L3
  56:src/memory_allocator.cpp ****     for(; curr && curr->next; curr = curr->next)
  86              		.loc 1 56 36
  87 0080 13050700 		mv	a0,a4
  88              	.LVL2:
  89 0084 6FF05FFE 		j	.L6
  90              	.LVL3:
  91              	.L4:
  58:src/memory_allocator.cpp ****     if (curr && (size + sizeof(size_t) <= curr->size)) return curr;
  92              		.loc 1 58 5 is_stmt 1
  93 0088 63080500 		beqz	a0,.L3
  94              		.loc 1 58 23 is_stmt 0 discriminator 1
  95 008c 13068600 		addi	a2,a2,8
  96              	.LVL4:
  97              		.loc 1 58 49 discriminator 1
  98 0090 83370500 		ld	a5,0(a0)
  99              		.loc 1 58 14 discriminator 1
 100 0094 63E8C700 		bgtu	a2,a5,.L8
 101              	.LVL5:
 102              	.L3:
  59:src/memory_allocator.cpp ****     return nullptr;
  60:src/memory_allocator.cpp **** }
 103              		.loc 1 60 1
 104 0098 03348100 		ld	s0,8(sp)
 105              		.cfi_remember_state
 106              		.cfi_restore 8
 107              		.cfi_def_cfa 2, 16
 108 009c 13010101 		addi	sp,sp,16
 109              		.cfi_def_cfa_offset 0
GAS LISTING /tmp/ccN8OYvr.s 			page 4


 110 00a0 67800000 		jr	ra
 111              	.LVL6:
 112              	.L8:
 113              		.cfi_restore_state
  59:src/memory_allocator.cpp ****     return nullptr;
 114              		.loc 1 59 12
 115 00a4 13050000 		li	a0,0
 116              	.LVL7:
 117 00a8 6FF01FFF 		j	.L3
 118              		.cfi_endproc
 119              	.LFE4:
 121              		.align	2
 122              		.globl	_ZN15MemoryAllocator8calcSizeEm
 124              	_ZN15MemoryAllocator8calcSizeEm:
 125              	.LFB6:
  61:src/memory_allocator.cpp **** 
  62:src/memory_allocator.cpp **** void *MemoryAllocator::allocBlocks(MemoryAllocator::FreeMem *node, size_t size) {
  63:src/memory_allocator.cpp ****     void* ret = nullptr;
  64:src/memory_allocator.cpp ****     if (node) {
  65:src/memory_allocator.cpp ****         size_t allocSize = calcSize(size);
  66:src/memory_allocator.cpp **** 
  67:src/memory_allocator.cpp ****         FreeMem* newNode = nullptr;
  68:src/memory_allocator.cpp ****         if (node->size - allocSize >= MEM_BLOCK_SIZE) {
  69:src/memory_allocator.cpp ****             newNode = (FreeMem*)((uint64)node + (uint64)allocSize);
  70:src/memory_allocator.cpp ****             newNode->size = node->size - allocSize;
  71:src/memory_allocator.cpp ****             if (node->prev) node->prev->next = newNode;
  72:src/memory_allocator.cpp ****             else fMemHead = newNode;
  73:src/memory_allocator.cpp ****             if (node->next) node->next->prev = newNode;
  74:src/memory_allocator.cpp ****             newNode->next = node->next;
  75:src/memory_allocator.cpp ****             newNode->prev = node->prev;
  76:src/memory_allocator.cpp ****         }
  77:src/memory_allocator.cpp ****         else {
  78:src/memory_allocator.cpp ****             if (node->prev) node->prev->next = node->next;
  79:src/memory_allocator.cpp ****             else fMemHead = node->next;
  80:src/memory_allocator.cpp ****             if (node->next) node->next->prev = node->prev;
  81:src/memory_allocator.cpp ****         }
  82:src/memory_allocator.cpp **** 
  83:src/memory_allocator.cpp ****         *(size_t*)node = allocSize;
  84:src/memory_allocator.cpp ****         ret = (void*)((uint64)node + (uint64)sizeof(size_t));
  85:src/memory_allocator.cpp **** 
  86:src/memory_allocator.cpp ****     }
  87:src/memory_allocator.cpp ****     return ret;
  88:src/memory_allocator.cpp **** }
  89:src/memory_allocator.cpp **** 
  90:src/memory_allocator.cpp **** size_t MemoryAllocator::calcSize(size_t size) {
 126              		.loc 1 90 47 is_stmt 1
 127              		.cfi_startproc
 128              	.LVL8:
 129 00ac 130101FF 		addi	sp,sp,-16
 130              		.cfi_def_cfa_offset 16
 131 00b0 23348100 		sd	s0,8(sp)
 132              		.cfi_offset 8, -8
 133 00b4 13040101 		addi	s0,sp,16
 134              		.cfi_def_cfa 8, 0
  91:src/memory_allocator.cpp ****     size_t allocSize = size + sizeof(size_t);
 135              		.loc 1 91 5
 136              		.loc 1 91 12 is_stmt 0
GAS LISTING /tmp/ccN8OYvr.s 			page 5


 137 00b8 13058500 		addi	a0,a0,8
 138              	.LVL9:
  92:src/memory_allocator.cpp ****     size_t BlockSize = MEM_BLOCK_SIZE;
 139              		.loc 1 92 5 is_stmt 1
  93:src/memory_allocator.cpp ****     if (allocSize % BlockSize) allocSize = allocSize + (BlockSize - allocSize % BlockSize);
 140              		.loc 1 93 5
 141              		.loc 1 93 19 is_stmt 0
 142 00bc 9377F503 		andi	a5,a0,63
 143              		.loc 1 93 5
 144 00c0 63880700 		beqz	a5,.L9
 145              		.loc 1 93 32 is_stmt 1 discriminator 1
 146              		.loc 1 93 67 is_stmt 0 discriminator 1
 147 00c4 13070004 		li	a4,64
 148 00c8 B307F740 		sub	a5,a4,a5
 149              		.loc 1 93 42 discriminator 1
 150 00cc 3305F500 		add	a0,a0,a5
 151              	.LVL10:
  94:src/memory_allocator.cpp ****     return allocSize;
 152              		.loc 1 94 5 is_stmt 1 discriminator 1
 153              	.L9:
  95:src/memory_allocator.cpp **** }
 154              		.loc 1 95 1 is_stmt 0
 155 00d0 03348100 		ld	s0,8(sp)
 156              		.cfi_restore 8
 157              		.cfi_def_cfa 2, 16
 158 00d4 13010101 		addi	sp,sp,16
 159              		.cfi_def_cfa_offset 0
 160 00d8 67800000 		jr	ra
 161              		.cfi_endproc
 162              	.LFE6:
 164              		.align	2
 165              		.globl	_ZN15MemoryAllocator11allocBlocksEPNS_7FreeMemEm
 167              	_ZN15MemoryAllocator11allocBlocksEPNS_7FreeMemEm:
 168              	.LFB5:
  62:src/memory_allocator.cpp ****     void* ret = nullptr;
 169              		.loc 1 62 81 is_stmt 1
 170              		.cfi_startproc
 171              	.LVL11:
 172 00dc 130101FE 		addi	sp,sp,-32
 173              		.cfi_def_cfa_offset 32
 174 00e0 233C1100 		sd	ra,24(sp)
 175 00e4 23388100 		sd	s0,16(sp)
 176 00e8 23349100 		sd	s1,8(sp)
 177              		.cfi_offset 1, -8
 178              		.cfi_offset 8, -16
 179              		.cfi_offset 9, -24
 180 00ec 13040102 		addi	s0,sp,32
 181              		.cfi_def_cfa 8, 0
 182 00f0 93040500 		mv	s1,a0
  63:src/memory_allocator.cpp ****     if (node) {
 183              		.loc 1 63 5
 184              	.LVL12:
  64:src/memory_allocator.cpp ****         size_t allocSize = calcSize(size);
 185              		.loc 1 64 5
 186              	.LBB2:
 187 00f4 630C0504 		beqz	a0,.L12
 188 00f8 13850500 		mv	a0,a1
GAS LISTING /tmp/ccN8OYvr.s 			page 6


 189              	.LVL13:
 190              	.LBB3:
  65:src/memory_allocator.cpp **** 
 191              		.loc 1 65 9
  65:src/memory_allocator.cpp **** 
 192              		.loc 1 65 36 is_stmt 0
 193 00fc 97000000 		call	_ZN15MemoryAllocator8calcSizeEm
 193      E7800000 
 194              	.LVL14:
  67:src/memory_allocator.cpp ****         if (node->size - allocSize >= MEM_BLOCK_SIZE) {
 195              		.loc 1 67 9 is_stmt 1
  68:src/memory_allocator.cpp ****             newNode = (FreeMem*)((uint64)node + (uint64)allocSize);
 196              		.loc 1 68 9
  68:src/memory_allocator.cpp ****             newNode = (FreeMem*)((uint64)node + (uint64)allocSize);
 197              		.loc 1 68 19 is_stmt 0
 198 0104 83B70400 		ld	a5,0(s1)
  68:src/memory_allocator.cpp ****             newNode = (FreeMem*)((uint64)node + (uint64)allocSize);
 199              		.loc 1 68 24
 200 0108 B387A740 		sub	a5,a5,a0
  68:src/memory_allocator.cpp ****             newNode = (FreeMem*)((uint64)node + (uint64)allocSize);
 201              		.loc 1 68 9
 202 010c 1307F003 		li	a4,63
 203 0110 637EF704 		bleu	a5,a4,.L14
  69:src/memory_allocator.cpp ****             newNode->size = node->size - allocSize;
 204              		.loc 1 69 13 is_stmt 1
  69:src/memory_allocator.cpp ****             newNode->size = node->size - allocSize;
 205              		.loc 1 69 47 is_stmt 0
 206 0114 3387A400 		add	a4,s1,a0
 207              	.LVL15:
  70:src/memory_allocator.cpp ****             if (node->prev) node->prev->next = newNode;
 208              		.loc 1 70 13 is_stmt 1
  70:src/memory_allocator.cpp ****             if (node->prev) node->prev->next = newNode;
 209              		.loc 1 70 27 is_stmt 0
 210 0118 2330F700 		sd	a5,0(a4)
  71:src/memory_allocator.cpp ****             else fMemHead = newNode;
 211              		.loc 1 71 13 is_stmt 1
  71:src/memory_allocator.cpp ****             else fMemHead = newNode;
 212              		.loc 1 71 23 is_stmt 0
 213 011c 83B78400 		ld	a5,8(s1)
  71:src/memory_allocator.cpp ****             else fMemHead = newNode;
 214              		.loc 1 71 13
 215 0120 63800704 		beqz	a5,.L15
  71:src/memory_allocator.cpp ****             else fMemHead = newNode;
 216              		.loc 1 71 29 is_stmt 1 discriminator 1
  71:src/memory_allocator.cpp ****             else fMemHead = newNode;
 217              		.loc 1 71 46 is_stmt 0 discriminator 1
 218 0124 23B8E700 		sd	a4,16(a5)
 219              	.L16:
  73:src/memory_allocator.cpp ****             newNode->next = node->next;
 220              		.loc 1 73 13 is_stmt 1
  73:src/memory_allocator.cpp ****             newNode->next = node->next;
 221              		.loc 1 73 23 is_stmt 0
 222 0128 83B70401 		ld	a5,16(s1)
  73:src/memory_allocator.cpp ****             newNode->next = node->next;
 223              		.loc 1 73 13
 224 012c 63840700 		beqz	a5,.L17
  73:src/memory_allocator.cpp ****             newNode->next = node->next;
GAS LISTING /tmp/ccN8OYvr.s 			page 7


 225              		.loc 1 73 29 is_stmt 1 discriminator 1
  73:src/memory_allocator.cpp ****             newNode->next = node->next;
 226              		.loc 1 73 46 is_stmt 0 discriminator 1
 227 0130 23B4E700 		sd	a4,8(a5)
 228              	.L17:
  74:src/memory_allocator.cpp ****             newNode->prev = node->prev;
 229              		.loc 1 74 13 is_stmt 1
  74:src/memory_allocator.cpp ****             newNode->prev = node->prev;
 230              		.loc 1 74 35 is_stmt 0
 231 0134 83B70401 		ld	a5,16(s1)
  74:src/memory_allocator.cpp ****             newNode->prev = node->prev;
 232              		.loc 1 74 27
 233 0138 2338F700 		sd	a5,16(a4)
  75:src/memory_allocator.cpp ****         }
 234              		.loc 1 75 13 is_stmt 1
  75:src/memory_allocator.cpp ****         }
 235              		.loc 1 75 35 is_stmt 0
 236 013c 83B78400 		ld	a5,8(s1)
  75:src/memory_allocator.cpp ****         }
 237              		.loc 1 75 27
 238 0140 2334F700 		sd	a5,8(a4)
 239              	.LVL16:
 240              	.L18:
  83:src/memory_allocator.cpp ****         ret = (void*)((uint64)node + (uint64)sizeof(size_t));
 241              		.loc 1 83 9 is_stmt 1
  83:src/memory_allocator.cpp ****         ret = (void*)((uint64)node + (uint64)sizeof(size_t));
 242              		.loc 1 83 24 is_stmt 0
 243 0144 23B0A400 		sd	a0,0(s1)
  84:src/memory_allocator.cpp **** 
 244              		.loc 1 84 9 is_stmt 1
  84:src/memory_allocator.cpp **** 
 245              		.loc 1 84 36 is_stmt 0
 246 0148 13858400 		addi	a0,s1,8
 247              	.LVL17:
 248              	.L12:
 249              	.LBE3:
 250              	.LBE2:
  88:src/memory_allocator.cpp **** 
 251              		.loc 1 88 1
 252 014c 83308101 		ld	ra,24(sp)
 253              		.cfi_remember_state
 254              		.cfi_restore 1
 255 0150 03340101 		ld	s0,16(sp)
 256              		.cfi_restore 8
 257              		.cfi_def_cfa 2, 32
 258 0154 83348100 		ld	s1,8(sp)
 259              		.cfi_restore 9
 260              	.LVL18:
 261 0158 13010102 		addi	sp,sp,32
 262              		.cfi_def_cfa_offset 0
 263 015c 67800000 		jr	ra
 264              	.LVL19:
 265              	.L15:
 266              		.cfi_restore_state
 267              	.LBB5:
 268              	.LBB4:
  72:src/memory_allocator.cpp ****             if (node->next) node->next->prev = newNode;
GAS LISTING /tmp/ccN8OYvr.s 			page 8


 269              		.loc 1 72 18 is_stmt 1
  72:src/memory_allocator.cpp ****             if (node->next) node->next->prev = newNode;
 270              		.loc 1 72 27 is_stmt 0
 271 0160 97070000 		sd	a4,.LANCHOR0,a5
 271      23B0E700 
 272 0168 6FF01FFC 		j	.L16
 273              	.LVL20:
 274              	.L14:
  78:src/memory_allocator.cpp ****             else fMemHead = node->next;
 275              		.loc 1 78 13 is_stmt 1
  78:src/memory_allocator.cpp ****             else fMemHead = node->next;
 276              		.loc 1 78 23 is_stmt 0
 277 016c 83B78400 		ld	a5,8(s1)
  78:src/memory_allocator.cpp ****             else fMemHead = node->next;
 278              		.loc 1 78 13
 279 0170 63800702 		beqz	a5,.L19
  78:src/memory_allocator.cpp ****             else fMemHead = node->next;
 280              		.loc 1 78 29 is_stmt 1 discriminator 1
  78:src/memory_allocator.cpp ****             else fMemHead = node->next;
 281              		.loc 1 78 54 is_stmt 0 discriminator 1
 282 0174 03B70401 		ld	a4,16(s1)
  78:src/memory_allocator.cpp ****             else fMemHead = node->next;
 283              		.loc 1 78 46 discriminator 1
 284 0178 23B8E700 		sd	a4,16(a5)
 285              	.L20:
  80:src/memory_allocator.cpp ****         }
 286              		.loc 1 80 13 is_stmt 1
  80:src/memory_allocator.cpp ****         }
 287              		.loc 1 80 23 is_stmt 0
 288 017c 83B70401 		ld	a5,16(s1)
  80:src/memory_allocator.cpp ****         }
 289              		.loc 1 80 13
 290 0180 E38207FC 		beqz	a5,.L18
  80:src/memory_allocator.cpp ****         }
 291              		.loc 1 80 29 is_stmt 1 discriminator 1
  80:src/memory_allocator.cpp ****         }
 292              		.loc 1 80 54 is_stmt 0 discriminator 1
 293 0184 03B78400 		ld	a4,8(s1)
  80:src/memory_allocator.cpp ****         }
 294              		.loc 1 80 46 discriminator 1
 295 0188 23B4E700 		sd	a4,8(a5)
 296 018c 6FF09FFB 		j	.L18
 297              	.L19:
  79:src/memory_allocator.cpp ****             if (node->next) node->next->prev = node->prev;
 298              		.loc 1 79 18 is_stmt 1
  79:src/memory_allocator.cpp ****             if (node->next) node->next->prev = node->prev;
 299              		.loc 1 79 35 is_stmt 0
 300 0190 83B70401 		ld	a5,16(s1)
  79:src/memory_allocator.cpp ****             if (node->next) node->next->prev = node->prev;
 301              		.loc 1 79 27
 302 0194 17070000 		sd	a5,.LANCHOR0,a4
 302      2330F700 
 303 019c 6FF01FFE 		j	.L20
 304              	.LBE4:
 305              	.LBE5:
 306              		.cfi_endproc
 307              	.LFE5:
GAS LISTING /tmp/ccN8OYvr.s 			page 9


 309              		.align	2
 310              		.globl	_ZN15MemoryAllocator8allocateEm
 312              	_ZN15MemoryAllocator8allocateEm:
 313              	.LFB1:
  12:src/memory_allocator.cpp ****     //printMem();
 314              		.loc 1 12 46 is_stmt 1
 315              		.cfi_startproc
 316              	.LVL21:
 317 01a0 130101FE 		addi	sp,sp,-32
 318              		.cfi_def_cfa_offset 32
 319 01a4 233C1100 		sd	ra,24(sp)
 320 01a8 23388100 		sd	s0,16(sp)
 321 01ac 23349100 		sd	s1,8(sp)
 322              		.cfi_offset 1, -8
 323              		.cfi_offset 8, -16
 324              		.cfi_offset 9, -24
 325 01b0 13040102 		addi	s0,sp,32
 326              		.cfi_def_cfa 8, 0
 327 01b4 93040500 		mv	s1,a0
  15:src/memory_allocator.cpp ****     //__print_uint64((uint64)ret);
 328              		.loc 1 15 5
  15:src/memory_allocator.cpp ****     //__print_uint64((uint64)ret);
 329              		.loc 1 15 28 is_stmt 0
 330 01b8 97000000 		call	_ZN15MemoryAllocator8firstFitEm
 330      E7800000 
 331              	.LVL22:
 332 01c0 93850400 		mv	a1,s1
 333 01c4 97000000 		call	_ZN15MemoryAllocator11allocBlocksEPNS_7FreeMemEm
 333      E7800000 
 334              	.LVL23:
  20:src/memory_allocator.cpp **** }
 335              		.loc 1 20 5 is_stmt 1
  21:src/memory_allocator.cpp **** 
 336              		.loc 1 21 1 is_stmt 0
 337 01cc 83308101 		ld	ra,24(sp)
 338              		.cfi_restore 1
 339 01d0 03340101 		ld	s0,16(sp)
 340              		.cfi_restore 8
 341              		.cfi_def_cfa 2, 32
 342 01d4 83348100 		ld	s1,8(sp)
 343              		.cfi_restore 9
 344              	.LVL24:
 345 01d8 13010102 		addi	sp,sp,32
 346              		.cfi_def_cfa_offset 0
 347 01dc 67800000 		jr	ra
 348              		.cfi_endproc
 349              	.LFE1:
 351              		.align	2
 352              		.globl	_ZN15MemoryAllocator10tryToMergeEPNS_7FreeMemE
 354              	_ZN15MemoryAllocator10tryToMergeEPNS_7FreeMemE:
 355              	.LFB7:
  96:src/memory_allocator.cpp **** 
  97:src/memory_allocator.cpp **** void MemoryAllocator::tryToMerge(MemoryAllocator::FreeMem *node) {
 356              		.loc 1 97 66 is_stmt 1
 357              		.cfi_startproc
 358              	.LVL25:
 359 01e0 130101FF 		addi	sp,sp,-16
GAS LISTING /tmp/ccN8OYvr.s 			page 10


 360              		.cfi_def_cfa_offset 16
 361 01e4 23348100 		sd	s0,8(sp)
 362              		.cfi_offset 8, -8
 363 01e8 13040101 		addi	s0,sp,16
 364              		.cfi_def_cfa 8, 0
  98:src/memory_allocator.cpp ****     if(!node) return;
 365              		.loc 1 98 5
 366 01ec 630A0502 		beqz	a0,.L25
  99:src/memory_allocator.cpp ****     if (!(node->next && ((uint64)node + (uint64)node->size == (uint64)node->next))) return;
 367              		.loc 1 99 5
 368              		.loc 1 99 17 is_stmt 0
 369 01f0 83370501 		ld	a5,16(a0)
 370              		.loc 1 99 5
 371 01f4 63860702 		beqz	a5,.L25
 372              		.loc 1 99 55 discriminator 2
 373 01f8 03370500 		ld	a4,0(a0)
 374              		.loc 1 99 39 discriminator 2
 375 01fc B306E500 		add	a3,a0,a4
 376              		.loc 1 99 9 discriminator 2
 377 0200 6390F602 		bne	a3,a5,.L25
 100:src/memory_allocator.cpp **** 
 101:src/memory_allocator.cpp ****     node->size += node->next->size;
 378              		.loc 1 101 5 is_stmt 1
 379              		.loc 1 101 31 is_stmt 0
 380 0204 83B60700 		ld	a3,0(a5)
 381              		.loc 1 101 16
 382 0208 3307D700 		add	a4,a4,a3
 383 020c 2330E500 		sd	a4,0(a0)
 102:src/memory_allocator.cpp ****     node->next = node->next->next;
 384              		.loc 1 102 5 is_stmt 1
 385              		.loc 1 102 30 is_stmt 0
 386 0210 83B70701 		ld	a5,16(a5)
 387              		.loc 1 102 16
 388 0214 2338F500 		sd	a5,16(a0)
 103:src/memory_allocator.cpp ****     if (node->next) node->next->prev = node;
 389              		.loc 1 103 5 is_stmt 1
 390 0218 63840700 		beqz	a5,.L25
 391              		.loc 1 103 21 discriminator 1
 392              		.loc 1 103 38 is_stmt 0 discriminator 1
 393 021c 23B4A700 		sd	a0,8(a5)
 394              	.L25:
 104:src/memory_allocator.cpp **** }
 395              		.loc 1 104 1
 396 0220 03348100 		ld	s0,8(sp)
 397              		.cfi_restore 8
 398              		.cfi_def_cfa 2, 16
 399 0224 13010101 		addi	sp,sp,16
 400              		.cfi_def_cfa_offset 0
 401 0228 67800000 		jr	ra
 402              		.cfi_endproc
 403              	.LFE7:
 405              		.align	2
 406              		.globl	_ZN15MemoryAllocator4freeEPv
 408              	_ZN15MemoryAllocator4freeEPv:
 409              	.LFB2:
  23:src/memory_allocator.cpp ****     //printMem();
 410              		.loc 1 23 40 is_stmt 1
GAS LISTING /tmp/ccN8OYvr.s 			page 11


 411              		.cfi_startproc
 412              	.LVL26:
 413 022c 130101FE 		addi	sp,sp,-32
 414              		.cfi_def_cfa_offset 32
 415 0230 233C1100 		sd	ra,24(sp)
 416 0234 23388100 		sd	s0,16(sp)
 417 0238 23349100 		sd	s1,8(sp)
 418              		.cfi_offset 1, -8
 419              		.cfi_offset 8, -16
 420              		.cfi_offset 9, -24
 421 023c 13040102 		addi	s0,sp,32
 422              		.cfi_def_cfa 8, 0
  26:src/memory_allocator.cpp ****     size_t deallocSize = *(size_t*)addr;
 423              		.loc 1 26 5
  26:src/memory_allocator.cpp ****     size_t deallocSize = *(size_t*)addr;
 424              		.loc 1 26 33 is_stmt 0
 425 0240 130585FF 		addi	a0,a0,-8
 426              	.LVL27:
  27:src/memory_allocator.cpp **** 
 427              		.loc 1 27 5 is_stmt 1
  29:src/memory_allocator.cpp ****     if (fMemHead && (addr>(void*)fMemHead))
 428              		.loc 1 29 5
  30:src/memory_allocator.cpp ****         for(curr = fMemHead; curr->next != 0 && (void*)curr->next < addr; curr = curr->next);
 429              		.loc 1 30 5
  30:src/memory_allocator.cpp ****         for(curr = fMemHead; curr->next != 0 && (void*)curr->next < addr; curr = curr->next);
 430              		.loc 1 30 42 is_stmt 0
 431 0244 17070000 		ld	a4,.LANCHOR0
 431      03370700 
  30:src/memory_allocator.cpp ****         for(curr = fMemHead; curr->next != 0 && (void*)curr->next < addr; curr = curr->next);
 432              		.loc 1 30 5
 433 024c 63000702 		beqz	a4,.L34
  30:src/memory_allocator.cpp ****         for(curr = fMemHead; curr->next != 0 && (void*)curr->next < addr; curr = curr->next);
 434              		.loc 1 30 18 discriminator 1
 435 0250 6372A702 		bgeu	a4,a0,.L35
  31:src/memory_allocator.cpp **** 
 436              		.loc 1 31 18
 437 0254 93070700 		mv	a5,a4
 438              	.LVL28:
 439              	.L30:
  31:src/memory_allocator.cpp **** 
 440              		.loc 1 31 46 is_stmt 1 discriminator 4
 441 0258 93840700 		mv	s1,a5
  31:src/memory_allocator.cpp **** 
 442              		.loc 1 31 36 is_stmt 0 discriminator 4
 443 025c 83B70701 		ld	a5,16(a5)
 444              	.LVL29:
  31:src/memory_allocator.cpp **** 
 445              		.loc 1 31 46 discriminator 4
 446 0260 638C0700 		beqz	a5,.L29
  31:src/memory_allocator.cpp **** 
 447              		.loc 1 31 46 discriminator 2
 448 0264 E3EAA7FE 		bltu	a5,a0,.L30
 449 0268 6F000001 		j	.L29
 450              	.LVL30:
 451              	.L34:
  29:src/memory_allocator.cpp ****     if (fMemHead && (addr>(void*)fMemHead))
 452              		.loc 1 29 14
GAS LISTING /tmp/ccN8OYvr.s 			page 12


 453 026c 93040700 		mv	s1,a4
 454 0270 6F008000 		j	.L29
 455              	.L35:
 456 0274 93040000 		li	s1,0
 457              	.LVL31:
 458              	.L29:
  33:src/memory_allocator.cpp ****     newNode->size = deallocSize; //this line may be unnecessary
 459              		.loc 1 33 5 is_stmt 1
  34:src/memory_allocator.cpp ****     newNode->prev = curr;
 460              		.loc 1 34 5
  35:src/memory_allocator.cpp ****     if (curr) newNode->next = curr->next, curr->next = newNode;
 461              		.loc 1 35 5
  35:src/memory_allocator.cpp ****     if (curr) newNode->next = curr->next, curr->next = newNode;
 462              		.loc 1 35 19 is_stmt 0
 463 0278 23349500 		sd	s1,8(a0)
 464              	.LVL32:
  36:src/memory_allocator.cpp ****     else newNode->next = fMemHead, fMemHead = newNode;
 465              		.loc 1 36 5 is_stmt 1
 466 027c 63820404 		beqz	s1,.L31
  36:src/memory_allocator.cpp ****     else newNode->next = fMemHead, fMemHead = newNode;
 467              		.loc 1 36 15 discriminator 1
  36:src/memory_allocator.cpp ****     else newNode->next = fMemHead, fMemHead = newNode;
 468              		.loc 1 36 37 is_stmt 0 discriminator 1
 469 0280 83B70401 		ld	a5,16(s1)
  36:src/memory_allocator.cpp ****     else newNode->next = fMemHead, fMemHead = newNode;
 470              		.loc 1 36 29 discriminator 1
 471 0284 2338F500 		sd	a5,16(a0)
  36:src/memory_allocator.cpp ****     else newNode->next = fMemHead, fMemHead = newNode;
 472              		.loc 1 36 54 discriminator 1
 473 0288 23B8A400 		sd	a0,16(s1)
 474              	.L32:
  38:src/memory_allocator.cpp **** 
 475              		.loc 1 38 5 is_stmt 1
  38:src/memory_allocator.cpp **** 
 476              		.loc 1 38 18 is_stmt 0
 477 028c 83370501 		ld	a5,16(a0)
  38:src/memory_allocator.cpp **** 
 478              		.loc 1 38 5
 479 0290 63840700 		beqz	a5,.L33
  38:src/memory_allocator.cpp **** 
 480              		.loc 1 38 24 is_stmt 1 discriminator 1
  38:src/memory_allocator.cpp **** 
 481              		.loc 1 38 44 is_stmt 0 discriminator 1
 482 0294 23B4A700 		sd	a0,8(a5)
 483              	.L33:
  40:src/memory_allocator.cpp ****     tryToMerge(curr);
 484              		.loc 1 40 5 is_stmt 1
  40:src/memory_allocator.cpp ****     tryToMerge(curr);
 485              		.loc 1 40 15 is_stmt 0
 486 0298 97000000 		call	_ZN15MemoryAllocator10tryToMergeEPNS_7FreeMemE
 486      E7800000 
 487              	.LVL33:
  41:src/memory_allocator.cpp ****     //printMem();
 488              		.loc 1 41 5 is_stmt 1
  41:src/memory_allocator.cpp ****     //printMem();
 489              		.loc 1 41 15 is_stmt 0
 490 02a0 13850400 		mv	a0,s1
GAS LISTING /tmp/ccN8OYvr.s 			page 13


 491 02a4 97000000 		call	_ZN15MemoryAllocator10tryToMergeEPNS_7FreeMemE
 491      E7800000 
 492              	.LVL34:
  43:src/memory_allocator.cpp **** 
 493              		.loc 1 43 1
 494 02ac 83308101 		ld	ra,24(sp)
 495              		.cfi_remember_state
 496              		.cfi_restore 1
 497 02b0 03340101 		ld	s0,16(sp)
 498              		.cfi_restore 8
 499              		.cfi_def_cfa 2, 32
 500 02b4 83348100 		ld	s1,8(sp)
 501              		.cfi_restore 9
 502              	.LVL35:
 503 02b8 13010102 		addi	sp,sp,32
 504              		.cfi_def_cfa_offset 0
 505 02bc 67800000 		jr	ra
 506              	.LVL36:
 507              	.L31:
 508              		.cfi_restore_state
  37:src/memory_allocator.cpp ****     if (newNode->next) newNode->next->prev = newNode;
 509              		.loc 1 37 10 is_stmt 1
  37:src/memory_allocator.cpp ****     if (newNode->next) newNode->next->prev = newNode;
 510              		.loc 1 37 24 is_stmt 0
 511 02c0 2338E500 		sd	a4,16(a0)
  37:src/memory_allocator.cpp ****     if (newNode->next) newNode->next->prev = newNode;
 512              		.loc 1 37 45
 513 02c4 97070000 		sd	a0,.LANCHOR0,a5
 513      23B0A700 
 514 02cc 6FF01FFC 		j	.L32
 515              		.cfi_endproc
 516              	.LFE2:
 518              		.globl	_ZN15MemoryAllocator8fMemHeadE
 519              		.bss
 520              		.align	3
 521              		.set	.LANCHOR0,. + 0
 524              	_ZN15MemoryAllocator8fMemHeadE:
 525 0000 00000000 		.zero	8
 525      00000000 
 526              		.text
 527              	.Letext0:
 528              		.file 2 "src/../h/../lib/hw.h"
 529              		.file 3 "src/../h/memory_allocator.hpp"
GAS LISTING /tmp/ccN8OYvr.s 			page 14

