GAS LISTING /tmp/cc9N7gUf.s 			page 1


   1              		.file	"periodic_thread.cpp"
   2              		.option pic
   3              		.option norelax
   4              		.text
   5              	.Ltext0:
   6              		.section	.text._ZN6Thread3runEv,"axG",@progbits,_ZN6Thread3runEv,comdat
   7              		.align	2
   8              		.weak	_ZN6Thread3runEv
  10              	_ZN6Thread3runEv:
  11              	.LFB0:
  12              		.file 1 "src/../h/syscall_cpp.hpp"
   1:src/../h/syscall_cpp.hpp **** //
   2:src/../h/syscall_cpp.hpp **** // Created by os on 8/10/22.
   3:src/../h/syscall_cpp.hpp **** //
   4:src/../h/syscall_cpp.hpp **** 
   5:src/../h/syscall_cpp.hpp **** #ifndef OSMIUM_SYSCALL_CPP_HPP
   6:src/../h/syscall_cpp.hpp **** #define OSMIUM_SYSCALL_CPP_HPP
   7:src/../h/syscall_cpp.hpp **** 
   8:src/../h/syscall_cpp.hpp **** #include "../lib/hw.h"
   9:src/../h/syscall_cpp.hpp **** #include "syscall_c.h"
  10:src/../h/syscall_cpp.hpp **** 
  11:src/../h/syscall_cpp.hpp **** void *operator new(size_t size);
  12:src/../h/syscall_cpp.hpp **** 
  13:src/../h/syscall_cpp.hpp **** void operator delete(void *ptr);
  14:src/../h/syscall_cpp.hpp **** 
  15:src/../h/syscall_cpp.hpp **** 
  16:src/../h/syscall_cpp.hpp **** class Thread {
  17:src/../h/syscall_cpp.hpp **** public:
  18:src/../h/syscall_cpp.hpp ****     Thread(void (*body)(void *), void *arg);
  19:src/../h/syscall_cpp.hpp **** 
  20:src/../h/syscall_cpp.hpp ****     virtual ~Thread();
  21:src/../h/syscall_cpp.hpp **** 
  22:src/../h/syscall_cpp.hpp ****     int start();
  23:src/../h/syscall_cpp.hpp **** 
  24:src/../h/syscall_cpp.hpp ****     static void dispatch();
  25:src/../h/syscall_cpp.hpp **** 
  26:src/../h/syscall_cpp.hpp ****     static int sleep(time_t);
  27:src/../h/syscall_cpp.hpp **** 
  28:src/../h/syscall_cpp.hpp **** protected:
  29:src/../h/syscall_cpp.hpp ****     Thread();
  30:src/../h/syscall_cpp.hpp **** 
  31:src/../h/syscall_cpp.hpp ****     virtual void run() {}
  13              		.loc 1 31 18
  14              		.cfi_startproc
  15              	.LVL0:
  16 0000 130101FF 		addi	sp,sp,-16
  17              		.cfi_def_cfa_offset 16
  18 0004 23348100 		sd	s0,8(sp)
  19              		.cfi_offset 8, -8
  20 0008 13040101 		addi	s0,sp,16
  21              		.cfi_def_cfa 8, 0
  22              		.loc 1 31 25 is_stmt 0
  23 000c 03348100 		ld	s0,8(sp)
  24              		.cfi_restore 8
  25              		.cfi_def_cfa 2, 16
  26 0010 13010101 		addi	sp,sp,16
  27              		.cfi_def_cfa_offset 0
GAS LISTING /tmp/cc9N7gUf.s 			page 2


  28 0014 67800000 		jr	ra
  29              		.cfi_endproc
  30              	.LFE0:
  32              		.section	.text._ZN14PeriodicThread18periodicActivationEv,"axG",@progbits,_ZN14PeriodicThread18peri
  33              		.align	2
  34              		.weak	_ZN14PeriodicThread18periodicActivationEv
  36              	_ZN14PeriodicThread18periodicActivationEv:
  37              	.LFB1:
  32:src/../h/syscall_cpp.hpp **** 
  33:src/../h/syscall_cpp.hpp **** private:
  34:src/../h/syscall_cpp.hpp ****     thread_t myHandle;
  35:src/../h/syscall_cpp.hpp **** };
  36:src/../h/syscall_cpp.hpp **** 
  37:src/../h/syscall_cpp.hpp **** 
  38:src/../h/syscall_cpp.hpp **** class Semaphore {
  39:src/../h/syscall_cpp.hpp **** public:
  40:src/../h/syscall_cpp.hpp ****     Semaphore(unsigned init = 1);
  41:src/../h/syscall_cpp.hpp **** 
  42:src/../h/syscall_cpp.hpp ****     virtual ~Semaphore();
  43:src/../h/syscall_cpp.hpp **** 
  44:src/../h/syscall_cpp.hpp ****     int wait();
  45:src/../h/syscall_cpp.hpp **** 
  46:src/../h/syscall_cpp.hpp ****     int signal();
  47:src/../h/syscall_cpp.hpp **** 
  48:src/../h/syscall_cpp.hpp **** private:
  49:src/../h/syscall_cpp.hpp ****     sem_t myHandle;
  50:src/../h/syscall_cpp.hpp **** };
  51:src/../h/syscall_cpp.hpp **** 
  52:src/../h/syscall_cpp.hpp **** 
  53:src/../h/syscall_cpp.hpp **** class PeriodicThread : public Thread {
  54:src/../h/syscall_cpp.hpp **** protected:
  55:src/../h/syscall_cpp.hpp ****     PeriodicThread(time_t period);
  56:src/../h/syscall_cpp.hpp **** 
  57:src/../h/syscall_cpp.hpp ****     virtual void periodicActivation() {}
  38              		.loc 1 57 18 is_stmt 1
  39              		.cfi_startproc
  40              	.LVL1:
  41 0000 130101FF 		addi	sp,sp,-16
  42              		.cfi_def_cfa_offset 16
  43 0004 23348100 		sd	s0,8(sp)
  44              		.cfi_offset 8, -8
  45 0008 13040101 		addi	s0,sp,16
  46              		.cfi_def_cfa 8, 0
  47              		.loc 1 57 40 is_stmt 0
  48 000c 03348100 		ld	s0,8(sp)
  49              		.cfi_restore 8
  50              		.cfi_def_cfa 2, 16
  51 0010 13010101 		addi	sp,sp,16
  52              		.cfi_def_cfa_offset 0
  53 0014 67800000 		jr	ra
  54              		.cfi_endproc
  55              	.LFE1:
  57              		.section	.text._ZN14PeriodicThreadD2Ev,"axG",@progbits,_ZN14PeriodicThreadD5Ev,comdat
  58              		.align	2
  59              		.weak	_ZN14PeriodicThreadD2Ev
  61              	_ZN14PeriodicThreadD2Ev:
  62              	.LFB6:
GAS LISTING /tmp/cc9N7gUf.s 			page 3


  53:src/../h/syscall_cpp.hpp **** protected:
  63              		.loc 1 53 7 is_stmt 1
  64              		.cfi_startproc
  65              	.LVL2:
  66 0000 130101FF 		addi	sp,sp,-16
  67              		.cfi_def_cfa_offset 16
  68 0004 23341100 		sd	ra,8(sp)
  69 0008 23308100 		sd	s0,0(sp)
  70              		.cfi_offset 1, -8
  71              		.cfi_offset 8, -16
  72 000c 13040101 		addi	s0,sp,16
  73              		.cfi_def_cfa 8, 0
  74              	.LBB5:
  53:src/../h/syscall_cpp.hpp **** protected:
  75              		.loc 1 53 7 is_stmt 0
  76 0010 97070000 		lla	a5,_ZTV14PeriodicThread+16
  76      93870700 
  77 0018 2330F500 		sd	a5,0(a0)
  78 001c 97000000 		call	_ZN6ThreadD2Ev@plt
  78      E7800000 
  79              	.LVL3:
  80              	.LBE5:
  81 0024 83308100 		ld	ra,8(sp)
  82              		.cfi_restore 1
  83 0028 03340100 		ld	s0,0(sp)
  84              		.cfi_restore 8
  85              		.cfi_def_cfa 2, 16
  86 002c 13010101 		addi	sp,sp,16
  87              		.cfi_def_cfa_offset 0
  88 0030 67800000 		jr	ra
  89              		.cfi_endproc
  90              	.LFE6:
  92              		.weak	_ZN14PeriodicThreadD1Ev
  93              		.set	_ZN14PeriodicThreadD1Ev,_ZN14PeriodicThreadD2Ev
  94              		.section	.text._ZN14PeriodicThreadD0Ev,"axG",@progbits,_ZN14PeriodicThreadD5Ev,comdat
  95              		.align	2
  96              		.weak	_ZN14PeriodicThreadD0Ev
  98              	_ZN14PeriodicThreadD0Ev:
  99              	.LFB8:
  53:src/../h/syscall_cpp.hpp **** protected:
 100              		.loc 1 53 7 is_stmt 1
 101              		.cfi_startproc
 102              	.LVL4:
 103 0000 130101FE 		addi	sp,sp,-32
 104              		.cfi_def_cfa_offset 32
 105 0004 233C1100 		sd	ra,24(sp)
 106 0008 23388100 		sd	s0,16(sp)
 107 000c 23349100 		sd	s1,8(sp)
 108              		.cfi_offset 1, -8
 109              		.cfi_offset 8, -16
 110              		.cfi_offset 9, -24
 111 0010 13040102 		addi	s0,sp,32
 112              		.cfi_def_cfa 8, 0
 113 0014 93040500 		mv	s1,a0
 114              	.LVL5:
 115              	.LBB6:
 116              	.LBB7:
GAS LISTING /tmp/cc9N7gUf.s 			page 4


  53:src/../h/syscall_cpp.hpp **** protected:
 117              		.loc 1 53 7 is_stmt 0
 118 0018 97070000 		lla	a5,_ZTV14PeriodicThread+16
 118      93870700 
 119 0020 2330F500 		sd	a5,0(a0)
 120 0024 97000000 		call	_ZN6ThreadD2Ev@plt
 120      E7800000 
 121              	.LVL6:
 122              	.LBE7:
 123              	.LBE6:
 124 002c 13850400 		mv	a0,s1
 125 0030 97000000 		call	_ZdlPv@plt
 125      E7800000 
 126              	.LVL7:
 127 0038 83308101 		ld	ra,24(sp)
 128              		.cfi_restore 1
 129 003c 03340101 		ld	s0,16(sp)
 130              		.cfi_restore 8
 131              		.cfi_def_cfa 2, 32
 132 0040 83348100 		ld	s1,8(sp)
 133              		.cfi_restore 9
 134              	.LVL8:
 135 0044 13010102 		addi	sp,sp,32
 136              		.cfi_def_cfa_offset 0
 137 0048 67800000 		jr	ra
 138              		.cfi_endproc
 139              	.LFE8:
 141              		.text
 142              		.align	2
 143              		.globl	_ZN14PeriodicThreadC2Em
 145              	_ZN14PeriodicThreadC2Em:
 146              	.LFB3:
 147              		.file 2 "src/periodic_thread.cpp"
   1:src/periodic_thread.cpp **** //
   2:src/periodic_thread.cpp **** // Created by os on 9/9/22.
   3:src/periodic_thread.cpp **** //
   4:src/periodic_thread.cpp **** 
   5:src/periodic_thread.cpp **** #include "../h/syscall_cpp.hpp"
   6:src/periodic_thread.cpp **** 
   7:src/periodic_thread.cpp **** PeriodicThread::PeriodicThread(time_t period) {
 148              		.loc 2 7 1 is_stmt 1
 149              		.cfi_startproc
 150              	.LVL9:
 151 0000 130101FE 		addi	sp,sp,-32
 152              		.cfi_def_cfa_offset 32
 153 0004 233C1100 		sd	ra,24(sp)
 154 0008 23388100 		sd	s0,16(sp)
 155 000c 23349100 		sd	s1,8(sp)
 156              		.cfi_offset 1, -8
 157              		.cfi_offset 8, -16
 158              		.cfi_offset 9, -24
 159 0010 13040102 		addi	s0,sp,32
 160              		.cfi_def_cfa 8, 0
 161 0014 93040500 		mv	s1,a0
 162              	.LBB8:
 163              		.loc 2 7 45 is_stmt 0
 164 0018 97000000 		call	_ZN6ThreadC2Ev@plt
GAS LISTING /tmp/cc9N7gUf.s 			page 5


 164      E7800000 
 165              	.LVL10:
 166 0020 97070000 		lla	a5,_ZTV14PeriodicThread+16
 166      93870700 
 167 0028 23B0F400 		sd	a5,0(s1)
 168              	.LBE8:
   8:src/periodic_thread.cpp **** 
   9:src/periodic_thread.cpp **** }...
 169              		.loc 2 9 1
 170 002c 83308101 		ld	ra,24(sp)
 171              		.cfi_restore 1
 172 0030 03340101 		ld	s0,16(sp)
 173              		.cfi_restore 8
 174              		.cfi_def_cfa 2, 32
 175 0034 83348100 		ld	s1,8(sp)
 176              		.cfi_restore 9
 177              	.LVL11:
 178 0038 13010102 		addi	sp,sp,32
 179              		.cfi_def_cfa_offset 0
 180 003c 67800000 		jr	ra
 181              		.cfi_endproc
 182              	.LFE3:
 184              		.globl	_ZN14PeriodicThreadC1Em
 185              		.set	_ZN14PeriodicThreadC1Em,_ZN14PeriodicThreadC2Em
 186              		.weak	_ZTV14PeriodicThread
 187              		.section	.data.rel.ro.local._ZTV14PeriodicThread,"awG",@progbits,_ZTV14PeriodicThread,comdat
 188              		.align	3
 191              	_ZTV14PeriodicThread:
 192 0000 00000000 		.dword	0
 192      00000000 
 193 0008 00000000 		.dword	0
 193      00000000 
 194 0010 00000000 		.dword	_ZN14PeriodicThreadD1Ev
 194      00000000 
 195 0018 00000000 		.dword	_ZN14PeriodicThreadD0Ev
 195      00000000 
 196 0020 00000000 		.dword	_ZN6Thread3runEv
 196      00000000 
 197 0028 00000000 		.dword	_ZN14PeriodicThread18periodicActivationEv
 197      00000000 
 198              		.text
 199              	.Letext0:
 200              		.file 3 "src/../h/../lib/hw.h"
 201              		.file 4 "src/../h/syscall_c.h"
GAS LISTING /tmp/cc9N7gUf.s 			page 6

