GAS LISTING /tmp/ccoh9UgR.s 			page 1


   1              		.file	"print.cpp"
   2              		.option pic
   3              		.option norelax
   4              		.text
   5              	.Ltext0:
   6              		.align	2
   7              		.globl	_Z14__print_stringPKc
   9              	_Z14__print_stringPKc:
  10              	.LFB14:
  11              		.file 1 "src/print.cpp"
   1:src/print.cpp **** //
   2:src/print.cpp **** // Created by os on 9/6/22.
   3:src/print.cpp **** //
   4:src/print.cpp **** 
   5:src/print.cpp **** #include "../h/print.hpp"
   6:src/print.cpp **** #include "../h/riscv.hpp"
   7:src/print.cpp **** #include "../lib/console.h"
   8:src/print.cpp **** 
   9:src/print.cpp **** void __print_string(char const *string) {
  12              		.loc 1 9 41
  13              		.cfi_startproc
  14              	.LVL0:
  15 0000 130101FE 		addi	sp,sp,-32
  16              		.cfi_def_cfa_offset 32
  17 0004 233C1100 		sd	ra,24(sp)
  18 0008 23388100 		sd	s0,16(sp)
  19 000c 23349100 		sd	s1,8(sp)
  20              		.cfi_offset 1, -8
  21              		.cfi_offset 8, -16
  22              		.cfi_offset 9, -24
  23 0010 13040102 		addi	s0,sp,32
  24              		.cfi_def_cfa 8, 0
  25 0014 93040500 		mv	s1,a0
  10:src/print.cpp ****     for (char const *c = string; *c != '\0'; c++) __putc(*c);
  26              		.loc 1 10 5
  27              	.LVL1:
  28              	.L3:
  29              	.LBB2:
  30              		.loc 1 10 37 discriminator 3
  31              		.loc 1 10 34 is_stmt 0 discriminator 3
  32 0018 03C50400 		lbu	a0,0(s1)
  33              		.loc 1 10 37 discriminator 3
  34 001c 630A0500 		beqz	a0,.L1
  35              		.loc 1 10 51 is_stmt 1 discriminator 2
  36              		.loc 1 10 57 is_stmt 0 discriminator 2
  37 0020 97000000 		call	__putc@plt
  37      E7800000 
  38              	.LVL2:
  39              		.loc 1 10 5 is_stmt 1 discriminator 2
  40 0028 93841400 		addi	s1,s1,1
  41              	.LVL3:
  42 002c 6FF0DFFE 		j	.L3
  43              	.L1:
  44              	.LBE2:
  11:src/print.cpp **** }
  45              		.loc 1 11 1 is_stmt 0
  46 0030 83308101 		ld	ra,24(sp)
GAS LISTING /tmp/ccoh9UgR.s 			page 2


  47              		.cfi_restore 1
  48 0034 03340101 		ld	s0,16(sp)
  49              		.cfi_restore 8
  50              		.cfi_def_cfa 2, 32
  51 0038 83348100 		ld	s1,8(sp)
  52              		.cfi_restore 9
  53              	.LVL4:
  54 003c 13010102 		addi	sp,sp,32
  55              		.cfi_def_cfa_offset 0
  56 0040 67800000 		jr	ra
  57              		.cfi_endproc
  58              	.LFE14:
  60              		.align	2
  61              		.globl	_Z14__print_uint64m
  63              	_Z14__print_uint64m:
  64              	.LFB15:
  12:src/print.cpp **** 
  13:src/print.cpp **** void __print_uint64(uint64 integer) {
  65              		.loc 1 13 37 is_stmt 1
  66              		.cfi_startproc
  67              	.LVL5:
  68 0044 130101FC 		addi	sp,sp,-64
  69              		.cfi_def_cfa_offset 64
  70 0048 233C1102 		sd	ra,56(sp)
  71 004c 23388102 		sd	s0,48(sp)
  72 0050 23349102 		sd	s1,40(sp)
  73              		.cfi_offset 1, -8
  74              		.cfi_offset 8, -16
  75              		.cfi_offset 9, -24
  76 0054 13040104 		addi	s0,sp,64
  77              		.cfi_def_cfa 8, 0
  14:src/print.cpp ****     static char digits[] = "0123456789";
  78              		.loc 1 14 5
  15:src/print.cpp ****     char output[20];
  79              		.loc 1 15 5
  16:src/print.cpp ****     int i = 0;
  80              		.loc 1 16 5
  81              	.LVL6:
  82              		.loc 1 16 9 is_stmt 0
  83 0058 93040000 		li	s1,0
  84              	.LVL7:
  85              	.L6:
  17:src/print.cpp ****     do {
  86              		.loc 1 17 5 is_stmt 1
  18:src/print.cpp ****         output[i++] = digits[integer % 10];
  87              		.loc 1 18 9
  88              		.loc 1 18 38 is_stmt 0
  89 005c 9306A000 		li	a3,10
  90 0060 3376D502 		remu	a2,a0,a3
  91              	.LVL8:
  92              		.loc 1 18 42
  93 0064 17070000 		lla	a4,.LANCHOR0
  93      13070700 
  94 006c 3307C700 		add	a4,a4,a2
  95 0070 03470700 		lbu	a4,0(a4)
  96              		.loc 1 18 21
  97 0074 130604FE 		addi	a2,s0,-32
GAS LISTING /tmp/ccoh9UgR.s 			page 3


  98 0078 B3079600 		add	a5,a2,s1
  99 007c 9B841400 		addiw	s1,s1,1
 100              	.LVL9:
 101 0080 2384E7FE 		sb	a4,-24(a5)
  19:src/print.cpp ****     } while ((integer/=10) != 0);
 102              		.loc 1 19 28 is_stmt 1
 103 0084 13070500 		mv	a4,a0
 104              		.loc 1 19 22 is_stmt 0
 105 0088 3355D502 		divu	a0,a0,a3
 106              	.LVL10:
 107              		.loc 1 19 28
 108 008c 93079000 		li	a5,9
 109 0090 E3E6E7FC 		bgtu	a4,a5,.L6
 110              	.LVL11:
 111              	.L8:
  20:src/print.cpp ****     while(--i >= 0) __putc(output[i]);
 112              		.loc 1 20 5 is_stmt 1
 113              		.loc 1 20 15
 114 0094 9B84F4FF 		addiw	s1,s1,-1
 115              	.LVL12:
 116 0098 63CE0400 		bltz	s1,.L5
 117              		.loc 1 20 21 discriminator 1
 118              		.loc 1 20 27 is_stmt 0 discriminator 1
 119 009c 930704FE 		addi	a5,s0,-32
 120 00a0 B3879700 		add	a5,a5,s1
 121 00a4 03C587FE 		lbu	a0,-24(a5)
 122 00a8 97000000 		call	__putc@plt
 122      E7800000 
 123              	.LVL13:
 124 00b0 6FF05FFE 		j	.L8
 125              	.L5:
  21:src/print.cpp **** }
 126              		.loc 1 21 1
 127 00b4 83308103 		ld	ra,56(sp)
 128              		.cfi_restore 1
 129 00b8 03340103 		ld	s0,48(sp)
 130              		.cfi_restore 8
 131              		.cfi_def_cfa 2, 64
 132 00bc 83348102 		ld	s1,40(sp)
 133              		.cfi_restore 9
 134 00c0 13010104 		addi	sp,sp,64
 135              		.cfi_def_cfa_offset 0
 136 00c4 67800000 		jr	ra
 137              		.cfi_endproc
 138              	.LFE15:
 140              		.align	2
 141              		.globl	_Z11__print_intx
 143              	_Z11__print_intx:
 144              	.LFB16:
  22:src/print.cpp **** 
  23:src/print.cpp **** void __print_int(long long int integer) {
 145              		.loc 1 23 41 is_stmt 1
 146              		.cfi_startproc
 147              	.LVL14:
 148 00c8 130101FE 		addi	sp,sp,-32
 149              		.cfi_def_cfa_offset 32
 150 00cc 233C1100 		sd	ra,24(sp)
GAS LISTING /tmp/ccoh9UgR.s 			page 4


 151 00d0 23388100 		sd	s0,16(sp)
 152 00d4 23349100 		sd	s1,8(sp)
 153              		.cfi_offset 1, -8
 154              		.cfi_offset 8, -16
 155              		.cfi_offset 9, -24
 156 00d8 13040102 		addi	s0,sp,32
 157              		.cfi_def_cfa 8, 0
 158 00dc 93040500 		mv	s1,a0
  24:src/print.cpp ****     if (integer < 0) __putc('-'), integer *= -1;
 159              		.loc 1 24 5
 160 00e0 63420502 		bltz	a0,.L13
 161              	.LVL15:
 162              	.L11:
  25:src/print.cpp ****     __print_uint64(integer);
 163              		.loc 1 25 5
 164              		.loc 1 25 19 is_stmt 0
 165 00e4 13850400 		mv	a0,s1
 166 00e8 97000000 		call	_Z14__print_uint64m
 166      E7800000 
 167              	.LVL16:
  26:src/print.cpp **** }
 168              		.loc 1 26 1
 169 00f0 83308101 		ld	ra,24(sp)
 170              		.cfi_remember_state
 171              		.cfi_restore 1
 172 00f4 03340101 		ld	s0,16(sp)
 173              		.cfi_restore 8
 174              		.cfi_def_cfa 2, 32
 175 00f8 83348100 		ld	s1,8(sp)
 176              		.cfi_restore 9
 177              	.LVL17:
 178 00fc 13010102 		addi	sp,sp,32
 179              		.cfi_def_cfa_offset 0
 180 0100 67800000 		jr	ra
 181              	.LVL18:
 182              	.L13:
 183              		.cfi_restore_state
  24:src/print.cpp ****     if (integer < 0) __putc('-'), integer *= -1;
 184              		.loc 1 24 22 is_stmt 1 discriminator 1
  24:src/print.cpp ****     if (integer < 0) __putc('-'), integer *= -1;
 185              		.loc 1 24 28 is_stmt 0 discriminator 1
 186 0104 1305D002 		li	a0,45
 187 0108 97000000 		call	__putc@plt
 187      E7800000 
 188              	.LVL19:
  24:src/print.cpp ****     if (integer < 0) __putc('-'), integer *= -1;
 189              		.loc 1 24 43 discriminator 1
 190 0110 B3049040 		neg	s1,s1
 191              	.LVL20:
 192 0114 6FF01FFD 		j	.L11
 193              		.cfi_endproc
 194              	.LFE16:
 196              		.section	.rodata
 197              		.align	3
 198              		.set	.LANCHOR0,. + 0
 201              	_ZZ14__print_uint64mE6digits:
 202 0000 30313233 		.string	"0123456789"
GAS LISTING /tmp/ccoh9UgR.s 			page 5


 202      34353637 
 202      383900
 203              		.text
 204              	.Letext0:
 205              		.file 2 "src/../h/../lib/hw.h"
 206              		.file 3 "src/../lib/console.h"
GAS LISTING /tmp/ccoh9UgR.s 			page 6


DEFINED SYMBOLS
                            *ABS*:0000000000000000 print.cpp
     /tmp/ccoh9UgR.s:9      .text:0000000000000000 _Z14__print_stringPKc
     /tmp/ccoh9UgR.s:13     .text:0000000000000000 .L0 
     /tmp/ccoh9UgR.s:15     .text:0000000000000000 .L0 
     /tmp/ccoh9UgR.s:16     .text:0000000000000004 .L0 
     /tmp/ccoh9UgR.s:20     .text:0000000000000010 .L0 
     /tmp/ccoh9UgR.s:21     .text:0000000000000010 .L0 
     /tmp/ccoh9UgR.s:22     .text:0000000000000010 .L0 
     /tmp/ccoh9UgR.s:24     .text:0000000000000014 .L0 
     /tmp/ccoh9UgR.s:30     .text:0000000000000018 .L0 
     /tmp/ccoh9UgR.s:31     .text:0000000000000018 .L0 
     /tmp/ccoh9UgR.s:32     .text:0000000000000018 .L0 
     /tmp/ccoh9UgR.s:34     .text:000000000000001c .L0 
     /tmp/ccoh9UgR.s:36     .text:0000000000000020 .L0 
     /tmp/ccoh9UgR.s:37     .text:0000000000000020 .L0 
     /tmp/ccoh9UgR.s:40     .text:0000000000000028 .L0 
     /tmp/ccoh9UgR.s:46     .text:0000000000000030 .L0 
     /tmp/ccoh9UgR.s:47     .text:0000000000000034 .L0 
     /tmp/ccoh9UgR.s:49     .text:0000000000000038 .L0 
     /tmp/ccoh9UgR.s:50     .text:0000000000000038 .L0 
     /tmp/ccoh9UgR.s:52     .text:000000000000003c .L0 
     /tmp/ccoh9UgR.s:55     .text:0000000000000040 .L0 
     /tmp/ccoh9UgR.s:57     .text:0000000000000044 .L0 
     /tmp/ccoh9UgR.s:63     .text:0000000000000044 _Z14__print_uint64m
     /tmp/ccoh9UgR.s:66     .text:0000000000000044 .L0 
     /tmp/ccoh9UgR.s:68     .text:0000000000000044 .L0 
     /tmp/ccoh9UgR.s:69     .text:0000000000000048 .L0 
     /tmp/ccoh9UgR.s:73     .text:0000000000000054 .L0 
     /tmp/ccoh9UgR.s:74     .text:0000000000000054 .L0 
     /tmp/ccoh9UgR.s:75     .text:0000000000000054 .L0 
     /tmp/ccoh9UgR.s:77     .text:0000000000000058 .L0 
     /tmp/ccoh9UgR.s:79     .text:0000000000000058 .L0 
     /tmp/ccoh9UgR.s:80     .text:0000000000000058 .L0 
     /tmp/ccoh9UgR.s:82     .text:0000000000000058 .L0 
     /tmp/ccoh9UgR.s:83     .text:0000000000000058 .L0 
     /tmp/ccoh9UgR.s:87     .text:000000000000005c .L0 
     /tmp/ccoh9UgR.s:88     .text:000000000000005c .L0 
     /tmp/ccoh9UgR.s:89     .text:000000000000005c .L0 
     /tmp/ccoh9UgR.s:93     .text:0000000000000064 .L0 
     /tmp/ccoh9UgR.s:97     .text:0000000000000074 .L0 
     /tmp/ccoh9UgR.s:103    .text:0000000000000084 .L0 
     /tmp/ccoh9UgR.s:105    .text:0000000000000088 .L0 
     /tmp/ccoh9UgR.s:108    .text:000000000000008c .L0 
     /tmp/ccoh9UgR.s:113    .text:0000000000000094 .L0 
     /tmp/ccoh9UgR.s:114    .text:0000000000000094 .L0 
     /tmp/ccoh9UgR.s:118    .text:000000000000009c .L0 
     /tmp/ccoh9UgR.s:119    .text:000000000000009c .L0 
     /tmp/ccoh9UgR.s:127    .text:00000000000000b4 .L0 
     /tmp/ccoh9UgR.s:128    .text:00000000000000b8 .L0 
     /tmp/ccoh9UgR.s:130    .text:00000000000000bc .L0 
     /tmp/ccoh9UgR.s:131    .text:00000000000000bc .L0 
     /tmp/ccoh9UgR.s:133    .text:00000000000000c0 .L0 
     /tmp/ccoh9UgR.s:135    .text:00000000000000c4 .L0 
     /tmp/ccoh9UgR.s:137    .text:00000000000000c8 .L0 
     /tmp/ccoh9UgR.s:143    .text:00000000000000c8 _Z11__print_intx
     /tmp/ccoh9UgR.s:146    .text:00000000000000c8 .L0 
GAS LISTING /tmp/ccoh9UgR.s 			page 7


     /tmp/ccoh9UgR.s:148    .text:00000000000000c8 .L0 
     /tmp/ccoh9UgR.s:149    .text:00000000000000cc .L0 
     /tmp/ccoh9UgR.s:153    .text:00000000000000d8 .L0 
     /tmp/ccoh9UgR.s:154    .text:00000000000000d8 .L0 
     /tmp/ccoh9UgR.s:155    .text:00000000000000d8 .L0 
     /tmp/ccoh9UgR.s:157    .text:00000000000000dc .L0 
     /tmp/ccoh9UgR.s:160    .text:00000000000000e0 .L0 
     /tmp/ccoh9UgR.s:164    .text:00000000000000e4 .L0 
     /tmp/ccoh9UgR.s:165    .text:00000000000000e4 .L0 
     /tmp/ccoh9UgR.s:169    .text:00000000000000f0 .L0 
     /tmp/ccoh9UgR.s:170    .text:00000000000000f4 .L0 
     /tmp/ccoh9UgR.s:171    .text:00000000000000f4 .L0 
     /tmp/ccoh9UgR.s:173    .text:00000000000000f8 .L0 
     /tmp/ccoh9UgR.s:174    .text:00000000000000f8 .L0 
     /tmp/ccoh9UgR.s:176    .text:00000000000000fc .L0 
     /tmp/ccoh9UgR.s:179    .text:0000000000000100 .L0 
     /tmp/ccoh9UgR.s:183    .text:0000000000000104 .L0 
     /tmp/ccoh9UgR.s:185    .text:0000000000000104 .L0 
     /tmp/ccoh9UgR.s:186    .text:0000000000000104 .L0 
     /tmp/ccoh9UgR.s:190    .text:0000000000000110 .L0 
     /tmp/ccoh9UgR.s:193    .text:0000000000000118 .L0 
     /tmp/ccoh9UgR.s:198    .rodata:0000000000000000 .LANCHOR0
     /tmp/ccoh9UgR.s:201    .rodata:0000000000000000 _ZZ14__print_uint64mE6digits
     /tmp/ccoh9UgR.s:207    .text:0000000000000118 .L0 
     /tmp/ccoh9UgR.s:93     .text:0000000000000064 .L0 
     /tmp/ccoh9UgR.s:43     .text:0000000000000030 .L1
     /tmp/ccoh9UgR.s:28     .text:0000000000000018 .L3
     /tmp/ccoh9UgR.s:85     .text:000000000000005c .L6
     /tmp/ccoh9UgR.s:125    .text:00000000000000b4 .L5
     /tmp/ccoh9UgR.s:111    .text:0000000000000094 .L8
     /tmp/ccoh9UgR.s:182    .text:0000000000000104 .L13
     /tmp/ccoh9UgR.s:162    .text:00000000000000e4 .L11
     /tmp/ccoh9UgR.s:503    .debug_abbrev:0000000000000000 .Ldebug_abbrev0
     /tmp/ccoh9UgR.s:917    .debug_str:00000000000000f9 .LASF29
     /tmp/ccoh9UgR.s:897    .debug_str:0000000000000068 .LASF30
     /tmp/ccoh9UgR.s:943    .debug_str:0000000000000251 .LASF31
     /tmp/ccoh9UgR.s:5      .text:0000000000000000 .Ltext0
     /tmp/ccoh9UgR.s:204    .text:0000000000000118 .Letext0
     /tmp/ccoh9UgR.s:881    .debug_line:0000000000000000 .Ldebug_line0
     /tmp/ccoh9UgR.s:919    .debug_str:00000000000001bd .LASF0
     /tmp/ccoh9UgR.s:911    .debug_str:00000000000000ce .LASF1
     /tmp/ccoh9UgR.s:907    .debug_str:00000000000000ae .LASF2
     /tmp/ccoh9UgR.s:891    .debug_str:0000000000000037 .LASF4
     /tmp/ccoh9UgR.s:909    .debug_str:00000000000000bc .LASF3
     /tmp/ccoh9UgR.s:887    .debug_str:0000000000000022 .LASF5
     /tmp/ccoh9UgR.s:885    .debug_str:000000000000000f .LASF6
     /tmp/ccoh9UgR.s:901    .debug_str:000000000000007d .LASF7
     /tmp/ccoh9UgR.s:925    .debug_str:00000000000001d6 .LASF8
     /tmp/ccoh9UgR.s:889    .debug_str:0000000000000029 .LASF9
     /tmp/ccoh9UgR.s:947    .debug_str:000000000000028a .LASF10
     /tmp/ccoh9UgR.s:903    .debug_str:0000000000000090 .LASF11
     /tmp/ccoh9UgR.s:941    .debug_str:0000000000000241 .LASF12
     /tmp/ccoh9UgR.s:931    .debug_str:000000000000020d .LASF13
     /tmp/ccoh9UgR.s:913    .debug_str:00000000000000e1 .LASF14
     /tmp/ccoh9UgR.s:895    .debug_str:0000000000000052 .LASF15
     /tmp/ccoh9UgR.s:929    .debug_str:00000000000001f7 .LASF16
     /tmp/ccoh9UgR.s:915    .debug_str:00000000000000ed .LASF18
GAS LISTING /tmp/ccoh9UgR.s 			page 8


     /tmp/ccoh9UgR.s:927    .debug_str:00000000000001e6 .LASF20
     /tmp/ccoh9UgR.s:144    .text:00000000000000c8 .LFB16
     /tmp/ccoh9UgR.s:194    .text:0000000000000118 .LFE16
     /tmp/ccoh9UgR.s:939    .debug_str:0000000000000239 .LASF22
     /tmp/ccoh9UgR.s:799    .debug_loc:0000000000000000 .LLST4
     /tmp/ccoh9UgR.s:167    .text:00000000000000f0 .LVL16
     /tmp/ccoh9UgR.s:188    .text:0000000000000110 .LVL19
     /tmp/ccoh9UgR.s:933    .debug_str:000000000000021d .LASF17
     /tmp/ccoh9UgR.s:905    .debug_str:000000000000009f .LASF19
     /tmp/ccoh9UgR.s:893    .debug_str:000000000000003e .LASF21
     /tmp/ccoh9UgR.s:64     .text:0000000000000044 .LFB15
     /tmp/ccoh9UgR.s:138    .text:00000000000000c8 .LFE15
     /tmp/ccoh9UgR.s:814    .debug_loc:0000000000000049 .LLST2
     /tmp/ccoh9UgR.s:935    .debug_str:000000000000022b .LASF23
     /tmp/ccoh9UgR.s:937    .debug_str:0000000000000232 .LASF24
     /tmp/ccoh9UgR.s:825    .debug_loc:000000000000007f .LLST3
     /tmp/ccoh9UgR.s:123    .text:00000000000000b0 .LVL13
     /tmp/ccoh9UgR.s:921    .debug_str:00000000000001ca .LASF25
     /tmp/ccoh9UgR.s:883    .debug_str:0000000000000000 .LASF26
     /tmp/ccoh9UgR.s:945    .debug_str:0000000000000274 .LASF27
     /tmp/ccoh9UgR.s:10     .text:0000000000000000 .LFB14
     /tmp/ccoh9UgR.s:58     .text:0000000000000044 .LFE14
     /tmp/ccoh9UgR.s:899    .debug_str:0000000000000076 .LASF28
     /tmp/ccoh9UgR.s:847    .debug_loc:00000000000000de .LLST0
     /tmp/ccoh9UgR.s:29     .text:0000000000000018 .LBB2
     /tmp/ccoh9UgR.s:44     .text:0000000000000030 .LBE2
     /tmp/ccoh9UgR.s:861    .debug_loc:0000000000000117 .LLST1
     /tmp/ccoh9UgR.s:38     .text:0000000000000028 .LVL2
     /tmp/ccoh9UgR.s:923    .debug_str:00000000000001cf .LASF32
     /tmp/ccoh9UgR.s:147    .text:00000000000000c8 .LVL14
     /tmp/ccoh9UgR.s:161    .text:00000000000000e4 .LVL15
     /tmp/ccoh9UgR.s:177    .text:00000000000000fc .LVL17
     /tmp/ccoh9UgR.s:181    .text:0000000000000104 .LVL18
     /tmp/ccoh9UgR.s:67     .text:0000000000000044 .LVL5
     /tmp/ccoh9UgR.s:106    .text:000000000000008c .LVL10
     /tmp/ccoh9UgR.s:110    .text:0000000000000094 .LVL11
     /tmp/ccoh9UgR.s:81     .text:0000000000000058 .LVL6
     /tmp/ccoh9UgR.s:84     .text:000000000000005c .LVL7
     /tmp/ccoh9UgR.s:91     .text:0000000000000064 .LVL8
     /tmp/ccoh9UgR.s:100    .text:0000000000000080 .LVL9
     /tmp/ccoh9UgR.s:115    .text:0000000000000098 .LVL12
     /tmp/ccoh9UgR.s:14     .text:0000000000000000 .LVL0
     /tmp/ccoh9UgR.s:27     .text:0000000000000018 .LVL1
     /tmp/ccoh9UgR.s:53     .text:000000000000003c .LVL4
     /tmp/ccoh9UgR.s:208    .debug_info:0000000000000000 .Ldebug_info0

UNDEFINED SYMBOLS
__putc
