GAS LISTING /tmp/ccY8L7Nz.s 			page 1


   1              		.file	"scheduler.cpp"
   2              		.option pic
   3              		.option norelax
   4              		.text
   5              	.Ltext0:
   6              		.align	2
   8              	_Z41__static_initialization_and_destruction_0ii:
   9              	.LFB79:
  10              		.file 1 "src/scheduler.cpp"
   1:src/scheduler.cpp **** //
   2:src/scheduler.cpp **** // Created by os on 9/9/22.
   3:src/scheduler.cpp **** //
   4:src/scheduler.cpp **** 
   5:src/scheduler.cpp **** #include "../h/scheduler.hpp"
   6:src/scheduler.cpp **** 
   7:src/scheduler.cpp **** List<TCB> Scheduler::readyQueue;
   8:src/scheduler.cpp **** List<Scheduler::sleepNode> Scheduler::sleepQueue;
   9:src/scheduler.cpp **** 
  10:src/scheduler.cpp **** TCB* Scheduler::get() {
  11:src/scheduler.cpp ****     TCB* ret = readyQueue.takeFirst();
  12:src/scheduler.cpp ****     return ret;
  13:src/scheduler.cpp **** }
  14:src/scheduler.cpp **** 
  15:src/scheduler.cpp **** void Scheduler::put(TCB* tcb) {
  16:src/scheduler.cpp ****     readyQueue.putLast(tcb);
  17:src/scheduler.cpp **** }
  18:src/scheduler.cpp **** 
  19:src/scheduler.cpp **** void Scheduler::timerInterrupt() {
  20:src/scheduler.cpp ****     sleepNode *first = sleepQueue.getFirst();
  21:src/scheduler.cpp ****     while(first) {
  22:src/scheduler.cpp ****         //__print_uint64(first->time);
  23:src/scheduler.cpp ****         //__print_string("\n");
  24:src/scheduler.cpp ****         if (first->time != 0) break;
  25:src/scheduler.cpp ****         sleepQueue.takeFirst();
  26:src/scheduler.cpp ****         first->thread->setBlocked(false);
  27:src/scheduler.cpp ****         Scheduler::put(first->thread);
  28:src/scheduler.cpp ****         delete first;
  29:src/scheduler.cpp ****         first = sleepQueue.getFirst();
  30:src/scheduler.cpp ****     }
  31:src/scheduler.cpp ****     if (!first) return;
  32:src/scheduler.cpp ****     first->time--;
  33:src/scheduler.cpp **** }
  34:src/scheduler.cpp **** 
  35:src/scheduler.cpp **** void Scheduler::timeSleep(time_t time) {
  36:src/scheduler.cpp ****     TCB* old = TCB::running;
  37:src/scheduler.cpp ****     old->setBlocked(true);
  38:src/scheduler.cpp ****     sleepNode* sn = new sleepNode(time, old);
  39:src/scheduler.cpp ****     sleepQueue.putSorted(sn);
  40:src/scheduler.cpp ****     TCB::dispatch();
  41:src/scheduler.cpp **** }
  42:src/scheduler.cpp **** 
  43:src/scheduler.cpp **** void Scheduler::finish() {
  44:src/scheduler.cpp ****     sleepQueue.deleteList();
  45:src/scheduler.cpp ****     readyQueue.deleteList();
  46:src/scheduler.cpp **** }
  11              		.loc 1 46 1
  12              		.cfi_startproc
GAS LISTING /tmp/ccY8L7Nz.s 			page 2


  13              	.LVL0:
  14 0000 130101FF 		addi	sp,sp,-16
  15              		.cfi_def_cfa_offset 16
  16 0004 23348100 		sd	s0,8(sp)
  17              		.cfi_offset 8, -8
  18 0008 13040101 		addi	s0,sp,16
  19              		.cfi_def_cfa 8, 0
  20              		.loc 1 46 1 is_stmt 0
  21 000c 93071000 		li	a5,1
  22 0010 6308F500 		beq	a0,a5,.L4
  23              	.L1:
  24 0014 03348100 		ld	s0,8(sp)
  25              		.cfi_remember_state
  26              		.cfi_restore 8
  27              		.cfi_def_cfa 2, 16
  28 0018 13010101 		addi	sp,sp,16
  29              		.cfi_def_cfa_offset 0
  30 001c 67800000 		jr	ra
  31              	.L4:
  32              		.cfi_restore_state
  33              		.loc 1 46 1 discriminator 1
  34 0020 B7070100 		li	a5,65536
  35 0024 9387F7FF 		addi	a5,a5,-1
  36 0028 E396F5FE 		bne	a1,a5,.L1
  37              	.LVL1:
  38              	.LBB64:
  39              	.LBB65:
  40              	.LBB66:
  41              		.file 2 "src/../h/list.hpp"
   1:src/../h/list.hpp **** //
   2:src/../h/list.hpp **** // Created by os on 9/6/22.
   3:src/../h/list.hpp **** //
   4:src/../h/list.hpp **** 
   5:src/../h/list.hpp **** #ifndef OSMIUM_LIST_H
   6:src/../h/list.hpp **** #define OSMIUM_LIST_H
   7:src/../h/list.hpp **** 
   8:src/../h/list.hpp **** #include "../lib/console.h"
   9:src/../h/list.hpp **** 
  10:src/../h/list.hpp **** #include "__print.hpp"
  11:src/../h/list.hpp **** #include "memory_allocator.hpp"
  12:src/../h/list.hpp **** 
  13:src/../h/list.hpp **** template <typename T>
  14:src/../h/list.hpp **** class List {
  15:src/../h/list.hpp **** private:
  16:src/../h/list.hpp ****     struct Node {
  17:src/../h/list.hpp ****         T *data;
  18:src/../h/list.hpp ****         Node *next;
  19:src/../h/list.hpp **** 
  20:src/../h/list.hpp ****         Node(T *data, Node *next) : data(data), next(next) {}
  21:src/../h/list.hpp **** 
  22:src/../h/list.hpp ****         void* operator new(size_t size) {
  23:src/../h/list.hpp ****             return MemoryAllocator::allocate(size);
  24:src/../h/list.hpp ****         }
  25:src/../h/list.hpp **** 
  26:src/../h/list.hpp ****         void* operator new[](size_t size) {
  27:src/../h/list.hpp ****             return MemoryAllocator::allocate(size);
  28:src/../h/list.hpp ****         }
GAS LISTING /tmp/ccY8L7Nz.s 			page 3


  29:src/../h/list.hpp **** 
  30:src/../h/list.hpp ****         void operator delete(void* ptr) {
  31:src/../h/list.hpp ****             MemoryAllocator::free(ptr);
  32:src/../h/list.hpp ****         }
  33:src/../h/list.hpp **** 
  34:src/../h/list.hpp ****         void operator delete[](void* ptr) {
  35:src/../h/list.hpp ****             MemoryAllocator::free(ptr);
  36:src/../h/list.hpp ****         }
  37:src/../h/list.hpp ****     };
  38:src/../h/list.hpp **** 
  39:src/../h/list.hpp ****     Node *head, *tail;
  40:src/../h/list.hpp **** public:
  41:src/../h/list.hpp ****     List() : head(0), tail(0) {}
  42              		.loc 2 41 29
  43 002c 97070000 		lla	a5,.LANCHOR0
  43      93870700 
  44 0034 23B00700 		sd	zero,0(a5)
  45 0038 23B40700 		sd	zero,8(a5)
  46              	.LVL2:
  47              	.LBE66:
  48              	.LBE65:
  49              	.LBE64:
  50              	.LBB67:
  51              	.LBB68:
  52              	.LBB69:
  53 003c 23B80700 		sd	zero,16(a5)
  54 0040 23BC0700 		sd	zero,24(a5)
  55              	.LVL3:
  56              	.LBE69:
  57              	.LBE68:
  58              	.LBE67:
  59              		.loc 1 46 1
  60 0044 6FF01FFD 		j	.L1
  61              		.cfi_endproc
  62              	.LFE79:
  64              		.align	2
  65              		.globl	_ZN9Scheduler3getEv
  67              	_ZN9Scheduler3getEv:
  68              	.LFB51:
  10:src/scheduler.cpp ****     TCB* ret = readyQueue.takeFirst();
  69              		.loc 1 10 23 is_stmt 1
  70              		.cfi_startproc
  71 0048 130101FE 		addi	sp,sp,-32
  72              		.cfi_def_cfa_offset 32
  73 004c 233C1100 		sd	ra,24(sp)
  74 0050 23388100 		sd	s0,16(sp)
  75 0054 23349100 		sd	s1,8(sp)
  76              		.cfi_offset 1, -8
  77              		.cfi_offset 8, -16
  78              		.cfi_offset 9, -24
  79 0058 13040102 		addi	s0,sp,32
  80              		.cfi_def_cfa 8, 0
  11:src/scheduler.cpp ****     return ret;
  81              		.loc 1 11 5
  82              	.LVL4:
  83              	.LBB70:
  84              	.LBB71:
GAS LISTING /tmp/ccY8L7Nz.s 			page 4


  42:src/../h/list.hpp ****     List(const List<T> &) = delete;
  43:src/../h/list.hpp ****     List<T> &operator=(const List<T> &) = delete;
  44:src/../h/list.hpp **** 
  45:src/../h/list.hpp ****     void putFirst(T *data) {
  46:src/../h/list.hpp ****         Node *newNode = new Node(data, head);
  47:src/../h/list.hpp ****         head = newNode;
  48:src/../h/list.hpp ****         if (!tail) tail = head;
  49:src/../h/list.hpp ****     }
  50:src/../h/list.hpp **** 
  51:src/../h/list.hpp ****     void putLast(T *data) {
  52:src/../h/list.hpp ****         Node *newNode = new Node(data, 0);
  53:src/../h/list.hpp ****         if (!tail) head = tail = newNode;
  54:src/../h/list.hpp ****         else {
  55:src/../h/list.hpp ****             tail->next = newNode;
  56:src/../h/list.hpp ****             tail = newNode;
  57:src/../h/list.hpp ****         }
  58:src/../h/list.hpp ****     }
  59:src/../h/list.hpp **** 
  60:src/../h/list.hpp ****     void putSorted(T* data) {
  61:src/../h/list.hpp ****         Node *newNode = new Node(data, 0);
  62:src/../h/list.hpp ****         if (!head) { head = tail = newNode; return; }
  63:src/../h/list.hpp ****         Node* curr = head, *prev = nullptr;
  64:src/../h/list.hpp ****         while (curr) {
  65:src/../h/list.hpp ****             if (*(uint64*)(newNode->data) < *(uint64*)(curr->data)) {
  66:src/../h/list.hpp ****                 break;
  67:src/../h/list.hpp ****             }
  68:src/../h/list.hpp ****             *(uint64*)(newNode->data) -= *(uint64*)(curr->data);
  69:src/../h/list.hpp ****             prev = curr;
  70:src/../h/list.hpp ****             curr = curr->next;
  71:src/../h/list.hpp ****         }
  72:src/../h/list.hpp ****         if (prev) prev->next = newNode;
  73:src/../h/list.hpp ****         else head = newNode;
  74:src/../h/list.hpp ****         if (curr) {newNode->next = curr; *(uint64*)(curr->data) -= *(uint64*)(newNode->data);}
  75:src/../h/list.hpp ****         else prev->next = newNode;
  76:src/../h/list.hpp ****     }
  77:src/../h/list.hpp **** 
  78:src/../h/list.hpp ****     T* takeFirst() {
  79:src/../h/list.hpp ****         if (!head) return 0;
  85              		.loc 2 79 14 is_stmt 0
  86 005c 17050000 		ld	a0,.LANCHOR0
  86      03350500 
  87              		.loc 2 79 9
  88 0064 63020504 		beqz	a0,.L8
  80:src/../h/list.hpp **** 
  81:src/../h/list.hpp ****         T* ret = head->data;
  89              		.loc 2 81 12
  90 0068 83340500 		ld	s1,0(a0)
  91              	.LVL5:
  82:src/../h/list.hpp ****         Node* old = head;
  83:src/../h/list.hpp ****         head = head->next;
  92              		.loc 2 83 22
  93 006c 83378500 		ld	a5,8(a0)
  94              		.loc 2 83 9
  95 0070 17070000 		sd	a5,.LANCHOR0,a4
  95      2330F700 
  84:src/../h/list.hpp ****         if (!head) tail = 0;
  96              		.loc 2 84 9
GAS LISTING /tmp/ccY8L7Nz.s 			page 5


  97 0078 63820702 		beqz	a5,.L10
  98              	.L7:
  99              	.LVL6:
 100              	.LBB72:
 101              	.LBB73:
  31:src/../h/list.hpp ****         }
 102              		.loc 2 31 34
 103 007c 97000000 		call	_ZN15MemoryAllocator4freeEPv@plt
 103      E7800000 
 104              	.LVL7:
 105              	.L5:
 106              	.LBE73:
 107              	.LBE72:
 108              	.LBE71:
 109              	.LBE70:
  13:src/scheduler.cpp **** 
 110              		.loc 1 13 1
 111 0084 13850400 		mv	a0,s1
 112 0088 83308101 		ld	ra,24(sp)
 113              		.cfi_remember_state
 114              		.cfi_restore 1
 115 008c 03340101 		ld	s0,16(sp)
 116              		.cfi_restore 8
 117              		.cfi_def_cfa 2, 32
 118 0090 83348100 		ld	s1,8(sp)
 119              		.cfi_restore 9
 120 0094 13010102 		addi	sp,sp,32
 121              		.cfi_def_cfa_offset 0
 122 0098 67800000 		jr	ra
 123              	.LVL8:
 124              	.L10:
 125              		.cfi_restore_state
 126              	.LBB75:
 127              	.LBB74:
 128              		.loc 2 84 20
 129 009c 97070000 		sd	zero,.LANCHOR0+8,a5
 129      23B00700 
 130 00a4 6FF09FFD 		j	.L7
 131              	.LVL9:
 132              	.L8:
  79:src/../h/list.hpp **** 
 133              		.loc 2 79 27
 134 00a8 93040500 		mv	s1,a0
 135              	.LVL10:
 136              	.LBE74:
 137              	.LBE75:
  12:src/scheduler.cpp **** }
 138              		.loc 1 12 5 is_stmt 1
  12:src/scheduler.cpp **** }
 139              		.loc 1 12 12 is_stmt 0
 140 00ac 6FF09FFD 		j	.L5
 141              		.cfi_endproc
 142              	.LFE51:
 144              		.align	2
 145              		.globl	_ZN9Scheduler3putEP3TCB
 147              	_ZN9Scheduler3putEP3TCB:
 148              	.LFB52:
GAS LISTING /tmp/ccY8L7Nz.s 			page 6


  15:src/scheduler.cpp ****     readyQueue.putLast(tcb);
 149              		.loc 1 15 31 is_stmt 1
 150              		.cfi_startproc
 151              	.LVL11:
 152 00b0 130101FE 		addi	sp,sp,-32
 153              		.cfi_def_cfa_offset 32
 154 00b4 233C1100 		sd	ra,24(sp)
 155 00b8 23388100 		sd	s0,16(sp)
 156 00bc 23349100 		sd	s1,8(sp)
 157              		.cfi_offset 1, -8
 158              		.cfi_offset 8, -16
 159              		.cfi_offset 9, -24
 160 00c0 13040102 		addi	s0,sp,32
 161              		.cfi_def_cfa 8, 0
 162 00c4 93040500 		mv	s1,a0
  16:src/scheduler.cpp **** }
 163              		.loc 1 16 5
 164              	.LVL12:
 165              	.LBB76:
 166              	.LBB77:
 167              	.LBB78:
 168              	.LBB79:
  23:src/../h/list.hpp ****         }
 169              		.loc 2 23 45 is_stmt 0
 170 00c8 13050001 		li	a0,16
 171              	.LVL13:
 172 00cc 97000000 		call	_ZN15MemoryAllocator8allocateEm@plt
 172      E7800000 
 173              	.LVL14:
 174              	.LBE79:
 175              	.LBE78:
 176              	.LBB80:
 177              	.LBB81:
  20:src/../h/list.hpp **** 
 178              		.loc 2 20 58
 179 00d4 23309500 		sd	s1,0(a0)
 180 00d8 23340500 		sd	zero,8(a0)
 181              	.LVL15:
 182              	.LBE81:
 183              	.LBE80:
  53:src/../h/list.hpp ****         else {
 184              		.loc 2 53 14
 185 00dc 97070000 		ld	a5,.LANCHOR0+8
 185      83B70700 
  53:src/../h/list.hpp ****         else {
 186              		.loc 2 53 9
 187 00e4 63820702 		beqz	a5,.L15
  55:src/../h/list.hpp ****             tail = newNode;
 188              		.loc 2 55 13
 189 00e8 23B4A700 		sd	a0,8(a5)
  56:src/../h/list.hpp ****         }
 190              		.loc 2 56 13
 191 00ec 97070000 		sd	a0,.LANCHOR0+8,a5
 191      23B0A700 
 192              	.LVL16:
 193              	.L11:
 194              	.LBE77:
GAS LISTING /tmp/ccY8L7Nz.s 			page 7


 195              	.LBE76:
  17:src/scheduler.cpp **** 
 196              		.loc 1 17 1
 197 00f4 83308101 		ld	ra,24(sp)
 198              		.cfi_remember_state
 199              		.cfi_restore 1
 200 00f8 03340101 		ld	s0,16(sp)
 201              		.cfi_restore 8
 202              		.cfi_def_cfa 2, 32
 203 00fc 83348100 		ld	s1,8(sp)
 204              		.cfi_restore 9
 205              	.LVL17:
 206 0100 13010102 		addi	sp,sp,32
 207              		.cfi_def_cfa_offset 0
 208 0104 67800000 		jr	ra
 209              	.LVL18:
 210              	.L15:
 211              		.cfi_restore_state
 212              	.LBB83:
 213              	.LBB82:
  53:src/../h/list.hpp ****         else {
 214              		.loc 2 53 20
 215 0108 97070000 		lla	a5,.LANCHOR0
 215      93870700 
 216 0110 23B4A700 		sd	a0,8(a5)
 217 0114 23B0A700 		sd	a0,0(a5)
 218 0118 6FF0DFFD 		j	.L11
 219              	.LBE82:
 220              	.LBE83:
 221              		.cfi_endproc
 222              	.LFE52:
 224              		.align	2
 225              		.globl	_ZN9Scheduler14timerInterruptEv
 227              	_ZN9Scheduler14timerInterruptEv:
 228              	.LFB53:
  19:src/scheduler.cpp ****     sleepNode *first = sleepQueue.getFirst();
 229              		.loc 1 19 34 is_stmt 1
 230              		.cfi_startproc
 231 011c 130101FE 		addi	sp,sp,-32
 232              		.cfi_def_cfa_offset 32
 233 0120 233C1100 		sd	ra,24(sp)
 234 0124 23388100 		sd	s0,16(sp)
 235 0128 23349100 		sd	s1,8(sp)
 236              		.cfi_offset 1, -8
 237              		.cfi_offset 8, -16
 238              		.cfi_offset 9, -24
 239 012c 13040102 		addi	s0,sp,32
 240              		.cfi_def_cfa 8, 0
  20:src/scheduler.cpp ****     while(first) {
 241              		.loc 1 20 5
 242              	.LVL19:
 243              	.LBB96:
 244              	.LBB97:
  85:src/../h/list.hpp ****         delete old;
  86:src/../h/list.hpp ****         //printStatus();
  87:src/../h/list.hpp **** 
  88:src/../h/list.hpp ****         return ret;
GAS LISTING /tmp/ccY8L7Nz.s 			page 8


  89:src/../h/list.hpp ****     }
  90:src/../h/list.hpp **** 
  91:src/../h/list.hpp ****     T* takeLast() {
  92:src/../h/list.hpp ****         if (!head) return 0;
  93:src/../h/list.hpp **** 
  94:src/../h/list.hpp ****         Node* curr = head, *prev = 0;
  95:src/../h/list.hpp ****         while (curr->next) prev = curr, curr = curr->next;
  96:src/../h/list.hpp **** 
  97:src/../h/list.hpp ****         if(prev) prev->next = 0;
  98:src/../h/list.hpp ****         else head = 0;
  99:src/../h/list.hpp ****         tail = prev;
 100:src/../h/list.hpp ****         T* ret = curr->data;
 101:src/../h/list.hpp **** 
 102:src/../h/list.hpp ****         return ret;
 103:src/../h/list.hpp ****     }
 104:src/../h/list.hpp **** 
 105:src/../h/list.hpp ****     T* getFirst() {
 106:src/../h/list.hpp ****         if(!head) return 0;
 245              		.loc 2 106 13 is_stmt 0
 246 0130 97040000 		ld	s1,.LANCHOR0+16
 246      83B40400 
 247              		.loc 2 106 9
 248 0138 63860404 		beqz	s1,.L21
 107:src/../h/list.hpp ****         return head->data;
 249              		.loc 2 107 22
 250 013c 83B40400 		ld	s1,0(s1)
 251 0140 6F004004 		j	.L21
 252              	.LVL20:
 253              	.L24:
 254              	.LBE97:
 255              	.LBE96:
 256              	.LBB98:
 257              	.LBB99:
  84:src/../h/list.hpp ****         delete old;
 258              		.loc 2 84 20
 259 0144 97070000 		sd	zero,.LANCHOR0+24,a5
 259      23B00700 
 260              	.L20:
 261              	.LVL21:
 262              	.LBB100:
 263              	.LBB101:
  31:src/../h/list.hpp ****         }
 264              		.loc 2 31 34
 265 014c 97000000 		call	_ZN15MemoryAllocator4freeEPv@plt
 265      E7800000 
 266              	.LVL22:
 267              	.L19:
 268              	.LBE101:
 269              	.LBE100:
 270              	.LBE99:
 271              	.LBE98:
  26:src/scheduler.cpp ****         Scheduler::put(first->thread);
 272              		.loc 1 26 9 is_stmt 1
  26:src/scheduler.cpp ****         Scheduler::put(first->thread);
 273              		.loc 1 26 16 is_stmt 0
 274 0154 83B78400 		ld	a5,8(s1)
 275              	.LVL23:
GAS LISTING /tmp/ccY8L7Nz.s 			page 9


 276              	.LBB103:
 277              	.LBB104:
 278              		.file 3 "src/../h/tcb.hpp"
   1:src/../h/tcb.hpp **** //
   2:src/../h/tcb.hpp **** // Created by os on 9/9/22.
   3:src/../h/tcb.hpp **** //
   4:src/../h/tcb.hpp **** 
   5:src/../h/tcb.hpp **** #ifndef OSMIUM_TCB_HPP
   6:src/../h/tcb.hpp **** #define OSMIUM_TCB_HPP
   7:src/../h/tcb.hpp **** 
   8:src/../h/tcb.hpp **** #include "../lib/hw.h"
   9:src/../h/tcb.hpp **** //#include "../h/scheduler.hpp"
  10:src/../h/tcb.hpp **** #include "riscv.hpp"
  11:src/../h/tcb.hpp **** #include "memory_allocator.hpp"
  12:src/../h/tcb.hpp **** 
  13:src/../h/tcb.hpp **** class Scheduler;
  14:src/../h/tcb.hpp **** 
  15:src/../h/tcb.hpp **** 
  16:src/../h/tcb.hpp **** class TCB {
  17:src/../h/tcb.hpp **** public:
  18:src/../h/tcb.hpp ****     using Body = void (*)(void*);
  19:src/../h/tcb.hpp **** 
  20:src/../h/tcb.hpp ****     static TCB* createTCB(Body body, void* args);
  21:src/../h/tcb.hpp **** 
  22:src/../h/tcb.hpp ****     static TCB* createDeactivatedTCB(Body body, void* args);
  23:src/../h/tcb.hpp **** 
  24:src/../h/tcb.hpp ****     static TCB* createSupervisorTCB(Body body, void* args);
  25:src/../h/tcb.hpp **** 
  26:src/../h/tcb.hpp ****     bool isFinished() const { return finished; }
  27:src/../h/tcb.hpp **** 
  28:src/../h/tcb.hpp ****     void setFinished(bool val) { finished = val; }
  29:src/../h/tcb.hpp **** 
  30:src/../h/tcb.hpp ****     bool isBlocked() const { return blocked; }
  31:src/../h/tcb.hpp **** 
  32:src/../h/tcb.hpp ****     void setBlocked(bool val) { blocked = val; }
 279              		.loc 3 32 33 is_stmt 1
 280              		.loc 3 32 41 is_stmt 0
 281 0158 A38C0700 		sb	zero,25(a5)
 282              	.LVL24:
 283              	.LBE104:
 284              	.LBE103:
  27:src/scheduler.cpp ****         delete first;
 285              		.loc 1 27 9 is_stmt 1
  27:src/scheduler.cpp ****         delete first;
 286              		.loc 1 27 23 is_stmt 0
 287 015c 03B58400 		ld	a0,8(s1)
 288 0160 97000000 		call	_ZN9Scheduler3putEP3TCB
 288      E7800000 
 289              	.LVL25:
  28:src/scheduler.cpp ****         first = sleepQueue.getFirst();
 290              		.loc 1 28 9 is_stmt 1
 291              	.LBB105:
 292              	.LBB106:
 293              		.file 4 "src/../h/scheduler.hpp"
   1:src/../h/scheduler.hpp **** //
   2:src/../h/scheduler.hpp **** // Created by os on 9/9/22.
   3:src/../h/scheduler.hpp **** //
GAS LISTING /tmp/ccY8L7Nz.s 			page 10


   4:src/../h/scheduler.hpp **** 
   5:src/../h/scheduler.hpp **** #ifndef OSMIUM_SCHEDULER_HPP
   6:src/../h/scheduler.hpp **** #define OSMIUM_SCHEDULER_HPP
   7:src/../h/scheduler.hpp **** 
   8:src/../h/scheduler.hpp **** #include "syscall_c.h"
   9:src/../h/scheduler.hpp **** #include "list.hpp"
  10:src/../h/scheduler.hpp **** 
  11:src/../h/scheduler.hpp **** #include "tcb.hpp"
  12:src/../h/scheduler.hpp **** 
  13:src/../h/scheduler.hpp **** class Scheduler {
  14:src/../h/scheduler.hpp **** private:
  15:src/../h/scheduler.hpp ****     static List<TCB> readyQueue;
  16:src/../h/scheduler.hpp **** 
  17:src/../h/scheduler.hpp ****     struct sleepNode {
  18:src/../h/scheduler.hpp ****         time_t time;
  19:src/../h/scheduler.hpp ****         TCB* thread;
  20:src/../h/scheduler.hpp **** 
  21:src/../h/scheduler.hpp ****         sleepNode(time_t time, TCB* thread) : time(time), thread(thread) {}
  22:src/../h/scheduler.hpp **** 
  23:src/../h/scheduler.hpp ****         void* operator new(size_t size) {
  24:src/../h/scheduler.hpp ****             return MemoryAllocator::allocate(size);
  25:src/../h/scheduler.hpp ****         }
  26:src/../h/scheduler.hpp **** 
  27:src/../h/scheduler.hpp ****         void* operator new[](size_t size) {
  28:src/../h/scheduler.hpp ****             return MemoryAllocator::allocate(size);
  29:src/../h/scheduler.hpp ****         }
  30:src/../h/scheduler.hpp **** 
  31:src/../h/scheduler.hpp ****         void operator delete(void* ptr) {
  32:src/../h/scheduler.hpp ****             MemoryAllocator::free(ptr);
 294              		.loc 4 32 13
 295              		.loc 4 32 34 is_stmt 0
 296 0168 13850400 		mv	a0,s1
 297 016c 97000000 		call	_ZN15MemoryAllocator4freeEPv@plt
 297      E7800000 
 298              	.LVL26:
 299              	.LBE106:
 300              	.LBE105:
  29:src/scheduler.cpp ****     }
 301              		.loc 1 29 9 is_stmt 1
 302              	.LBB107:
 303              	.LBB108:
 106:src/../h/list.hpp ****         return head->data;
 304              		.loc 2 106 13 is_stmt 0
 305 0174 97040000 		ld	s1,.LANCHOR0+16
 305      83B40400 
 306              	.LVL27:
 106:src/../h/list.hpp ****         return head->data;
 307              		.loc 2 106 9
 308 017c 638A0402 		beqz	s1,.L18
 309              		.loc 2 107 22
 310 0180 83B40400 		ld	s1,0(s1)
 311              	.LVL28:
 312              	.L21:
 313              	.LBE108:
 314              	.LBE107:
  21:src/scheduler.cpp ****         //__print_uint64(first->time);
 315              		.loc 1 21 5 is_stmt 1
GAS LISTING /tmp/ccY8L7Nz.s 			page 11


  21:src/scheduler.cpp ****         //__print_uint64(first->time);
 316              		.loc 1 21 11
 317 0184 63860402 		beqz	s1,.L18
  24:src/scheduler.cpp ****         sleepQueue.takeFirst();
 318              		.loc 1 24 9
  24:src/scheduler.cpp ****         sleepQueue.takeFirst();
 319              		.loc 1 24 20 is_stmt 0
 320 0188 83B70400 		ld	a5,0(s1)
  24:src/scheduler.cpp ****         sleepQueue.takeFirst();
 321              		.loc 1 24 9
 322 018c 63920702 		bnez	a5,.L18
  25:src/scheduler.cpp ****         first->thread->setBlocked(false);
 323              		.loc 1 25 9 is_stmt 1
 324              	.LVL29:
 325              	.LBB109:
 326              	.LBB102:
  79:src/../h/list.hpp **** 
 327              		.loc 2 79 14 is_stmt 0
 328 0190 17050000 		ld	a0,.LANCHOR0+16
 328      03350500 
  79:src/../h/list.hpp **** 
 329              		.loc 2 79 9
 330 0198 E30E05FA 		beqz	a0,.L19
 331              	.LVL30:
  83:src/../h/list.hpp ****         if (!head) tail = 0;
 332              		.loc 2 83 22
 333 019c 83378500 		ld	a5,8(a0)
  83:src/../h/list.hpp ****         if (!head) tail = 0;
 334              		.loc 2 83 9
 335 01a0 17070000 		sd	a5,.LANCHOR0+16,a4
 335      2330F700 
 336              	.LVL31:
  84:src/../h/list.hpp ****         delete old;
 337              		.loc 2 84 9
 338 01a8 E39207FA 		bnez	a5,.L20
 339 01ac 6FF09FF9 		j	.L24
 340              	.LVL32:
 341              	.L18:
 342              	.LBE102:
 343              	.LBE109:
  31:src/scheduler.cpp ****     first->time--;
 344              		.loc 1 31 5 is_stmt 1
 345 01b0 63880400 		beqz	s1,.L16
  32:src/scheduler.cpp **** }
 346              		.loc 1 32 5
  32:src/scheduler.cpp **** }
 347              		.loc 1 32 12 is_stmt 0
 348 01b4 83B70400 		ld	a5,0(s1)
  32:src/scheduler.cpp **** }
 349              		.loc 1 32 16
 350 01b8 9387F7FF 		addi	a5,a5,-1
 351 01bc 23B0F400 		sd	a5,0(s1)
 352              	.L16:
  33:src/scheduler.cpp **** 
 353              		.loc 1 33 1
 354 01c0 83308101 		ld	ra,24(sp)
 355              		.cfi_restore 1
GAS LISTING /tmp/ccY8L7Nz.s 			page 12


 356 01c4 03340101 		ld	s0,16(sp)
 357              		.cfi_restore 8
 358              		.cfi_def_cfa 2, 32
 359 01c8 83348100 		ld	s1,8(sp)
 360              		.cfi_restore 9
 361 01cc 13010102 		addi	sp,sp,32
 362              		.cfi_def_cfa_offset 0
 363 01d0 67800000 		jr	ra
 364              		.cfi_endproc
 365              	.LFE53:
 367              		.align	2
 368              		.globl	_ZN9Scheduler9timeSleepEm
 370              	_ZN9Scheduler9timeSleepEm:
 371              	.LFB54:
  35:src/scheduler.cpp ****     TCB* old = TCB::running;
 372              		.loc 1 35 40 is_stmt 1
 373              		.cfi_startproc
 374              	.LVL33:
 375 01d4 130101FD 		addi	sp,sp,-48
 376              		.cfi_def_cfa_offset 48
 377 01d8 23341102 		sd	ra,40(sp)
 378 01dc 23308102 		sd	s0,32(sp)
 379 01e0 233C9100 		sd	s1,24(sp)
 380 01e4 23382101 		sd	s2,16(sp)
 381 01e8 23343101 		sd	s3,8(sp)
 382              		.cfi_offset 1, -8
 383              		.cfi_offset 8, -16
 384              		.cfi_offset 9, -24
 385              		.cfi_offset 18, -32
 386              		.cfi_offset 19, -40
 387 01ec 13040103 		addi	s0,sp,48
 388              		.cfi_def_cfa 8, 0
 389 01f0 13090500 		mv	s2,a0
  36:src/scheduler.cpp ****     old->setBlocked(true);
 390              		.loc 1 36 5
  36:src/scheduler.cpp ****     old->setBlocked(true);
 391              		.loc 1 36 10 is_stmt 0
 392 01f4 97070000 		la	a5,_ZN3TCB7runningE
 392      83B70700 
 393 01fc 83B90700 		ld	s3,0(a5)
 394              	.LVL34:
  37:src/scheduler.cpp ****     sleepNode* sn = new sleepNode(time, old);
 395              		.loc 1 37 5 is_stmt 1
 396              	.LBB124:
 397              	.LBB125:
 398              		.loc 3 32 33
 399              		.loc 3 32 41 is_stmt 0
 400 0200 93071000 		li	a5,1
 401 0204 A38CF900 		sb	a5,25(s3)
 402              	.LVL35:
 403              	.LBE125:
 404              	.LBE124:
  38:src/scheduler.cpp ****     sleepQueue.putSorted(sn);
 405              		.loc 1 38 5 is_stmt 1
 406              	.LBB126:
 407              	.LBB127:
  24:src/../h/scheduler.hpp ****         }
GAS LISTING /tmp/ccY8L7Nz.s 			page 13


 408              		.loc 4 24 13
  24:src/../h/scheduler.hpp ****         }
 409              		.loc 4 24 45 is_stmt 0
 410 0208 13050001 		li	a0,16
 411              	.LVL36:
 412 020c 97000000 		call	_ZN15MemoryAllocator8allocateEm@plt
 412      E7800000 
 413              	.LVL37:
 414 0214 93040500 		mv	s1,a0
 415              	.LVL38:
 416              	.LBE127:
 417              	.LBE126:
 418              	.LBB128:
 419              	.LBB129:
  21:src/../h/scheduler.hpp **** 
 420              		.loc 4 21 72
 421 0218 23302501 		sd	s2,0(a0)
 422 021c 23343501 		sd	s3,8(a0)
 423              	.LVL39:
 424              	.LBE129:
 425              	.LBE128:
  39:src/scheduler.cpp ****     TCB::dispatch();
 426              		.loc 1 39 5 is_stmt 1
 427              	.LBB130:
 428              	.LBB131:
 429              	.LBB132:
 430              	.LBB133:
  23:src/../h/list.hpp ****         }
 431              		.loc 2 23 45 is_stmt 0
 432 0220 13050001 		li	a0,16
 433 0224 97000000 		call	_ZN15MemoryAllocator8allocateEm@plt
 433      E7800000 
 434              	.LVL40:
 435              	.LBE133:
 436              	.LBE132:
 437              	.LBB134:
 438              	.LBB135:
  20:src/../h/list.hpp **** 
 439              		.loc 2 20 58
 440 022c 23309500 		sd	s1,0(a0)
 441 0230 23340500 		sd	zero,8(a0)
 442              	.LVL41:
 443              	.LBE135:
 444              	.LBE134:
  62:src/../h/list.hpp ****         Node* curr = head, *prev = nullptr;
 445              		.loc 2 62 14
 446 0234 97070000 		ld	a5,.LANCHOR0+16
 446      83B70700 
  62:src/../h/list.hpp ****         Node* curr = head, *prev = nullptr;
 447              		.loc 2 62 9
 448 023c 638A0702 		beqz	a5,.L34
  63:src/../h/list.hpp ****         while (curr) {
 449              		.loc 2 63 29
 450 0240 93060000 		li	a3,0
 451              	.L26:
 452              	.LVL42:
  64:src/../h/list.hpp ****             if (*(uint64*)(newNode->data) < *(uint64*)(curr->data)) {
GAS LISTING /tmp/ccY8L7Nz.s 			page 14


 453              		.loc 2 64 9 is_stmt 1
 454 0244 63800704 		beqz	a5,.L28
  65:src/../h/list.hpp ****                 break;
 455              		.loc 2 65 37 is_stmt 0
 456 0248 03360500 		ld	a2,0(a0)
  65:src/../h/list.hpp ****                 break;
 457              		.loc 2 65 43
 458 024c 03370600 		ld	a4,0(a2)
  65:src/../h/list.hpp ****                 break;
 459              		.loc 2 65 62
 460 0250 83B50700 		ld	a1,0(a5)
  65:src/../h/list.hpp ****                 break;
 461              		.loc 2 65 43
 462 0254 83B50500 		ld	a1,0(a1)
  65:src/../h/list.hpp ****                 break;
 463              		.loc 2 65 13
 464 0258 6366B702 		bltu	a4,a1,.L28
  68:src/../h/list.hpp ****             prev = curr;
 465              		.loc 2 68 39
 466 025c 3307B740 		sub	a4,a4,a1
  68:src/../h/list.hpp ****             prev = curr;
 467              		.loc 2 68 13
 468 0260 2330E600 		sd	a4,0(a2)
 469              	.LVL43:
  69:src/../h/list.hpp ****             curr = curr->next;
 470              		.loc 2 69 13
 471 0264 93860700 		mv	a3,a5
  70:src/../h/list.hpp ****         }
 472              		.loc 2 70 13
 473 0268 83B78700 		ld	a5,8(a5)
 474              	.LVL44:
  64:src/../h/list.hpp ****             if (*(uint64*)(newNode->data) < *(uint64*)(curr->data)) {
 475              		.loc 2 64 9
 476 026c 6FF09FFD 		j	.L26
 477              	.LVL45:
 478              	.L34:
  62:src/../h/list.hpp ****         Node* curr = head, *prev = nullptr;
 479              		.loc 2 62 22
 480 0270 97070000 		lla	a5,.LANCHOR0
 480      93870700 
 481 0278 23BCA700 		sd	a0,24(a5)
 482 027c 23B8A700 		sd	a0,16(a5)
  62:src/../h/list.hpp ****         Node* curr = head, *prev = nullptr;
 483              		.loc 2 62 45
 484 0280 6F00C002 		j	.L27
 485              	.LVL46:
 486              	.L28:
  72:src/../h/list.hpp ****         else head = newNode;
 487              		.loc 2 72 9
 488 0284 63860604 		beqz	a3,.L29
  72:src/../h/list.hpp ****         else head = newNode;
 489              		.loc 2 72 19
 490 0288 23B4A600 		sd	a0,8(a3)
 491              	.L30:
  74:src/../h/list.hpp ****         else prev->next = newNode;
 492              		.loc 2 74 9
 493 028c 63880704 		beqz	a5,.L31
GAS LISTING /tmp/ccY8L7Nz.s 			page 15


  74:src/../h/list.hpp ****         else prev->next = newNode;
 494              		.loc 2 74 20
 495 0290 2334F500 		sd	a5,8(a0)
  74:src/../h/list.hpp ****         else prev->next = newNode;
 496              		.loc 2 74 59
 497 0294 03B70700 		ld	a4,0(a5)
  74:src/../h/list.hpp ****         else prev->next = newNode;
 498              		.loc 2 74 88
 499 0298 83360500 		ld	a3,0(a0)
 500              	.LVL47:
  74:src/../h/list.hpp ****         else prev->next = newNode;
 501              		.loc 2 74 65
 502 029c 83370700 		ld	a5,0(a4)
 503              	.LVL48:
 504 02a0 83B60600 		ld	a3,0(a3)
 505 02a4 B387D740 		sub	a5,a5,a3
  74:src/../h/list.hpp ****         else prev->next = newNode;
 506              		.loc 2 74 42
 507 02a8 2330F700 		sd	a5,0(a4)
 508              	.LVL49:
 509              	.L27:
 510              	.LBE131:
 511              	.LBE130:
  40:src/scheduler.cpp **** }
 512              		.loc 1 40 5 is_stmt 1
  40:src/scheduler.cpp **** }
 513              		.loc 1 40 18 is_stmt 0
 514 02ac 97000000 		call	_ZN3TCB8dispatchEv@plt
 514      E7800000 
 515              	.LVL50:
  41:src/scheduler.cpp **** 
 516              		.loc 1 41 1
 517 02b4 83308102 		ld	ra,40(sp)
 518              		.cfi_remember_state
 519              		.cfi_restore 1
 520 02b8 03340102 		ld	s0,32(sp)
 521              		.cfi_restore 8
 522              		.cfi_def_cfa 2, 48
 523 02bc 83348101 		ld	s1,24(sp)
 524              		.cfi_restore 9
 525              	.LVL51:
 526 02c0 03390101 		ld	s2,16(sp)
 527              		.cfi_restore 18
 528              	.LVL52:
 529 02c4 83398100 		ld	s3,8(sp)
 530              		.cfi_restore 19
 531              	.LVL53:
 532 02c8 13010103 		addi	sp,sp,48
 533              		.cfi_def_cfa_offset 0
 534 02cc 67800000 		jr	ra
 535              	.LVL54:
 536              	.L29:
 537              		.cfi_restore_state
 538              	.LBB137:
 539              	.LBB136:
  73:src/../h/list.hpp ****         if (curr) {newNode->next = curr; *(uint64*)(curr->data) -= *(uint64*)(newNode->data);}
 540              		.loc 2 73 14
GAS LISTING /tmp/ccY8L7Nz.s 			page 16


 541 02d0 17070000 		sd	a0,.LANCHOR0+16,a4
 541      2330A700 
 542 02d8 6FF05FFB 		j	.L30
 543              	.L31:
  75:src/../h/list.hpp ****     }
 544              		.loc 2 75 14
 545 02dc 23B4A600 		sd	a0,8(a3)
 546 02e0 6FF0DFFC 		j	.L27
 547              	.LBE136:
 548              	.LBE137:
 549              		.cfi_endproc
 550              	.LFE54:
 552              		.align	2
 553              		.globl	_ZN9Scheduler6finishEv
 555              	_ZN9Scheduler6finishEv:
 556              	.LFB55:
  43:src/scheduler.cpp ****     sleepQueue.deleteList();
 557              		.loc 1 43 26 is_stmt 1
 558              		.cfi_startproc
 559 02e4 130101FF 		addi	sp,sp,-16
 560              		.cfi_def_cfa_offset 16
 561 02e8 23341100 		sd	ra,8(sp)
 562 02ec 23308100 		sd	s0,0(sp)
 563              		.cfi_offset 1, -8
 564              		.cfi_offset 8, -16
 565 02f0 13040101 		addi	s0,sp,16
 566              		.cfi_def_cfa 8, 0
 567              	.L37:
 568              	.LBB138:
 569              	.LBB139:
 108:src/../h/list.hpp ****     }
 109:src/../h/list.hpp ****     T* getLast() {
 110:src/../h/list.hpp ****         if (!tail) return 0;
 111:src/../h/list.hpp ****         return tail->data;
 112:src/../h/list.hpp ****     }
 113:src/../h/list.hpp **** 
 114:src/../h/list.hpp ****     /*~List() {
 115:src/../h/list.hpp ****         while (head) {
 116:src/../h/list.hpp ****             Node *old = head;
 117:src/../h/list.hpp ****             head = head->next;
 118:src/../h/list.hpp ****             delete old;
 119:src/../h/list.hpp ****         }
 120:src/../h/list.hpp **** 
 121:src/../h/list.hpp ****         tail = 0;
 122:src/../h/list.hpp ****     }*/
 123:src/../h/list.hpp **** 
 124:src/../h/list.hpp ****     void deleteList() {
 125:src/../h/list.hpp ****         while (head) {
 570              		.loc 2 125 9
 571              		.loc 2 125 16 is_stmt 0
 572 02f4 17050000 		ld	a0,.LANCHOR0+16
 572      03350500 
 573              		.loc 2 125 9
 574 02fc 63000502 		beqz	a0,.L36
 575              	.LVL55:
 576              	.LBB140:
 126:src/../h/list.hpp ****             Node *old = head;
GAS LISTING /tmp/ccY8L7Nz.s 			page 17


 127:src/../h/list.hpp ****             head = head->next;
 577              		.loc 2 127 26
 578 0300 83378500 		ld	a5,8(a0)
 579              		.loc 2 127 13
 580 0304 17070000 		sd	a5,.LANCHOR0+16,a4
 580      2330F700 
 128:src/../h/list.hpp ****             delete old;
 581              		.loc 2 128 13
 582 030c E30405FE 		beqz	a0,.L37
 583              	.LVL56:
 584              	.LBB141:
 585              	.LBB142:
  31:src/../h/list.hpp ****         }
 586              		.loc 2 31 34
 587 0310 97000000 		call	_ZN15MemoryAllocator4freeEPv@plt
 587      E7800000 
 588              	.LVL57:
  32:src/../h/list.hpp **** 
 589              		.loc 2 32 9
 590 0318 6FF0DFFD 		j	.L37
 591              	.L36:
 592              	.LBE142:
 593              	.LBE141:
 594              	.LBE140:
 129:src/../h/list.hpp ****         }
 130:src/../h/list.hpp **** 
 131:src/../h/list.hpp ****         tail = 0;
 595              		.loc 2 131 9
 596 031c 97070000 		sd	zero,.LANCHOR0+24,a5
 596      23B00700 
 597              	.L40:
 598              	.LBE139:
 599              	.LBE138:
 600              	.LBB143:
 601              	.LBB144:
 125:src/../h/list.hpp ****             Node *old = head;
 602              		.loc 2 125 9 is_stmt 1
 125:src/../h/list.hpp ****             Node *old = head;
 603              		.loc 2 125 16 is_stmt 0
 604 0324 17050000 		ld	a0,.LANCHOR0
 604      03350500 
 125:src/../h/list.hpp ****             Node *old = head;
 605              		.loc 2 125 9
 606 032c 63000502 		beqz	a0,.L39
 607              	.LVL58:
 608              	.LBB145:
 127:src/../h/list.hpp ****             delete old;
 609              		.loc 2 127 26
 610 0330 83378500 		ld	a5,8(a0)
 127:src/../h/list.hpp ****             delete old;
 611              		.loc 2 127 13
 612 0334 17070000 		sd	a5,.LANCHOR0,a4
 612      2330F700 
 128:src/../h/list.hpp ****         }
 613              		.loc 2 128 13
 614 033c E30405FE 		beqz	a0,.L40
 615              	.LVL59:
GAS LISTING /tmp/ccY8L7Nz.s 			page 18


 616              	.LBB146:
 617              	.LBB147:
  31:src/../h/list.hpp ****         }
 618              		.loc 2 31 34
 619 0340 97000000 		call	_ZN15MemoryAllocator4freeEPv@plt
 619      E7800000 
 620              	.LVL60:
  32:src/../h/list.hpp **** 
 621              		.loc 2 32 9
 622 0348 6FF0DFFD 		j	.L40
 623              	.L39:
 624              	.LBE147:
 625              	.LBE146:
 626              	.LBE145:
 627              		.loc 2 131 9
 628 034c 97070000 		sd	zero,.LANCHOR0+8,a5
 628      23B00700 
 629              	.LBE144:
 630              	.LBE143:
 631              		.loc 1 46 1
 632 0354 83308100 		ld	ra,8(sp)
 633              		.cfi_restore 1
 634 0358 03340100 		ld	s0,0(sp)
 635              		.cfi_restore 8
 636              		.cfi_def_cfa 2, 16
 637 035c 13010101 		addi	sp,sp,16
 638              		.cfi_def_cfa_offset 0
 639 0360 67800000 		jr	ra
 640              		.cfi_endproc
 641              	.LFE55:
 643              		.align	2
 645              	_GLOBAL__sub_I__ZN9Scheduler10readyQueueE:
 646              	.LFB80:
 647              		.loc 1 46 1 is_stmt 1
 648              		.cfi_startproc
 649 0364 130101FF 		addi	sp,sp,-16
 650              		.cfi_def_cfa_offset 16
 651 0368 23341100 		sd	ra,8(sp)
 652 036c 23308100 		sd	s0,0(sp)
 653              		.cfi_offset 1, -8
 654              		.cfi_offset 8, -16
 655 0370 13040101 		addi	s0,sp,16
 656              		.cfi_def_cfa 8, 0
 657              		.loc 1 46 1 is_stmt 0
 658 0374 B7050100 		li	a1,65536
 659 0378 9385F5FF 		addi	a1,a1,-1
 660 037c 13051000 		li	a0,1
 661 0380 97000000 		call	_Z41__static_initialization_and_destruction_0ii
 661      E7800000 
 662              	.LVL61:
 663 0388 83308100 		ld	ra,8(sp)
 664              		.cfi_restore 1
 665 038c 03340100 		ld	s0,0(sp)
 666              		.cfi_restore 8
 667              		.cfi_def_cfa 2, 16
 668 0390 13010101 		addi	sp,sp,16
 669              		.cfi_def_cfa_offset 0
GAS LISTING /tmp/ccY8L7Nz.s 			page 19


 670 0394 67800000 		jr	ra
 671              		.cfi_endproc
 672              	.LFE80:
 674              		.section	.init_array,"aw"
 675              		.align	3
 676 0000 00000000 		.dword	_GLOBAL__sub_I__ZN9Scheduler10readyQueueE
 676      00000000 
 677              		.globl	_ZN9Scheduler10sleepQueueE
 678              		.globl	_ZN9Scheduler10readyQueueE
 679              		.bss
 680              		.align	3
 681              		.set	.LANCHOR0,. + 0
 684              	_ZN9Scheduler10readyQueueE:
 685 0000 00000000 		.zero	16
 685      00000000 
 685      00000000 
 685      00000000 
 688              	_ZN9Scheduler10sleepQueueE:
 689 0010 00000000 		.zero	16
 689      00000000 
 689      00000000 
 689      00000000 
 690              		.text
 691              	.Letext0:
 692              		.file 5 "src/../h/../lib/hw.h"
 693              		.file 6 "src/../h/memory_allocator.hpp"
 694              		.file 7 "src/../h/syscall_c.h"
GAS LISTING /tmp/ccY8L7Nz.s 			page 20


DEFINED SYMBOLS
                            *ABS*:0000000000000000 scheduler.cpp
     /tmp/ccY8L7Nz.s:8      .text:0000000000000000 _Z41__static_initialization_and_destruction_0ii
     /tmp/ccY8L7Nz.s:12     .text:0000000000000000 .L0 
     /tmp/ccY8L7Nz.s:14     .text:0000000000000000 .L0 
     /tmp/ccY8L7Nz.s:15     .text:0000000000000004 .L0 
     /tmp/ccY8L7Nz.s:17     .text:0000000000000008 .L0 
     /tmp/ccY8L7Nz.s:19     .text:000000000000000c .L0 
     /tmp/ccY8L7Nz.s:21     .text:000000000000000c .L0 
     /tmp/ccY8L7Nz.s:25     .text:0000000000000018 .L0 
     /tmp/ccY8L7Nz.s:26     .text:0000000000000018 .L0 
     /tmp/ccY8L7Nz.s:27     .text:0000000000000018 .L0 
     /tmp/ccY8L7Nz.s:29     .text:000000000000001c .L0 
     /tmp/ccY8L7Nz.s:32     .text:0000000000000020 .L0 
     /tmp/ccY8L7Nz.s:34     .text:0000000000000020 .L0 
     /tmp/ccY8L7Nz.s:43     .text:000000000000002c .L0 
     /tmp/ccY8L7Nz.s:60     .text:0000000000000044 .L0 
     /tmp/ccY8L7Nz.s:61     .text:0000000000000048 .L0 
     /tmp/ccY8L7Nz.s:67     .text:0000000000000048 _ZN9Scheduler3getEv
     /tmp/ccY8L7Nz.s:70     .text:0000000000000048 .L0 
     /tmp/ccY8L7Nz.s:71     .text:0000000000000048 .L0 
     /tmp/ccY8L7Nz.s:72     .text:000000000000004c .L0 
     /tmp/ccY8L7Nz.s:76     .text:0000000000000058 .L0 
     /tmp/ccY8L7Nz.s:77     .text:0000000000000058 .L0 
     /tmp/ccY8L7Nz.s:78     .text:0000000000000058 .L0 
     /tmp/ccY8L7Nz.s:80     .text:000000000000005c .L0 
     /tmp/ccY8L7Nz.s:85     .text:000000000000005c .L0 
     /tmp/ccY8L7Nz.s:86     .text:000000000000005c .L0 
     /tmp/ccY8L7Nz.s:88     .text:0000000000000064 .L0 
     /tmp/ccY8L7Nz.s:90     .text:0000000000000068 .L0 
     /tmp/ccY8L7Nz.s:93     .text:000000000000006c .L0 
     /tmp/ccY8L7Nz.s:95     .text:0000000000000070 .L0 
     /tmp/ccY8L7Nz.s:97     .text:0000000000000078 .L0 
     /tmp/ccY8L7Nz.s:103    .text:000000000000007c .L0 
     /tmp/ccY8L7Nz.s:111    .text:0000000000000084 .L0 
     /tmp/ccY8L7Nz.s:113    .text:000000000000008c .L0 
     /tmp/ccY8L7Nz.s:114    .text:000000000000008c .L0 
     /tmp/ccY8L7Nz.s:116    .text:0000000000000090 .L0 
     /tmp/ccY8L7Nz.s:117    .text:0000000000000090 .L0 
     /tmp/ccY8L7Nz.s:119    .text:0000000000000094 .L0 
     /tmp/ccY8L7Nz.s:121    .text:0000000000000098 .L0 
     /tmp/ccY8L7Nz.s:125    .text:000000000000009c .L0 
     /tmp/ccY8L7Nz.s:129    .text:000000000000009c .L0 
     /tmp/ccY8L7Nz.s:134    .text:00000000000000a8 .L0 
     /tmp/ccY8L7Nz.s:139    .text:00000000000000ac .L0 
     /tmp/ccY8L7Nz.s:140    .text:00000000000000ac .L0 
     /tmp/ccY8L7Nz.s:141    .text:00000000000000b0 .L0 
     /tmp/ccY8L7Nz.s:147    .text:00000000000000b0 _ZN9Scheduler3putEP3TCB
     /tmp/ccY8L7Nz.s:150    .text:00000000000000b0 .L0 
     /tmp/ccY8L7Nz.s:152    .text:00000000000000b0 .L0 
     /tmp/ccY8L7Nz.s:153    .text:00000000000000b4 .L0 
     /tmp/ccY8L7Nz.s:157    .text:00000000000000c0 .L0 
     /tmp/ccY8L7Nz.s:158    .text:00000000000000c0 .L0 
     /tmp/ccY8L7Nz.s:159    .text:00000000000000c0 .L0 
     /tmp/ccY8L7Nz.s:161    .text:00000000000000c4 .L0 
     /tmp/ccY8L7Nz.s:169    .text:00000000000000c8 .L0 
     /tmp/ccY8L7Nz.s:170    .text:00000000000000c8 .L0 
GAS LISTING /tmp/ccY8L7Nz.s 			page 21


     /tmp/ccY8L7Nz.s:179    .text:00000000000000d4 .L0 
     /tmp/ccY8L7Nz.s:185    .text:00000000000000dc .L0 
     /tmp/ccY8L7Nz.s:187    .text:00000000000000e4 .L0 
     /tmp/ccY8L7Nz.s:189    .text:00000000000000e8 .L0 
     /tmp/ccY8L7Nz.s:191    .text:00000000000000ec .L0 
     /tmp/ccY8L7Nz.s:197    .text:00000000000000f4 .L0 
     /tmp/ccY8L7Nz.s:198    .text:00000000000000f8 .L0 
     /tmp/ccY8L7Nz.s:199    .text:00000000000000f8 .L0 
     /tmp/ccY8L7Nz.s:201    .text:00000000000000fc .L0 
     /tmp/ccY8L7Nz.s:202    .text:00000000000000fc .L0 
     /tmp/ccY8L7Nz.s:204    .text:0000000000000100 .L0 
     /tmp/ccY8L7Nz.s:207    .text:0000000000000104 .L0 
     /tmp/ccY8L7Nz.s:211    .text:0000000000000108 .L0 
     /tmp/ccY8L7Nz.s:215    .text:0000000000000108 .L0 
     /tmp/ccY8L7Nz.s:221    .text:000000000000011c .L0 
     /tmp/ccY8L7Nz.s:227    .text:000000000000011c _ZN9Scheduler14timerInterruptEv
     /tmp/ccY8L7Nz.s:230    .text:000000000000011c .L0 
     /tmp/ccY8L7Nz.s:231    .text:000000000000011c .L0 
     /tmp/ccY8L7Nz.s:232    .text:0000000000000120 .L0 
     /tmp/ccY8L7Nz.s:236    .text:000000000000012c .L0 
     /tmp/ccY8L7Nz.s:237    .text:000000000000012c .L0 
     /tmp/ccY8L7Nz.s:238    .text:000000000000012c .L0 
     /tmp/ccY8L7Nz.s:240    .text:0000000000000130 .L0 
     /tmp/ccY8L7Nz.s:245    .text:0000000000000130 .L0 
     /tmp/ccY8L7Nz.s:246    .text:0000000000000130 .L0 
     /tmp/ccY8L7Nz.s:248    .text:0000000000000138 .L0 
     /tmp/ccY8L7Nz.s:250    .text:000000000000013c .L0 
     /tmp/ccY8L7Nz.s:259    .text:0000000000000144 .L0 
     /tmp/ccY8L7Nz.s:265    .text:000000000000014c .L0 
     /tmp/ccY8L7Nz.s:273    .text:0000000000000154 .L0 
     /tmp/ccY8L7Nz.s:274    .text:0000000000000154 .L0 
     /tmp/ccY8L7Nz.s:280    .text:0000000000000158 .L0 
     /tmp/ccY8L7Nz.s:281    .text:0000000000000158 .L0 
     /tmp/ccY8L7Nz.s:286    .text:000000000000015c .L0 
     /tmp/ccY8L7Nz.s:287    .text:000000000000015c .L0 
     /tmp/ccY8L7Nz.s:294    .text:0000000000000168 .L0 
     /tmp/ccY8L7Nz.s:295    .text:0000000000000168 .L0 
     /tmp/ccY8L7Nz.s:296    .text:0000000000000168 .L0 
     /tmp/ccY8L7Nz.s:304    .text:0000000000000174 .L0 
     /tmp/ccY8L7Nz.s:305    .text:0000000000000174 .L0 
     /tmp/ccY8L7Nz.s:308    .text:000000000000017c .L0 
     /tmp/ccY8L7Nz.s:310    .text:0000000000000180 .L0 
     /tmp/ccY8L7Nz.s:316    .text:0000000000000184 .L0 
     /tmp/ccY8L7Nz.s:317    .text:0000000000000184 .L0 
     /tmp/ccY8L7Nz.s:319    .text:0000000000000188 .L0 
     /tmp/ccY8L7Nz.s:320    .text:0000000000000188 .L0 
     /tmp/ccY8L7Nz.s:322    .text:000000000000018c .L0 
     /tmp/ccY8L7Nz.s:327    .text:0000000000000190 .L0 
     /tmp/ccY8L7Nz.s:328    .text:0000000000000190 .L0 
     /tmp/ccY8L7Nz.s:330    .text:0000000000000198 .L0 
     /tmp/ccY8L7Nz.s:333    .text:000000000000019c .L0 
     /tmp/ccY8L7Nz.s:335    .text:00000000000001a0 .L0 
     /tmp/ccY8L7Nz.s:338    .text:00000000000001a8 .L0 
     /tmp/ccY8L7Nz.s:345    .text:00000000000001b0 .L0 
     /tmp/ccY8L7Nz.s:347    .text:00000000000001b4 .L0 
     /tmp/ccY8L7Nz.s:348    .text:00000000000001b4 .L0 
     /tmp/ccY8L7Nz.s:350    .text:00000000000001b8 .L0 
GAS LISTING /tmp/ccY8L7Nz.s 			page 22


     /tmp/ccY8L7Nz.s:354    .text:00000000000001c0 .L0 
     /tmp/ccY8L7Nz.s:355    .text:00000000000001c4 .L0 
     /tmp/ccY8L7Nz.s:357    .text:00000000000001c8 .L0 
     /tmp/ccY8L7Nz.s:358    .text:00000000000001c8 .L0 
     /tmp/ccY8L7Nz.s:360    .text:00000000000001cc .L0 
     /tmp/ccY8L7Nz.s:362    .text:00000000000001d0 .L0 
     /tmp/ccY8L7Nz.s:364    .text:00000000000001d4 .L0 
     /tmp/ccY8L7Nz.s:370    .text:00000000000001d4 _ZN9Scheduler9timeSleepEm
     /tmp/ccY8L7Nz.s:373    .text:00000000000001d4 .L0 
     /tmp/ccY8L7Nz.s:375    .text:00000000000001d4 .L0 
     /tmp/ccY8L7Nz.s:376    .text:00000000000001d8 .L0 
     /tmp/ccY8L7Nz.s:382    .text:00000000000001ec .L0 
     /tmp/ccY8L7Nz.s:383    .text:00000000000001ec .L0 
     /tmp/ccY8L7Nz.s:384    .text:00000000000001ec .L0 
     /tmp/ccY8L7Nz.s:385    .text:00000000000001ec .L0 
     /tmp/ccY8L7Nz.s:386    .text:00000000000001ec .L0 
     /tmp/ccY8L7Nz.s:388    .text:00000000000001f0 .L0 
     /tmp/ccY8L7Nz.s:391    .text:00000000000001f4 .L0 
     /tmp/ccY8L7Nz.s:392    .text:00000000000001f4 .L0 
     /tmp/ccY8L7Nz.s:398    .text:0000000000000200 .L0 
     /tmp/ccY8L7Nz.s:399    .text:0000000000000200 .L0 
     /tmp/ccY8L7Nz.s:400    .text:0000000000000200 .L0 
     /tmp/ccY8L7Nz.s:408    .text:0000000000000208 .L0 
     /tmp/ccY8L7Nz.s:409    .text:0000000000000208 .L0 
     /tmp/ccY8L7Nz.s:410    .text:0000000000000208 .L0 
     /tmp/ccY8L7Nz.s:421    .text:0000000000000218 .L0 
     /tmp/ccY8L7Nz.s:431    .text:0000000000000220 .L0 
     /tmp/ccY8L7Nz.s:432    .text:0000000000000220 .L0 
     /tmp/ccY8L7Nz.s:440    .text:000000000000022c .L0 
     /tmp/ccY8L7Nz.s:446    .text:0000000000000234 .L0 
     /tmp/ccY8L7Nz.s:448    .text:000000000000023c .L0 
     /tmp/ccY8L7Nz.s:450    .text:0000000000000240 .L0 
     /tmp/ccY8L7Nz.s:454    .text:0000000000000244 .L0 
     /tmp/ccY8L7Nz.s:456    .text:0000000000000248 .L0 
     /tmp/ccY8L7Nz.s:458    .text:000000000000024c .L0 
     /tmp/ccY8L7Nz.s:460    .text:0000000000000250 .L0 
     /tmp/ccY8L7Nz.s:462    .text:0000000000000254 .L0 
     /tmp/ccY8L7Nz.s:464    .text:0000000000000258 .L0 
     /tmp/ccY8L7Nz.s:466    .text:000000000000025c .L0 
     /tmp/ccY8L7Nz.s:468    .text:0000000000000260 .L0 
     /tmp/ccY8L7Nz.s:471    .text:0000000000000264 .L0 
     /tmp/ccY8L7Nz.s:473    .text:0000000000000268 .L0 
     /tmp/ccY8L7Nz.s:476    .text:000000000000026c .L0 
     /tmp/ccY8L7Nz.s:480    .text:0000000000000270 .L0 
     /tmp/ccY8L7Nz.s:484    .text:0000000000000280 .L0 
     /tmp/ccY8L7Nz.s:488    .text:0000000000000284 .L0 
     /tmp/ccY8L7Nz.s:490    .text:0000000000000288 .L0 
     /tmp/ccY8L7Nz.s:493    .text:000000000000028c .L0 
     /tmp/ccY8L7Nz.s:495    .text:0000000000000290 .L0 
     /tmp/ccY8L7Nz.s:497    .text:0000000000000294 .L0 
     /tmp/ccY8L7Nz.s:499    .text:0000000000000298 .L0 
     /tmp/ccY8L7Nz.s:502    .text:000000000000029c .L0 
     /tmp/ccY8L7Nz.s:507    .text:00000000000002a8 .L0 
     /tmp/ccY8L7Nz.s:513    .text:00000000000002ac .L0 
     /tmp/ccY8L7Nz.s:514    .text:00000000000002ac .L0 
     /tmp/ccY8L7Nz.s:517    .text:00000000000002b4 .L0 
     /tmp/ccY8L7Nz.s:518    .text:00000000000002b8 .L0 
GAS LISTING /tmp/ccY8L7Nz.s 			page 23


     /tmp/ccY8L7Nz.s:519    .text:00000000000002b8 .L0 
     /tmp/ccY8L7Nz.s:521    .text:00000000000002bc .L0 
     /tmp/ccY8L7Nz.s:522    .text:00000000000002bc .L0 
     /tmp/ccY8L7Nz.s:524    .text:00000000000002c0 .L0 
     /tmp/ccY8L7Nz.s:527    .text:00000000000002c4 .L0 
     /tmp/ccY8L7Nz.s:530    .text:00000000000002c8 .L0 
     /tmp/ccY8L7Nz.s:533    .text:00000000000002cc .L0 
     /tmp/ccY8L7Nz.s:537    .text:00000000000002d0 .L0 
     /tmp/ccY8L7Nz.s:541    .text:00000000000002d0 .L0 
     /tmp/ccY8L7Nz.s:545    .text:00000000000002dc .L0 
     /tmp/ccY8L7Nz.s:549    .text:00000000000002e4 .L0 
     /tmp/ccY8L7Nz.s:555    .text:00000000000002e4 _ZN9Scheduler6finishEv
     /tmp/ccY8L7Nz.s:558    .text:00000000000002e4 .L0 
     /tmp/ccY8L7Nz.s:559    .text:00000000000002e4 .L0 
     /tmp/ccY8L7Nz.s:560    .text:00000000000002e8 .L0 
     /tmp/ccY8L7Nz.s:563    .text:00000000000002f0 .L0 
     /tmp/ccY8L7Nz.s:564    .text:00000000000002f0 .L0 
     /tmp/ccY8L7Nz.s:566    .text:00000000000002f4 .L0 
     /tmp/ccY8L7Nz.s:571    .text:00000000000002f4 .L0 
     /tmp/ccY8L7Nz.s:572    .text:00000000000002f4 .L0 
     /tmp/ccY8L7Nz.s:574    .text:00000000000002fc .L0 
     /tmp/ccY8L7Nz.s:578    .text:0000000000000300 .L0 
     /tmp/ccY8L7Nz.s:580    .text:0000000000000304 .L0 
     /tmp/ccY8L7Nz.s:582    .text:000000000000030c .L0 
     /tmp/ccY8L7Nz.s:587    .text:0000000000000310 .L0 
     /tmp/ccY8L7Nz.s:590    .text:0000000000000318 .L0 
     /tmp/ccY8L7Nz.s:596    .text:000000000000031c .L0 
     /tmp/ccY8L7Nz.s:603    .text:0000000000000324 .L0 
     /tmp/ccY8L7Nz.s:604    .text:0000000000000324 .L0 
     /tmp/ccY8L7Nz.s:606    .text:000000000000032c .L0 
     /tmp/ccY8L7Nz.s:610    .text:0000000000000330 .L0 
     /tmp/ccY8L7Nz.s:612    .text:0000000000000334 .L0 
     /tmp/ccY8L7Nz.s:614    .text:000000000000033c .L0 
     /tmp/ccY8L7Nz.s:619    .text:0000000000000340 .L0 
     /tmp/ccY8L7Nz.s:622    .text:0000000000000348 .L0 
     /tmp/ccY8L7Nz.s:628    .text:000000000000034c .L0 
     /tmp/ccY8L7Nz.s:632    .text:0000000000000354 .L0 
     /tmp/ccY8L7Nz.s:633    .text:0000000000000358 .L0 
     /tmp/ccY8L7Nz.s:635    .text:000000000000035c .L0 
     /tmp/ccY8L7Nz.s:636    .text:000000000000035c .L0 
     /tmp/ccY8L7Nz.s:638    .text:0000000000000360 .L0 
     /tmp/ccY8L7Nz.s:640    .text:0000000000000364 .L0 
     /tmp/ccY8L7Nz.s:645    .text:0000000000000364 _GLOBAL__sub_I__ZN9Scheduler10readyQueueE
     /tmp/ccY8L7Nz.s:648    .text:0000000000000364 .L0 
     /tmp/ccY8L7Nz.s:649    .text:0000000000000364 .L0 
     /tmp/ccY8L7Nz.s:650    .text:0000000000000368 .L0 
     /tmp/ccY8L7Nz.s:653    .text:0000000000000370 .L0 
     /tmp/ccY8L7Nz.s:654    .text:0000000000000370 .L0 
     /tmp/ccY8L7Nz.s:656    .text:0000000000000374 .L0 
     /tmp/ccY8L7Nz.s:658    .text:0000000000000374 .L0 
     /tmp/ccY8L7Nz.s:664    .text:000000000000038c .L0 
     /tmp/ccY8L7Nz.s:666    .text:0000000000000390 .L0 
     /tmp/ccY8L7Nz.s:667    .text:0000000000000390 .L0 
     /tmp/ccY8L7Nz.s:669    .text:0000000000000394 .L0 
     /tmp/ccY8L7Nz.s:671    .text:0000000000000398 .L0 
     /tmp/ccY8L7Nz.s:688    .bss:0000000000000010 _ZN9Scheduler10sleepQueueE
     /tmp/ccY8L7Nz.s:684    .bss:0000000000000000 _ZN9Scheduler10readyQueueE
GAS LISTING /tmp/ccY8L7Nz.s 			page 24


     /tmp/ccY8L7Nz.s:681    .bss:0000000000000000 .LANCHOR0
     /tmp/ccY8L7Nz.s:695    .text:0000000000000398 .L0 
     /tmp/ccY8L7Nz.s:43     .text:000000000000002c .L0 
     /tmp/ccY8L7Nz.s:86     .text:000000000000005c .L0 
     /tmp/ccY8L7Nz.s:95     .text:0000000000000070 .L0 
     /tmp/ccY8L7Nz.s:129    .text:000000000000009c .L0 
     /tmp/ccY8L7Nz.s:185    .text:00000000000000dc .L0 
     /tmp/ccY8L7Nz.s:191    .text:00000000000000ec .L0 
     /tmp/ccY8L7Nz.s:215    .text:0000000000000108 .L0 
     /tmp/ccY8L7Nz.s:246    .text:0000000000000130 .L0 
     /tmp/ccY8L7Nz.s:259    .text:0000000000000144 .L0 
     /tmp/ccY8L7Nz.s:305    .text:0000000000000174 .L0 
     /tmp/ccY8L7Nz.s:328    .text:0000000000000190 .L0 
     /tmp/ccY8L7Nz.s:335    .text:00000000000001a0 .L0 
     /tmp/ccY8L7Nz.s:392    .text:00000000000001f4 .L0 
     /tmp/ccY8L7Nz.s:446    .text:0000000000000234 .L0 
     /tmp/ccY8L7Nz.s:480    .text:0000000000000270 .L0 
     /tmp/ccY8L7Nz.s:541    .text:00000000000002d0 .L0 
     /tmp/ccY8L7Nz.s:572    .text:00000000000002f4 .L0 
     /tmp/ccY8L7Nz.s:580    .text:0000000000000304 .L0 
     /tmp/ccY8L7Nz.s:596    .text:000000000000031c .L0 
     /tmp/ccY8L7Nz.s:604    .text:0000000000000324 .L0 
     /tmp/ccY8L7Nz.s:612    .text:0000000000000334 .L0 
     /tmp/ccY8L7Nz.s:628    .text:000000000000034c .L0 
     /tmp/ccY8L7Nz.s:31     .text:0000000000000020 .L4
     /tmp/ccY8L7Nz.s:23     .text:0000000000000014 .L1
     /tmp/ccY8L7Nz.s:132    .text:00000000000000a8 .L8
     /tmp/ccY8L7Nz.s:124    .text:000000000000009c .L10
     /tmp/ccY8L7Nz.s:98     .text:000000000000007c .L7
     /tmp/ccY8L7Nz.s:105    .text:0000000000000084 .L5
     /tmp/ccY8L7Nz.s:210    .text:0000000000000108 .L15
     /tmp/ccY8L7Nz.s:193    .text:00000000000000f4 .L11
     /tmp/ccY8L7Nz.s:312    .text:0000000000000184 .L21
     /tmp/ccY8L7Nz.s:341    .text:00000000000001b0 .L18
     /tmp/ccY8L7Nz.s:267    .text:0000000000000154 .L19
     /tmp/ccY8L7Nz.s:260    .text:000000000000014c .L20
     /tmp/ccY8L7Nz.s:253    .text:0000000000000144 .L24
     /tmp/ccY8L7Nz.s:352    .text:00000000000001c0 .L16
     /tmp/ccY8L7Nz.s:478    .text:0000000000000270 .L34
     /tmp/ccY8L7Nz.s:486    .text:0000000000000284 .L28
     /tmp/ccY8L7Nz.s:451    .text:0000000000000244 .L26
     /tmp/ccY8L7Nz.s:509    .text:00000000000002ac .L27
     /tmp/ccY8L7Nz.s:536    .text:00000000000002d0 .L29
     /tmp/ccY8L7Nz.s:543    .text:00000000000002dc .L31
     /tmp/ccY8L7Nz.s:491    .text:000000000000028c .L30
     /tmp/ccY8L7Nz.s:591    .text:000000000000031c .L36
     /tmp/ccY8L7Nz.s:567    .text:00000000000002f4 .L37
     /tmp/ccY8L7Nz.s:623    .text:000000000000034c .L39
     /tmp/ccY8L7Nz.s:597    .text:0000000000000324 .L40
     /tmp/ccY8L7Nz.s:2957   .debug_abbrev:0000000000000000 .Ldebug_abbrev0
     /tmp/ccY8L7Nz.s:4955   .debug_str:0000000000000b21 .LASF169
     /tmp/ccY8L7Nz.s:4883   .debug_str:0000000000000849 .LASF170
     /tmp/ccY8L7Nz.s:4921   .debug_str:00000000000009ca .LASF171
     /tmp/ccY8L7Nz.s:5      .text:0000000000000000 .Ltext0
     /tmp/ccY8L7Nz.s:691    .text:0000000000000398 .Letext0
     /tmp/ccY8L7Nz.s:4665   .debug_line:0000000000000000 .Ldebug_line0
     /tmp/ccY8L7Nz.s:4803   .debug_str:000000000000057a .LASF0
GAS LISTING /tmp/ccY8L7Nz.s 			page 25


     /tmp/ccY8L7Nz.s:4821   .debug_str:000000000000061a .LASF1
     /tmp/ccY8L7Nz.s:4895   .debug_str:00000000000008c7 .LASF2
     /tmp/ccY8L7Nz.s:4907   .debug_str:0000000000000943 .LASF4
     /tmp/ccY8L7Nz.s:4807   .debug_str:000000000000058c .LASF3
     /tmp/ccY8L7Nz.s:4685   .debug_str:00000000000000f5 .LASF5
     /tmp/ccY8L7Nz.s:4879   .debug_str:0000000000000813 .LASF6
     /tmp/ccY8L7Nz.s:4871   .debug_str:00000000000007d8 .LASF7
     /tmp/ccY8L7Nz.s:4813   .debug_str:00000000000005e5 .LASF8
     /tmp/ccY8L7Nz.s:4779   .debug_str:0000000000000446 .LASF9
     /tmp/ccY8L7Nz.s:4787   .debug_str:00000000000004a0 .LASF10
     /tmp/ccY8L7Nz.s:4717   .debug_str:0000000000000243 .LASF11
     /tmp/ccY8L7Nz.s:4769   .debug_str:0000000000000413 .LASF12
     /tmp/ccY8L7Nz.s:4731   .debug_str:00000000000002a4 .LASF13
     /tmp/ccY8L7Nz.s:4715   .debug_str:0000000000000233 .LASF14
     /tmp/ccY8L7Nz.s:4933   .debug_str:0000000000000a58 .LASF15
     /tmp/ccY8L7Nz.s:4759   .debug_str:00000000000003c2 .LASF16
     /tmp/ccY8L7Nz.s:4925   .debug_str:0000000000000a00 .LASF17
     /tmp/ccY8L7Nz.s:4939   .debug_str:0000000000000a9d .LASF81
     /tmp/ccY8L7Nz.s:5009   .debug_str:0000000000000e75 .LASF18
     /tmp/ccY8L7Nz.s:4957   .debug_str:0000000000000be5 .LASF20
     /tmp/ccY8L7Nz.s:4863   .debug_str:00000000000007b0 .LASF172
     /tmp/ccY8L7Nz.s:4847   .debug_str:0000000000000731 .LASF19
     /tmp/ccY8L7Nz.s:4915   .debug_str:000000000000097f .LASF21
     /tmp/ccY8L7Nz.s:4819   .debug_str:0000000000000606 .LASF22
     /tmp/ccY8L7Nz.s:5017   .debug_str:0000000000000eaf .LASF23
     /tmp/ccY8L7Nz.s:4941   .debug_str:0000000000000aa5 .LASF26
     /tmp/ccY8L7Nz.s:4851   .debug_str:000000000000074b .LASF28
     /tmp/ccY8L7Nz.s:4703   .debug_str:00000000000001c4 .LASF24
     /tmp/ccY8L7Nz.s:4973   .debug_str:0000000000000c7b .LASF25
     /tmp/ccY8L7Nz.s:4899   .debug_str:00000000000008e2 .LASF27
     /tmp/ccY8L7Nz.s:4713   .debug_str:000000000000021e .LASF29
     /tmp/ccY8L7Nz.s:4943   .debug_str:0000000000000ab0 .LASF30
     /tmp/ccY8L7Nz.s:4765   .debug_str:00000000000003ee .LASF31
     /tmp/ccY8L7Nz.s:4825   .debug_str:0000000000000635 .LASF32
     /tmp/ccY8L7Nz.s:4983   .debug_str:0000000000000d1d .LASF33
     /tmp/ccY8L7Nz.s:4953   .debug_str:0000000000000b19 .LASF173
     /tmp/ccY8L7Nz.s:4747   .debug_str:0000000000000348 .LASF34
     /tmp/ccY8L7Nz.s:4725   .debug_str:000000000000027b .LASF36
     /tmp/ccY8L7Nz.s:4749   .debug_str:0000000000000351 .LASF35
     /tmp/ccY8L7Nz.s:4903   .debug_str:000000000000091a .LASF37
     /tmp/ccY8L7Nz.s:4833   .debug_str:00000000000006b2 .LASF96
     /tmp/ccY8L7Nz.s:4791   .debug_str:00000000000004c9 .LASF174
     /tmp/ccY8L7Nz.s:4857   .debug_str:0000000000000787 .LASF38
     /tmp/ccY8L7Nz.s:4977   .debug_str:0000000000000cac .LASF39
     /tmp/ccY8L7Nz.s:4909   .debug_str:000000000000094a .LASF40
     /tmp/ccY8L7Nz.s:4683   .debug_str:00000000000000e9 .LASF41
     /tmp/ccY8L7Nz.s:5013   .debug_str:0000000000000e99 .LASF42
     /tmp/ccY8L7Nz.s:4783   .debug_str:0000000000000474 .LASF43
     /tmp/ccY8L7Nz.s:4711   .debug_str:000000000000020e .LASF44
     /tmp/ccY8L7Nz.s:4775   .debug_str:0000000000000430 .LASF45
     /tmp/ccY8L7Nz.s:4675   .debug_str:000000000000007a .LASF46
     /tmp/ccY8L7Nz.s:4835   .debug_str:00000000000006c6 .LASF48
     /tmp/ccY8L7Nz.s:4923   .debug_str:00000000000009ed .LASF47
     /tmp/ccY8L7Nz.s:4897   .debug_str:00000000000008d5 .LASF49
     /tmp/ccY8L7Nz.s:4671   .debug_str:000000000000005e .LASF97
     /tmp/ccY8L7Nz.s:4913   .debug_str:000000000000096e .LASF71
     /tmp/ccY8L7Nz.s:4673   .debug_str:0000000000000075 .LASF50
GAS LISTING /tmp/ccY8L7Nz.s 			page 26


     /tmp/ccY8L7Nz.s:5007   .debug_str:0000000000000e70 .LASF51
     /tmp/ccY8L7Nz.s:4917   .debug_str:00000000000009a7 .LASF52
     /tmp/ccY8L7Nz.s:4937   .debug_str:0000000000000a94 .LASF53
     /tmp/ccY8L7Nz.s:4859   .debug_str:000000000000079d .LASF54
     /tmp/ccY8L7Nz.s:4961   .debug_str:0000000000000c0c .LASF55
     /tmp/ccY8L7Nz.s:4969   .debug_str:0000000000000c6e .LASF56
     /tmp/ccY8L7Nz.s:4735   .debug_str:00000000000002b9 .LASF88
     /tmp/ccY8L7Nz.s:4681   .debug_str:00000000000000c1 .LASF89
     /tmp/ccY8L7Nz.s:4709   .debug_str:0000000000000200 .LASF57
     /tmp/ccY8L7Nz.s:4827   .debug_str:0000000000000642 .LASF59
     /tmp/ccY8L7Nz.s:4767   .debug_str:0000000000000404 .LASF58
     /tmp/ccY8L7Nz.s:5011   .debug_str:0000000000000e7f .LASF60
     /tmp/ccY8L7Nz.s:4867   .debug_str:00000000000007be .LASF61
     /tmp/ccY8L7Nz.s:4951   .debug_str:0000000000000b11 .LASF175
     /tmp/ccY8L7Nz.s:4733   .debug_str:00000000000002b4 .LASF62
     /tmp/ccY8L7Nz.s:4693   .debug_str:0000000000000147 .LASF63
     /tmp/ccY8L7Nz.s:4719   .debug_str:0000000000000252 .LASF64
     /tmp/ccY8L7Nz.s:5021   .debug_str:0000000000000ef5 .LASF65
     /tmp/ccY8L7Nz.s:4785   .debug_str:0000000000000480 .LASF66
     /tmp/ccY8L7Nz.s:4971   .debug_str:0000000000000c76 .LASF67
     /tmp/ccY8L7Nz.s:4809   .debug_str:000000000000059e .LASF68
     /tmp/ccY8L7Nz.s:4843   .debug_str:000000000000070d .LASF69
     /tmp/ccY8L7Nz.s:4911   .debug_str:000000000000094f .LASF70
     /tmp/ccY8L7Nz.s:5003   .debug_str:0000000000000e53 .LASF72
     /tmp/ccY8L7Nz.s:4815   .debug_str:00000000000005f8 .LASF73
     /tmp/ccY8L7Nz.s:4855   .debug_str:0000000000000767 .LASF74
     /tmp/ccY8L7Nz.s:4761   .debug_str:00000000000003d8 .LASF75
     /tmp/ccY8L7Nz.s:4987   .debug_str:0000000000000d60 .LASF76
     /tmp/ccY8L7Nz.s:5015   .debug_str:0000000000000ea6 .LASF77
     /tmp/ccY8L7Nz.s:4699   .debug_str:0000000000000191 .LASF78
     /tmp/ccY8L7Nz.s:4723   .debug_str:0000000000000270 .LASF91
     /tmp/ccY8L7Nz.s:4949   .debug_str:0000000000000ae2 .LASF92
     /tmp/ccY8L7Nz.s:4887   .debug_str:0000000000000879 .LASF79
     /tmp/ccY8L7Nz.s:4777   .debug_str:000000000000043c .LASF80
     /tmp/ccY8L7Nz.s:4763   .debug_str:00000000000003e4 .LASF82
     /tmp/ccY8L7Nz.s:4875   .debug_str:00000000000007f5 .LASF83
     /tmp/ccY8L7Nz.s:4893   .debug_str:00000000000008c0 .LASF84
     /tmp/ccY8L7Nz.s:4745   .debug_str:0000000000000327 .LASF85
     /tmp/ccY8L7Nz.s:5001   .debug_str:0000000000000e37 .LASF86
     /tmp/ccY8L7Nz.s:4991   .debug_str:0000000000000dc0 .LASF87
     /tmp/ccY8L7Nz.s:4919   .debug_str:00000000000009ad .LASF90
     /tmp/ccY8L7Nz.s:4995   .debug_str:0000000000000de5 .LASF93
     /tmp/ccY8L7Nz.s:4729   .debug_str:0000000000000299 .LASF94
     /tmp/ccY8L7Nz.s:4959   .debug_str:0000000000000c01 .LASF95
     /tmp/ccY8L7Nz.s:5005   .debug_str:0000000000000e5c .LASF176
     /tmp/ccY8L7Nz.s:4801   .debug_str:0000000000000562 .LASF98
     /tmp/ccY8L7Nz.s:4705   .debug_str:00000000000001d0 .LASF99
     /tmp/ccY8L7Nz.s:4981   .debug_str:0000000000000cfd .LASF100
     /tmp/ccY8L7Nz.s:4967   .debug_str:0000000000000c64 .LASF101
     /tmp/ccY8L7Nz.s:4841   .debug_str:00000000000006f3 .LASF102
     /tmp/ccY8L7Nz.s:4837   .debug_str:00000000000006d3 .LASF103
     /tmp/ccY8L7Nz.s:4755   .debug_str:0000000000000394 .LASF104
     /tmp/ccY8L7Nz.s:4873   .debug_str:00000000000007eb .LASF105
     /tmp/ccY8L7Nz.s:4743   .debug_str:0000000000000322 .LASF106
     /tmp/ccY8L7Nz.s:4817   .debug_str:0000000000000601 .LASF107
     /tmp/ccY8L7Nz.s:4679   .debug_str:00000000000000a2 .LASF108
     /tmp/ccY8L7Nz.s:4689   .debug_str:0000000000000104 .LASF109
GAS LISTING /tmp/ccY8L7Nz.s 			page 27


     /tmp/ccY8L7Nz.s:4677   .debug_str:000000000000008a .LASF110
     /tmp/ccY8L7Nz.s:4721   .debug_str:0000000000000257 .LASF111
     /tmp/ccY8L7Nz.s:4839   .debug_str:00000000000006da .LASF112
     /tmp/ccY8L7Nz.s:4931   .debug_str:0000000000000a53 .LASF113
     /tmp/ccY8L7Nz.s:4853   .debug_str:0000000000000762 .LASF114
     /tmp/ccY8L7Nz.s:4849   .debug_str:0000000000000746 .LASF115
     /tmp/ccY8L7Nz.s:4927   .debug_str:0000000000000a16 .LASF116
     /tmp/ccY8L7Nz.s:4757   .debug_str:00000000000003ab .LASF117
     /tmp/ccY8L7Nz.s:4741   .debug_str:0000000000000318 .LASF144
     /tmp/ccY8L7Nz.s:4891   .debug_str:00000000000008a9 .LASF145
     /tmp/ccY8L7Nz.s:4773   .debug_str:0000000000000427 .LASF118
     /tmp/ccY8L7Nz.s:4799   .debug_str:0000000000000545 .LASF119
     /tmp/ccY8L7Nz.s:4823   .debug_str:000000000000062d .LASF120
     /tmp/ccY8L7Nz.s:4845   .debug_str:0000000000000715 .LASF121
     /tmp/ccY8L7Nz.s:4905   .debug_str:0000000000000939 .LASF122
     /tmp/ccY8L7Nz.s:4781   .debug_str:0000000000000456 .LASF123
     /tmp/ccY8L7Nz.s:4869   .debug_str:00000000000007ce .LASF124
     /tmp/ccY8L7Nz.s:4789   .debug_str:00000000000004ae .LASF125
     /tmp/ccY8L7Nz.s:4993   .debug_str:0000000000000ddc .LASF126
     /tmp/ccY8L7Nz.s:4997   .debug_str:0000000000000e02 .LASF127
     /tmp/ccY8L7Nz.s:4865   .debug_str:00000000000007b5 .LASF128
     /tmp/ccY8L7Nz.s:4975   .debug_str:0000000000000c92 .LASF129
     /tmp/ccY8L7Nz.s:5023   .debug_str:0000000000000efe .LASF130
     /tmp/ccY8L7Nz.s:4877   .debug_str:00000000000007fa .LASF131
     /tmp/ccY8L7Nz.s:4727   .debug_str:000000000000028e .LASF132
     /tmp/ccY8L7Nz.s:4795   .debug_str:0000000000000519 .LASF133
     /tmp/ccY8L7Nz.s:4947   .debug_str:0000000000000ad6 .LASF134
     /tmp/ccY8L7Nz.s:4885   .debug_str:000000000000085b .LASF135
     /tmp/ccY8L7Nz.s:4697   .debug_str:0000000000000176 .LASF136
     /tmp/ccY8L7Nz.s:4669   .debug_str:000000000000002d .LASF137
     /tmp/ccY8L7Nz.s:4929   .debug_str:0000000000000a29 .LASF138
     /tmp/ccY8L7Nz.s:4811   .debug_str:00000000000005bb .LASF139
     /tmp/ccY8L7Nz.s:4831   .debug_str:0000000000000687 .LASF140
     /tmp/ccY8L7Nz.s:4889   .debug_str:000000000000087e .LASF141
     /tmp/ccY8L7Nz.s:4963   .debug_str:0000000000000c16 .LASF142
     /tmp/ccY8L7Nz.s:4965   .debug_str:0000000000000c3b .LASF143
     /tmp/ccY8L7Nz.s:4753   .debug_str:000000000000036b .LASF146
     /tmp/ccY8L7Nz.s:4989   .debug_str:0000000000000d91 .LASF147
     /tmp/ccY8L7Nz.s:4901   .debug_str:00000000000008ec .LASF148
     /tmp/ccY8L7Nz.s:4979   .debug_str:0000000000000ccd .LASF149
     /tmp/ccY8L7Nz.s:4667   .debug_str:0000000000000000 .LASF150
     /tmp/ccY8L7Nz.s:4829   .debug_str:000000000000065b .LASF151
     /tmp/ccY8L7Nz.s:4739   .debug_str:00000000000002ec .LASF152
     /tmp/ccY8L7Nz.s:4691   .debug_str:000000000000011c .LASF153
     /tmp/ccY8L7Nz.s:4881   .debug_str:000000000000081a .LASF154
     /tmp/ccY8L7Nz.s:4935   .debug_str:0000000000000a64 .LASF155
     /tmp/ccY8L7Nz.s:4999   .debug_str:0000000000000e1c .LASF177
     /tmp/ccY8L7Nz.s:4945   .debug_str:0000000000000abb .LASF178
     /tmp/ccY8L7Nz.s:4985   .debug_str:0000000000000d36 .LASF156
     /tmp/ccY8L7Nz.s:646    .text:0000000000000364 .LFB80
     /tmp/ccY8L7Nz.s:672    .text:0000000000000398 .LFE80
     /tmp/ccY8L7Nz.s:662    .text:0000000000000388 .LVL61
     /tmp/ccY8L7Nz.s:4695   .debug_str:000000000000014c .LASF157
     /tmp/ccY8L7Nz.s:9      .text:0000000000000000 .LFB79
     /tmp/ccY8L7Nz.s:62     .text:0000000000000048 .LFE79
     /tmp/ccY8L7Nz.s:4797   .debug_str:0000000000000536 .LASF158
     /tmp/ccY8L7Nz.s:4861   .debug_str:00000000000007a5 .LASF159
GAS LISTING /tmp/ccY8L7Nz.s 			page 28


     /tmp/ccY8L7Nz.s:38     .text:000000000000002c .LBB64
     /tmp/ccY8L7Nz.s:49     .text:000000000000003c .LBE64
     /tmp/ccY8L7Nz.s:4155   .debug_loc:0000000000000000 .LLST0
     /tmp/ccY8L7Nz.s:50     .text:000000000000003c .LBB67
     /tmp/ccY8L7Nz.s:58     .text:0000000000000044 .LBE67
     /tmp/ccY8L7Nz.s:4164   .debug_loc:000000000000002c .LLST1
     /tmp/ccY8L7Nz.s:4771   .debug_str:0000000000000422 .LASF160
     /tmp/ccY8L7Nz.s:4793   .debug_str:00000000000004e8 .LASF161
     /tmp/ccY8L7Nz.s:5019   .debug_str:0000000000000ed6 .LASF162
     /tmp/ccY8L7Nz.s:4687   .debug_str:00000000000000fc .LASF163
     /tmp/ccY8L7Nz.s:4805   .debug_str:0000000000000587 .LASF164
     /tmp/ccY8L7Nz.s:4737   .debug_str:00000000000002c7 .LASF165
     /tmp/ccY8L7Nz.s:4701   .debug_str:00000000000001b1 .LASF166
     /tmp/ccY8L7Nz.s:556    .text:00000000000002e4 .LFB55
     /tmp/ccY8L7Nz.s:641    .text:0000000000000364 .LFE55
     /tmp/ccY8L7Nz.s:568    .text:00000000000002f4 .LBB138
     /tmp/ccY8L7Nz.s:599    .text:0000000000000324 .LBE138
     /tmp/ccY8L7Nz.s:576    .text:0000000000000300 .LBB140
     /tmp/ccY8L7Nz.s:594    .text:000000000000031c .LBE140
     /tmp/ccY8L7Nz.s:4173   .debug_loc:0000000000000058 .LLST41
     /tmp/ccY8L7Nz.s:584    .text:0000000000000310 .LBB141
     /tmp/ccY8L7Nz.s:593    .text:000000000000031c .LBE141
     /tmp/ccY8L7Nz.s:4180   .debug_loc:000000000000007b .LLST42
     /tmp/ccY8L7Nz.s:588    .text:0000000000000318 .LVL57
     /tmp/ccY8L7Nz.s:600    .text:0000000000000324 .LBB143
     /tmp/ccY8L7Nz.s:630    .text:0000000000000354 .LBE143
     /tmp/ccY8L7Nz.s:608    .text:0000000000000330 .LBB145
     /tmp/ccY8L7Nz.s:626    .text:000000000000034c .LBE145
     /tmp/ccY8L7Nz.s:4187   .debug_loc:000000000000009e .LLST43
     /tmp/ccY8L7Nz.s:616    .text:0000000000000340 .LBB146
     /tmp/ccY8L7Nz.s:625    .text:000000000000034c .LBE146
     /tmp/ccY8L7Nz.s:4194   .debug_loc:00000000000000c1 .LLST44
     /tmp/ccY8L7Nz.s:620    .text:0000000000000348 .LVL60
     /tmp/ccY8L7Nz.s:371    .text:00000000000001d4 .LFB54
     /tmp/ccY8L7Nz.s:550    .text:00000000000002e4 .LFE54
     /tmp/ccY8L7Nz.s:4201   .debug_loc:00000000000000e4 .LLST23
     /tmp/ccY8L7Nz.s:4223   .debug_loc:0000000000000143 .LLST24
     /tmp/ccY8L7Nz.s:4234   .debug_loc:0000000000000179 .LLST25
     /tmp/ccY8L7Nz.s:396    .text:0000000000000200 .LBB124
     /tmp/ccY8L7Nz.s:404    .text:0000000000000208 .LBE124
     /tmp/ccY8L7Nz.s:4245   .debug_loc:00000000000001af .LLST26
     /tmp/ccY8L7Nz.s:4253   .debug_loc:00000000000001d3 .LLST27
     /tmp/ccY8L7Nz.s:406    .text:0000000000000208 .LBB126
     /tmp/ccY8L7Nz.s:417    .text:0000000000000218 .LBE126
     /tmp/ccY8L7Nz.s:4260   .debug_loc:00000000000001f6 .LLST28
     /tmp/ccY8L7Nz.s:413    .text:0000000000000214 .LVL37
     /tmp/ccY8L7Nz.s:418    .text:0000000000000218 .LBB128
     /tmp/ccY8L7Nz.s:425    .text:0000000000000220 .LBE128
     /tmp/ccY8L7Nz.s:4268   .debug_loc:000000000000021a .LLST29
     /tmp/ccY8L7Nz.s:4275   .debug_loc:000000000000023d .LLST30
     /tmp/ccY8L7Nz.s:4282   .debug_loc:0000000000000260 .LLST31
     /tmp/ccY8L7Nz.s:427    .text:0000000000000220 .LBB130
     /tmp/ccY8L7Nz.s:4639   .debug_ranges:0000000000000000 .Ldebug_ranges0
     /tmp/ccY8L7Nz.s:4289   .debug_loc:0000000000000283 .LLST32
     /tmp/ccY8L7Nz.s:4300   .debug_loc:00000000000002b9 .LLST33
     /tmp/ccY8L7Nz.s:4315   .debug_loc:0000000000000301 .LLST34
     /tmp/ccY8L7Nz.s:4326   .debug_loc:0000000000000337 .LLST35
GAS LISTING /tmp/ccY8L7Nz.s 			page 29


     /tmp/ccY8L7Nz.s:4355   .debug_loc:00000000000003bb .LLST36
     /tmp/ccY8L7Nz.s:429    .text:0000000000000220 .LBB132
     /tmp/ccY8L7Nz.s:436    .text:000000000000022c .LBE132
     /tmp/ccY8L7Nz.s:4378   .debug_loc:000000000000042a .LLST37
     /tmp/ccY8L7Nz.s:434    .text:000000000000022c .LVL40
     /tmp/ccY8L7Nz.s:437    .text:000000000000022c .LBB134
     /tmp/ccY8L7Nz.s:444    .text:0000000000000234 .LBE134
     /tmp/ccY8L7Nz.s:4386   .debug_loc:000000000000044e .LLST38
     /tmp/ccY8L7Nz.s:4394   .debug_loc:0000000000000472 .LLST39
     /tmp/ccY8L7Nz.s:4401   .debug_loc:0000000000000495 .LLST40
     /tmp/ccY8L7Nz.s:515    .text:00000000000002b4 .LVL50
     /tmp/ccY8L7Nz.s:228    .text:000000000000011c .LFB53
     /tmp/ccY8L7Nz.s:365    .text:00000000000001d4 .LFE53
     /tmp/ccY8L7Nz.s:4751   .debug_str:0000000000000365 .LASF167
     /tmp/ccY8L7Nz.s:4408   .debug_loc:00000000000004b8 .LLST13
     /tmp/ccY8L7Nz.s:243    .text:0000000000000130 .LBB96
     /tmp/ccY8L7Nz.s:255    .text:0000000000000144 .LBE96
     /tmp/ccY8L7Nz.s:4419   .debug_loc:00000000000004ee .LLST14
     /tmp/ccY8L7Nz.s:256    .text:0000000000000144 .LBB98
     /tmp/ccY8L7Nz.s:4428   .debug_loc:000000000000051a .LLST15
     /tmp/ccY8L7Nz.s:4443   .debug_loc:0000000000000562 .LLST16
     /tmp/ccY8L7Nz.s:4451   .debug_loc:0000000000000586 .LLST17
     /tmp/ccY8L7Nz.s:262    .text:000000000000014c .LBB100
     /tmp/ccY8L7Nz.s:269    .text:0000000000000154 .LBE100
     /tmp/ccY8L7Nz.s:4462   .debug_loc:00000000000005bc .LLST18
     /tmp/ccY8L7Nz.s:266    .text:0000000000000154 .LVL22
     /tmp/ccY8L7Nz.s:276    .text:0000000000000158 .LBB103
     /tmp/ccY8L7Nz.s:284    .text:000000000000015c .LBE103
     /tmp/ccY8L7Nz.s:4469   .debug_loc:00000000000005df .LLST19
     /tmp/ccY8L7Nz.s:4477   .debug_loc:0000000000000603 .LLST20
     /tmp/ccY8L7Nz.s:291    .text:0000000000000168 .LBB105
     /tmp/ccY8L7Nz.s:300    .text:0000000000000174 .LBE105
     /tmp/ccY8L7Nz.s:4484   .debug_loc:0000000000000626 .LLST21
     /tmp/ccY8L7Nz.s:298    .text:0000000000000174 .LVL26
     /tmp/ccY8L7Nz.s:302    .text:0000000000000174 .LBB107
     /tmp/ccY8L7Nz.s:314    .text:0000000000000184 .LBE107
     /tmp/ccY8L7Nz.s:4491   .debug_loc:0000000000000649 .LLST22
     /tmp/ccY8L7Nz.s:289    .text:0000000000000168 .LVL25
     /tmp/ccY8L7Nz.s:148    .text:00000000000000b0 .LFB52
     /tmp/ccY8L7Nz.s:222    .text:000000000000011c .LFE52
     /tmp/ccY8L7Nz.s:4500   .debug_loc:0000000000000675 .LLST6
     /tmp/ccY8L7Nz.s:165    .text:00000000000000c8 .LBB76
     /tmp/ccY8L7Nz.s:4522   .debug_loc:00000000000006d4 .LLST7
     /tmp/ccY8L7Nz.s:4537   .debug_loc:000000000000071d .LLST8
     /tmp/ccY8L7Nz.s:167    .text:00000000000000c8 .LBB78
     /tmp/ccY8L7Nz.s:175    .text:00000000000000d4 .LBE78
     /tmp/ccY8L7Nz.s:4552   .debug_loc:0000000000000765 .LLST9
     /tmp/ccY8L7Nz.s:173    .text:00000000000000d4 .LVL14
     /tmp/ccY8L7Nz.s:176    .text:00000000000000d4 .LBB80
     /tmp/ccY8L7Nz.s:183    .text:00000000000000dc .LBE80
     /tmp/ccY8L7Nz.s:4560   .debug_loc:0000000000000789 .LLST10
     /tmp/ccY8L7Nz.s:4568   .debug_loc:00000000000007ad .LLST11
     /tmp/ccY8L7Nz.s:4575   .debug_loc:00000000000007d0 .LLST12
     /tmp/ccY8L7Nz.s:68     .text:0000000000000048 .LFB51
     /tmp/ccY8L7Nz.s:142    .text:00000000000000b0 .LFE51
     /tmp/ccY8L7Nz.s:83     .text:000000000000005c .LBB70
     /tmp/ccY8L7Nz.s:4582   .debug_loc:00000000000007f3 .LLST2
GAS LISTING /tmp/ccY8L7Nz.s 			page 30


     /tmp/ccY8L7Nz.s:4597   .debug_loc:000000000000083b .LLST3
     /tmp/ccY8L7Nz.s:4608   .debug_loc:0000000000000871 .LLST4
     /tmp/ccY8L7Nz.s:100    .text:000000000000007c .LBB72
     /tmp/ccY8L7Nz.s:107    .text:0000000000000084 .LBE72
     /tmp/ccY8L7Nz.s:4619   .debug_loc:00000000000008a7 .LLST5
     /tmp/ccY8L7Nz.s:104    .text:0000000000000084 .LVL7
     /tmp/ccY8L7Nz.s:4707   .debug_str:00000000000001df .LASF168
     /tmp/ccY8L7Nz.s:37     .text:000000000000002c .LVL1
     /tmp/ccY8L7Nz.s:46     .text:000000000000003c .LVL2
     /tmp/ccY8L7Nz.s:55     .text:0000000000000044 .LVL3
     /tmp/ccY8L7Nz.s:575    .text:0000000000000300 .LVL55
     /tmp/ccY8L7Nz.s:583    .text:0000000000000310 .LVL56
     /tmp/ccY8L7Nz.s:607    .text:0000000000000330 .LVL58
     /tmp/ccY8L7Nz.s:615    .text:0000000000000340 .LVL59
     /tmp/ccY8L7Nz.s:374    .text:00000000000001d4 .LVL33
     /tmp/ccY8L7Nz.s:411    .text:000000000000020c .LVL36
     /tmp/ccY8L7Nz.s:528    .text:00000000000002c4 .LVL52
     /tmp/ccY8L7Nz.s:535    .text:00000000000002d0 .LVL54
     /tmp/ccY8L7Nz.s:394    .text:0000000000000200 .LVL34
     /tmp/ccY8L7Nz.s:531    .text:00000000000002c8 .LVL53
     /tmp/ccY8L7Nz.s:423    .text:0000000000000220 .LVL39
     /tmp/ccY8L7Nz.s:525    .text:00000000000002c0 .LVL51
     /tmp/ccY8L7Nz.s:402    .text:0000000000000208 .LVL35
     /tmp/ccY8L7Nz.s:415    .text:0000000000000218 .LVL38
     /tmp/ccY8L7Nz.s:508    .text:00000000000002ac .LVL49
     /tmp/ccY8L7Nz.s:442    .text:0000000000000234 .LVL41
     /tmp/ccY8L7Nz.s:452    .text:0000000000000244 .LVL42
     /tmp/ccY8L7Nz.s:469    .text:0000000000000264 .LVL43
     /tmp/ccY8L7Nz.s:474    .text:000000000000026c .LVL44
     /tmp/ccY8L7Nz.s:477    .text:0000000000000270 .LVL45
     /tmp/ccY8L7Nz.s:485    .text:0000000000000284 .LVL46
     /tmp/ccY8L7Nz.s:503    .text:00000000000002a0 .LVL48
     /tmp/ccY8L7Nz.s:500    .text:000000000000029c .LVL47
     /tmp/ccY8L7Nz.s:252    .text:0000000000000144 .LVL20
     /tmp/ccY8L7Nz.s:306    .text:000000000000017c .LVL27
     /tmp/ccY8L7Nz.s:311    .text:0000000000000184 .LVL28
     /tmp/ccY8L7Nz.s:340    .text:00000000000001b0 .LVL32
     /tmp/ccY8L7Nz.s:242    .text:0000000000000130 .LVL19
     /tmp/ccY8L7Nz.s:324    .text:0000000000000190 .LVL29
     /tmp/ccY8L7Nz.s:331    .text:000000000000019c .LVL30
     /tmp/ccY8L7Nz.s:336    .text:00000000000001a8 .LVL31
     /tmp/ccY8L7Nz.s:261    .text:000000000000014c .LVL21
     /tmp/ccY8L7Nz.s:275    .text:0000000000000158 .LVL23
     /tmp/ccY8L7Nz.s:282    .text:000000000000015c .LVL24
     /tmp/ccY8L7Nz.s:151    .text:00000000000000b0 .LVL11
     /tmp/ccY8L7Nz.s:171    .text:00000000000000cc .LVL13
     /tmp/ccY8L7Nz.s:205    .text:0000000000000100 .LVL17
     /tmp/ccY8L7Nz.s:209    .text:0000000000000108 .LVL18
     /tmp/ccY8L7Nz.s:164    .text:00000000000000c8 .LVL12
     /tmp/ccY8L7Nz.s:192    .text:00000000000000f4 .LVL16
     /tmp/ccY8L7Nz.s:181    .text:00000000000000dc .LVL15
     /tmp/ccY8L7Nz.s:82     .text:000000000000005c .LVL4
     /tmp/ccY8L7Nz.s:123    .text:000000000000009c .LVL8
     /tmp/ccY8L7Nz.s:135    .text:00000000000000ac .LVL10
     /tmp/ccY8L7Nz.s:91     .text:000000000000006c .LVL5
     /tmp/ccY8L7Nz.s:131    .text:00000000000000a8 .LVL9
     /tmp/ccY8L7Nz.s:99     .text:000000000000007c .LVL6
GAS LISTING /tmp/ccY8L7Nz.s 			page 31


     /tmp/ccY8L7Nz.s:696    .debug_info:0000000000000000 .Ldebug_info0
     /tmp/ccY8L7Nz.s:109    .text:0000000000000084 .LBE70
     /tmp/ccY8L7Nz.s:126    .text:000000000000009c .LBB75
     /tmp/ccY8L7Nz.s:137    .text:00000000000000ac .LBE75
     /tmp/ccY8L7Nz.s:195    .text:00000000000000f4 .LBE76
     /tmp/ccY8L7Nz.s:212    .text:0000000000000108 .LBB83
     /tmp/ccY8L7Nz.s:220    .text:000000000000011c .LBE83
     /tmp/ccY8L7Nz.s:271    .text:0000000000000154 .LBE98
     /tmp/ccY8L7Nz.s:325    .text:0000000000000190 .LBB109
     /tmp/ccY8L7Nz.s:343    .text:00000000000001b0 .LBE109
     /tmp/ccY8L7Nz.s:511    .text:00000000000002ac .LBE130
     /tmp/ccY8L7Nz.s:538    .text:00000000000002d0 .LBB137
     /tmp/ccY8L7Nz.s:548    .text:00000000000002e4 .LBE137

UNDEFINED SYMBOLS
_ZN15MemoryAllocator4freeEPv
_ZN15MemoryAllocator8allocateEm
_ZN3TCB7runningE
_ZN3TCB8dispatchEv
