GAS LISTING /tmp/ccY8L7Nz.s 			page 1


   1              		.file	"scheduler.cpp"
   2              		.option pic
   3              		.option norelax
   4              		.text
   5              	.Ltext0:
   6              		.align	2
   8              	_Z41__static_initialization_and_destruction_0ii:
   9              	.LFB79:
  10              		.file 1 "src/scheduler.cpp"
   1:src/scheduler.cpp **** //
   2:src/scheduler.cpp **** // Created by os on 9/9/22.
   3:src/scheduler.cpp **** //
   4:src/scheduler.cpp **** 
   5:src/scheduler.cpp **** #include "../h/scheduler.hpp"
   6:src/scheduler.cpp **** 
   7:src/scheduler.cpp **** List<TCB> Scheduler::readyQueue;
   8:src/scheduler.cpp **** List<Scheduler::sleepNode> Scheduler::sleepQueue;
   9:src/scheduler.cpp **** 
  10:src/scheduler.cpp **** TCB* Scheduler::get() {
  11:src/scheduler.cpp ****     TCB* ret = readyQueue.takeFirst();
  12:src/scheduler.cpp ****     return ret;
  13:src/scheduler.cpp **** }
  14:src/scheduler.cpp **** 
  15:src/scheduler.cpp **** void Scheduler::put(TCB* tcb) {
  16:src/scheduler.cpp ****     readyQueue.putLast(tcb);
  17:src/scheduler.cpp **** }
  18:src/scheduler.cpp **** 
  19:src/scheduler.cpp **** void Scheduler::timerInterrupt() {
  20:src/scheduler.cpp ****     sleepNode *first = sleepQueue.getFirst();
  21:src/scheduler.cpp ****     while(first) {
  22:src/scheduler.cpp ****         //__print_uint64(first->time);
  23:src/scheduler.cpp ****         //__print_string("\n");
  24:src/scheduler.cpp ****         if (first->time != 0) break;
  25:src/scheduler.cpp ****         sleepQueue.takeFirst();
  26:src/scheduler.cpp ****         first->thread->setBlocked(false);
  27:src/scheduler.cpp ****         Scheduler::put(first->thread);
  28:src/scheduler.cpp ****         delete first;
  29:src/scheduler.cpp ****         first = sleepQueue.getFirst();
  30:src/scheduler.cpp ****     }
  31:src/scheduler.cpp ****     if (!first) return;
  32:src/scheduler.cpp ****     first->time--;
  33:src/scheduler.cpp **** }
  34:src/scheduler.cpp **** 
  35:src/scheduler.cpp **** void Scheduler::timeSleep(time_t time) {
  36:src/scheduler.cpp ****     TCB* old = TCB::running;
  37:src/scheduler.cpp ****     old->setBlocked(true);
  38:src/scheduler.cpp ****     sleepNode* sn = new sleepNode(time, old);
  39:src/scheduler.cpp ****     sleepQueue.putSorted(sn);
  40:src/scheduler.cpp ****     TCB::dispatch();
  41:src/scheduler.cpp **** }
  42:src/scheduler.cpp **** 
  43:src/scheduler.cpp **** void Scheduler::finish() {
  44:src/scheduler.cpp ****     sleepQueue.deleteList();
  45:src/scheduler.cpp ****     readyQueue.deleteList();
  46:src/scheduler.cpp **** }
  11              		.loc 1 46 1
  12              		.cfi_startproc
GAS LISTING /tmp/ccY8L7Nz.s 			page 2


  13              	.LVL0:
  14 0000 130101FF 		addi	sp,sp,-16
  15              		.cfi_def_cfa_offset 16
  16 0004 23348100 		sd	s0,8(sp)
  17              		.cfi_offset 8, -8
  18 0008 13040101 		addi	s0,sp,16
  19              		.cfi_def_cfa 8, 0
  20              		.loc 1 46 1 is_stmt 0
  21 000c 93071000 		li	a5,1
  22 0010 6308F500 		beq	a0,a5,.L4
  23              	.L1:
  24 0014 03348100 		ld	s0,8(sp)
  25              		.cfi_remember_state
  26              		.cfi_restore 8
  27              		.cfi_def_cfa 2, 16
  28 0018 13010101 		addi	sp,sp,16
  29              		.cfi_def_cfa_offset 0
  30 001c 67800000 		jr	ra
  31              	.L4:
  32              		.cfi_restore_state
  33              		.loc 1 46 1 discriminator 1
  34 0020 B7070100 		li	a5,65536
  35 0024 9387F7FF 		addi	a5,a5,-1
  36 0028 E396F5FE 		bne	a1,a5,.L1
  37              	.LVL1:
  38              	.LBB64:
  39              	.LBB65:
  40              	.LBB66:
  41              		.file 2 "src/../h/list.hpp"
   1:src/../h/list.hpp **** //
   2:src/../h/list.hpp **** // Created by os on 9/6/22.
   3:src/../h/list.hpp **** //
   4:src/../h/list.hpp **** 
   5:src/../h/list.hpp **** #ifndef OSMIUM_LIST_H
   6:src/../h/list.hpp **** #define OSMIUM_LIST_H
   7:src/../h/list.hpp **** 
   8:src/../h/list.hpp **** #include "../lib/console.h"
   9:src/../h/list.hpp **** 
  10:src/../h/list.hpp **** #include "__print.hpp"
  11:src/../h/list.hpp **** #include "memory_allocator.hpp"
  12:src/../h/list.hpp **** 
  13:src/../h/list.hpp **** template <typename T>
  14:src/../h/list.hpp **** class List {
  15:src/../h/list.hpp **** private:
  16:src/../h/list.hpp ****     struct Node {
  17:src/../h/list.hpp ****         T *data;
  18:src/../h/list.hpp ****         Node *next;
  19:src/../h/list.hpp **** 
  20:src/../h/list.hpp ****         Node(T *data, Node *next) : data(data), next(next) {}
  21:src/../h/list.hpp **** 
  22:src/../h/list.hpp ****         void* operator new(size_t size) {
  23:src/../h/list.hpp ****             return MemoryAllocator::allocate(size);
  24:src/../h/list.hpp ****         }
  25:src/../h/list.hpp **** 
  26:src/../h/list.hpp ****         void* operator new[](size_t size) {
  27:src/../h/list.hpp ****             return MemoryAllocator::allocate(size);
  28:src/../h/list.hpp ****         }
GAS LISTING /tmp/ccY8L7Nz.s 			page 3


  29:src/../h/list.hpp **** 
  30:src/../h/list.hpp ****         void operator delete(void* ptr) {
  31:src/../h/list.hpp ****             MemoryAllocator::free(ptr);
  32:src/../h/list.hpp ****         }
  33:src/../h/list.hpp **** 
  34:src/../h/list.hpp ****         void operator delete[](void* ptr) {
  35:src/../h/list.hpp ****             MemoryAllocator::free(ptr);
  36:src/../h/list.hpp ****         }
  37:src/../h/list.hpp ****     };
  38:src/../h/list.hpp **** 
  39:src/../h/list.hpp ****     Node *head, *tail;
  40:src/../h/list.hpp **** public:
  41:src/../h/list.hpp ****     List() : head(0), tail(0) {}
  42              		.loc 2 41 29
  43 002c 97070000 		lla	a5,.LANCHOR0
  43      93870700 
  44 0034 23B00700 		sd	zero,0(a5)
  45 0038 23B40700 		sd	zero,8(a5)
  46              	.LVL2:
  47              	.LBE66:
  48              	.LBE65:
  49              	.LBE64:
  50              	.LBB67:
  51              	.LBB68:
  52              	.LBB69:
  53 003c 23B80700 		sd	zero,16(a5)
  54 0040 23BC0700 		sd	zero,24(a5)
  55              	.LVL3:
  56              	.LBE69:
  57              	.LBE68:
  58              	.LBE67:
  59              		.loc 1 46 1
  60 0044 6FF01FFD 		j	.L1
  61              		.cfi_endproc
  62              	.LFE79:
  64              		.align	2
  65              		.globl	_ZN9Scheduler3getEv
  67              	_ZN9Scheduler3getEv:
  68              	.LFB51:
  10:src/scheduler.cpp ****     TCB* ret = readyQueue.takeFirst();
  69              		.loc 1 10 23 is_stmt 1
  70              		.cfi_startproc
  71 0048 130101FE 		addi	sp,sp,-32
  72              		.cfi_def_cfa_offset 32
  73 004c 233C1100 		sd	ra,24(sp)
  74 0050 23388100 		sd	s0,16(sp)
  75 0054 23349100 		sd	s1,8(sp)
  76              		.cfi_offset 1, -8
  77              		.cfi_offset 8, -16
  78              		.cfi_offset 9, -24
  79 0058 13040102 		addi	s0,sp,32
  80              		.cfi_def_cfa 8, 0
  11:src/scheduler.cpp ****     return ret;
  81              		.loc 1 11 5
  82              	.LVL4:
  83              	.LBB70:
  84              	.LBB71:
GAS LISTING /tmp/ccY8L7Nz.s 			page 4


  42:src/../h/list.hpp ****     List(const List<T> &) = delete;
  43:src/../h/list.hpp ****     List<T> &operator=(const List<T> &) = delete;
  44:src/../h/list.hpp **** 
  45:src/../h/list.hpp ****     void putFirst(T *data) {
  46:src/../h/list.hpp ****         Node *newNode = new Node(data, head);
  47:src/../h/list.hpp ****         head = newNode;
  48:src/../h/list.hpp ****         if (!tail) tail = head;
  49:src/../h/list.hpp ****     }
  50:src/../h/list.hpp **** 
  51:src/../h/list.hpp ****     void putLast(T *data) {
  52:src/../h/list.hpp ****         Node *newNode = new Node(data, 0);
  53:src/../h/list.hpp ****         if (!tail) head = tail = newNode;
  54:src/../h/list.hpp ****         else {
  55:src/../h/list.hpp ****             tail->next = newNode;
  56:src/../h/list.hpp ****             tail = newNode;
  57:src/../h/list.hpp ****         }
  58:src/../h/list.hpp ****     }
  59:src/../h/list.hpp **** 
  60:src/../h/list.hpp ****     void putSorted(T* data) {
  61:src/../h/list.hpp ****         Node *newNode = new Node(data, 0);
  62:src/../h/list.hpp ****         if (!head) { head = tail = newNode; return; }
  63:src/../h/list.hpp ****         Node* curr = head, *prev = nullptr;
  64:src/../h/list.hpp ****         while (curr) {
  65:src/../h/list.hpp ****             if (*(uint64*)(newNode->data) < *(uint64*)(curr->data)) {
  66:src/../h/list.hpp ****                 break;
  67:src/../h/list.hpp ****             }
  68:src/../h/list.hpp ****             *(uint64*)(newNode->data) -= *(uint64*)(curr->data);
  69:src/../h/list.hpp ****             prev = curr;
  70:src/../h/list.hpp ****             curr = curr->next;
  71:src/../h/list.hpp ****         }
  72:src/../h/list.hpp ****         if (prev) prev->next = newNode;
  73:src/../h/list.hpp ****         else head = newNode;
  74:src/../h/list.hpp ****         if (curr) {newNode->next = curr; *(uint64*)(curr->data) -= *(uint64*)(newNode->data);}
  75:src/../h/list.hpp ****         else prev->next = newNode;
  76:src/../h/list.hpp ****     }
  77:src/../h/list.hpp **** 
  78:src/../h/list.hpp ****     T* takeFirst() {
  79:src/../h/list.hpp ****         if (!head) return 0;
  85              		.loc 2 79 14 is_stmt 0
  86 005c 17050000 		ld	a0,.LANCHOR0
  86      03350500 
  87              		.loc 2 79 9
  88 0064 63020504 		beqz	a0,.L8
  80:src/../h/list.hpp **** 
  81:src/../h/list.hpp ****         T* ret = head->data;
  89              		.loc 2 81 12
  90 0068 83340500 		ld	s1,0(a0)
  91              	.LVL5:
  82:src/../h/list.hpp ****         Node* old = head;
  83:src/../h/list.hpp ****         head = head->next;
  92              		.loc 2 83 22
  93 006c 83378500 		ld	a5,8(a0)
  94              		.loc 2 83 9
  95 0070 17070000 		sd	a5,.LANCHOR0,a4
  95      2330F700 
  84:src/../h/list.hpp ****         if (!head) tail = 0;
  96              		.loc 2 84 9
GAS LISTING /tmp/ccY8L7Nz.s 			page 5


  97 0078 63820702 		beqz	a5,.L10
  98              	.L7:
  99              	.LVL6:
 100              	.LBB72:
 101              	.LBB73:
  31:src/../h/list.hpp ****         }
 102              		.loc 2 31 34
 103 007c 97000000 		call	_ZN15MemoryAllocator4freeEPv@plt
 103      E7800000 
 104              	.LVL7:
 105              	.L5:
 106              	.LBE73:
 107              	.LBE72:
 108              	.LBE71:
 109              	.LBE70:
  13:src/scheduler.cpp **** 
 110              		.loc 1 13 1
 111 0084 13850400 		mv	a0,s1
 112 0088 83308101 		ld	ra,24(sp)
 113              		.cfi_remember_state
 114              		.cfi_restore 1
 115 008c 03340101 		ld	s0,16(sp)
 116              		.cfi_restore 8
 117              		.cfi_def_cfa 2, 32
 118 0090 83348100 		ld	s1,8(sp)
 119              		.cfi_restore 9
 120 0094 13010102 		addi	sp,sp,32
 121              		.cfi_def_cfa_offset 0
 122 0098 67800000 		jr	ra
 123              	.LVL8:
 124              	.L10:
 125              		.cfi_restore_state
 126              	.LBB75:
 127              	.LBB74:
 128              		.loc 2 84 20
 129 009c 97070000 		sd	zero,.LANCHOR0+8,a5
 129      23B00700 
 130 00a4 6FF09FFD 		j	.L7
 131              	.LVL9:
 132              	.L8:
  79:src/../h/list.hpp **** 
 133              		.loc 2 79 27
 134 00a8 93040500 		mv	s1,a0
 135              	.LVL10:
 136              	.LBE74:
 137              	.LBE75:
  12:src/scheduler.cpp **** }
 138              		.loc 1 12 5 is_stmt 1
  12:src/scheduler.cpp **** }
 139              		.loc 1 12 12 is_stmt 0
 140 00ac 6FF09FFD 		j	.L5
 141              		.cfi_endproc
 142              	.LFE51:
 144              		.align	2
 145              		.globl	_ZN9Scheduler3putEP3TCB
 147              	_ZN9Scheduler3putEP3TCB:
 148              	.LFB52:
GAS LISTING /tmp/ccY8L7Nz.s 			page 6


  15:src/scheduler.cpp ****     readyQueue.putLast(tcb);
 149              		.loc 1 15 31 is_stmt 1
 150              		.cfi_startproc
 151              	.LVL11:
 152 00b0 130101FE 		addi	sp,sp,-32
 153              		.cfi_def_cfa_offset 32
 154 00b4 233C1100 		sd	ra,24(sp)
 155 00b8 23388100 		sd	s0,16(sp)
 156 00bc 23349100 		sd	s1,8(sp)
 157              		.cfi_offset 1, -8
 158              		.cfi_offset 8, -16
 159              		.cfi_offset 9, -24
 160 00c0 13040102 		addi	s0,sp,32
 161              		.cfi_def_cfa 8, 0
 162 00c4 93040500 		mv	s1,a0
  16:src/scheduler.cpp **** }
 163              		.loc 1 16 5
 164              	.LVL12:
 165              	.LBB76:
 166              	.LBB77:
 167              	.LBB78:
 168              	.LBB79:
  23:src/../h/list.hpp ****         }
 169              		.loc 2 23 45 is_stmt 0
 170 00c8 13050001 		li	a0,16
 171              	.LVL13:
 172 00cc 97000000 		call	_ZN15MemoryAllocator8allocateEm@plt
 172      E7800000 
 173              	.LVL14:
 174              	.LBE79:
 175              	.LBE78:
 176              	.LBB80:
 177              	.LBB81:
  20:src/../h/list.hpp **** 
 178              		.loc 2 20 58
 179 00d4 23309500 		sd	s1,0(a0)
 180 00d8 23340500 		sd	zero,8(a0)
 181              	.LVL15:
 182              	.LBE81:
 183              	.LBE80:
  53:src/../h/list.hpp ****         else {
 184              		.loc 2 53 14
 185 00dc 97070000 		ld	a5,.LANCHOR0+8
 185      83B70700 
  53:src/../h/list.hpp ****         else {
 186              		.loc 2 53 9
 187 00e4 63820702 		beqz	a5,.L15
  55:src/../h/list.hpp ****             tail = newNode;
 188              		.loc 2 55 13
 189 00e8 23B4A700 		sd	a0,8(a5)
  56:src/../h/list.hpp ****         }
 190              		.loc 2 56 13
 191 00ec 97070000 		sd	a0,.LANCHOR0+8,a5
 191      23B0A700 
 192              	.LVL16:
 193              	.L11:
 194              	.LBE77:
GAS LISTING /tmp/ccY8L7Nz.s 			page 7


 195              	.LBE76:
  17:src/scheduler.cpp **** 
 196              		.loc 1 17 1
 197 00f4 83308101 		ld	ra,24(sp)
 198              		.cfi_remember_state
 199              		.cfi_restore 1
 200 00f8 03340101 		ld	s0,16(sp)
 201              		.cfi_restore 8
 202              		.cfi_def_cfa 2, 32
 203 00fc 83348100 		ld	s1,8(sp)
 204              		.cfi_restore 9
 205              	.LVL17:
 206 0100 13010102 		addi	sp,sp,32
 207              		.cfi_def_cfa_offset 0
 208 0104 67800000 		jr	ra
 209              	.LVL18:
 210              	.L15:
 211              		.cfi_restore_state
 212              	.LBB83:
 213              	.LBB82:
  53:src/../h/list.hpp ****         else {
 214              		.loc 2 53 20
 215 0108 97070000 		lla	a5,.LANCHOR0
 215      93870700 
 216 0110 23B4A700 		sd	a0,8(a5)
 217 0114 23B0A700 		sd	a0,0(a5)
 218 0118 6FF0DFFD 		j	.L11
 219              	.LBE82:
 220              	.LBE83:
 221              		.cfi_endproc
 222              	.LFE52:
 224              		.align	2
 225              		.globl	_ZN9Scheduler14timerInterruptEv
 227              	_ZN9Scheduler14timerInterruptEv:
 228              	.LFB53:
  19:src/scheduler.cpp ****     sleepNode *first = sleepQueue.getFirst();
 229              		.loc 1 19 34 is_stmt 1
 230              		.cfi_startproc
 231 011c 130101FE 		addi	sp,sp,-32
 232              		.cfi_def_cfa_offset 32
 233 0120 233C1100 		sd	ra,24(sp)
 234 0124 23388100 		sd	s0,16(sp)
 235 0128 23349100 		sd	s1,8(sp)
 236              		.cfi_offset 1, -8
 237              		.cfi_offset 8, -16
 238              		.cfi_offset 9, -24
 239 012c 13040102 		addi	s0,sp,32
 240              		.cfi_def_cfa 8, 0
  20:src/scheduler.cpp ****     while(first) {
 241              		.loc 1 20 5
 242              	.LVL19:
 243              	.LBB96:
 244              	.LBB97:
  85:src/../h/list.hpp ****         delete old;
  86:src/../h/list.hpp ****         //printStatus();
  87:src/../h/list.hpp **** 
  88:src/../h/list.hpp ****         return ret;
GAS LISTING /tmp/ccY8L7Nz.s 			page 8


  89:src/../h/list.hpp ****     }
  90:src/../h/list.hpp **** 
  91:src/../h/list.hpp ****     T* takeLast() {
  92:src/../h/list.hpp ****         if (!head) return 0;
  93:src/../h/list.hpp **** 
  94:src/../h/list.hpp ****         Node* curr = head, *prev = 0;
  95:src/../h/list.hpp ****         while (curr->next) prev = curr, curr = curr->next;
  96:src/../h/list.hpp **** 
  97:src/../h/list.hpp ****         if(prev) prev->next = 0;
  98:src/../h/list.hpp ****         else head = 0;
  99:src/../h/list.hpp ****         tail = prev;
 100:src/../h/list.hpp ****         T* ret = curr->data;
 101:src/../h/list.hpp **** 
 102:src/../h/list.hpp ****         return ret;
 103:src/../h/list.hpp ****     }
 104:src/../h/list.hpp **** 
 105:src/../h/list.hpp ****     T* getFirst() {
 106:src/../h/list.hpp ****         if(!head) return 0;
 245              		.loc 2 106 13 is_stmt 0
 246 0130 97040000 		ld	s1,.LANCHOR0+16
 246      83B40400 
 247              		.loc 2 106 9
 248 0138 63860404 		beqz	s1,.L21
 107:src/../h/list.hpp ****         return head->data;
 249              		.loc 2 107 22
 250 013c 83B40400 		ld	s1,0(s1)
 251 0140 6F004004 		j	.L21
 252              	.LVL20:
 253              	.L24:
 254              	.LBE97:
 255              	.LBE96:
 256              	.LBB98:
 257              	.LBB99:
  84:src/../h/list.hpp ****         delete old;
 258              		.loc 2 84 20
 259 0144 97070000 		sd	zero,.LANCHOR0+24,a5
 259      23B00700 
 260              	.L20:
 261              	.LVL21:
 262              	.LBB100:
 263              	.LBB101:
  31:src/../h/list.hpp ****         }
 264              		.loc 2 31 34
 265 014c 97000000 		call	_ZN15MemoryAllocator4freeEPv@plt
 265      E7800000 
 266              	.LVL22:
 267              	.L19:
 268              	.LBE101:
 269              	.LBE100:
 270              	.LBE99:
 271              	.LBE98:
  26:src/scheduler.cpp ****         Scheduler::put(first->thread);
 272              		.loc 1 26 9 is_stmt 1
  26:src/scheduler.cpp ****         Scheduler::put(first->thread);
 273              		.loc 1 26 16 is_stmt 0
 274 0154 83B78400 		ld	a5,8(s1)
 275              	.LVL23:
GAS LISTING /tmp/ccY8L7Nz.s 			page 9


 276              	.LBB103:
 277              	.LBB104:
 278              		.file 3 "src/../h/tcb.hpp"
   1:src/../h/tcb.hpp **** //
   2:src/../h/tcb.hpp **** // Created by os on 9/9/22.
   3:src/../h/tcb.hpp **** //
   4:src/../h/tcb.hpp **** 
   5:src/../h/tcb.hpp **** #ifndef OSMIUM_TCB_HPP
   6:src/../h/tcb.hpp **** #define OSMIUM_TCB_HPP
   7:src/../h/tcb.hpp **** 
   8:src/../h/tcb.hpp **** #include "../lib/hw.h"
   9:src/../h/tcb.hpp **** //#include "../h/scheduler.hpp"
  10:src/../h/tcb.hpp **** #include "riscv.hpp"
  11:src/../h/tcb.hpp **** #include "memory_allocator.hpp"
  12:src/../h/tcb.hpp **** 
  13:src/../h/tcb.hpp **** class Scheduler;
  14:src/../h/tcb.hpp **** 
  15:src/../h/tcb.hpp **** 
  16:src/../h/tcb.hpp **** class TCB {
  17:src/../h/tcb.hpp **** public:
  18:src/../h/tcb.hpp ****     using Body = void (*)(void*);
  19:src/../h/tcb.hpp **** 
  20:src/../h/tcb.hpp ****     static TCB* createTCB(Body body, void* args);
  21:src/../h/tcb.hpp **** 
  22:src/../h/tcb.hpp ****     static TCB* createDeactivatedTCB(Body body, void* args);
  23:src/../h/tcb.hpp **** 
  24:src/../h/tcb.hpp ****     static TCB* createSupervisorTCB(Body body, void* args);
  25:src/../h/tcb.hpp **** 
  26:src/../h/tcb.hpp ****     bool isFinished() const { return finished; }
  27:src/../h/tcb.hpp **** 
  28:src/../h/tcb.hpp ****     void setFinished(bool val) { finished = val; }
  29:src/../h/tcb.hpp **** 
  30:src/../h/tcb.hpp ****     bool isBlocked() const { return blocked; }
  31:src/../h/tcb.hpp **** 
  32:src/../h/tcb.hpp ****     void setBlocked(bool val) { blocked = val; }
 279              		.loc 3 32 33 is_stmt 1
 280              		.loc 3 32 41 is_stmt 0
 281 0158 A38C0700 		sb	zero,25(a5)
 282              	.LVL24:
 283              	.LBE104:
 284              	.LBE103:
  27:src/scheduler.cpp ****         delete first;
 285              		.loc 1 27 9 is_stmt 1
  27:src/scheduler.cpp ****         delete first;
 286              		.loc 1 27 23 is_stmt 0
 287 015c 03B58400 		ld	a0,8(s1)
 288 0160 97000000 		call	_ZN9Scheduler3putEP3TCB
 288      E7800000 
 289              	.LVL25:
  28:src/scheduler.cpp ****         first = sleepQueue.getFirst();
 290              		.loc 1 28 9 is_stmt 1
 291              	.LBB105:
 292              	.LBB106:
 293              		.file 4 "src/../h/scheduler.hpp"
   1:src/../h/scheduler.hpp **** //
   2:src/../h/scheduler.hpp **** // Created by os on 9/9/22.
   3:src/../h/scheduler.hpp **** //
GAS LISTING /tmp/ccY8L7Nz.s 			page 10


   4:src/../h/scheduler.hpp **** 
   5:src/../h/scheduler.hpp **** #ifndef OSMIUM_SCHEDULER_HPP
   6:src/../h/scheduler.hpp **** #define OSMIUM_SCHEDULER_HPP
   7:src/../h/scheduler.hpp **** 
   8:src/../h/scheduler.hpp **** #include "syscall_c.h"
   9:src/../h/scheduler.hpp **** #include "list.hpp"
  10:src/../h/scheduler.hpp **** 
  11:src/../h/scheduler.hpp **** #include "tcb.hpp"
  12:src/../h/scheduler.hpp **** 
  13:src/../h/scheduler.hpp **** class Scheduler {
  14:src/../h/scheduler.hpp **** private:
  15:src/../h/scheduler.hpp ****     static List<TCB> readyQueue;
  16:src/../h/scheduler.hpp **** 
  17:src/../h/scheduler.hpp ****     struct sleepNode {
  18:src/../h/scheduler.hpp ****         time_t time;
  19:src/../h/scheduler.hpp ****         TCB* thread;
  20:src/../h/scheduler.hpp **** 
  21:src/../h/scheduler.hpp ****         sleepNode(time_t time, TCB* thread) : time(time), thread(thread) {}
  22:src/../h/scheduler.hpp **** 
  23:src/../h/scheduler.hpp ****         void* operator new(size_t size) {
  24:src/../h/scheduler.hpp ****             return MemoryAllocator::allocate(size);
  25:src/../h/scheduler.hpp ****         }
  26:src/../h/scheduler.hpp **** 
  27:src/../h/scheduler.hpp ****         void* operator new[](size_t size) {
  28:src/../h/scheduler.hpp ****             return MemoryAllocator::allocate(size);
  29:src/../h/scheduler.hpp ****         }
  30:src/../h/scheduler.hpp **** 
  31:src/../h/scheduler.hpp ****         void operator delete(void* ptr) {
  32:src/../h/scheduler.hpp ****             MemoryAllocator::free(ptr);
 294              		.loc 4 32 13
 295              		.loc 4 32 34 is_stmt 0
 296 0168 13850400 		mv	a0,s1
 297 016c 97000000 		call	_ZN15MemoryAllocator4freeEPv@plt
 297      E7800000 
 298              	.LVL26:
 299              	.LBE106:
 300              	.LBE105:
  29:src/scheduler.cpp ****     }
 301              		.loc 1 29 9 is_stmt 1
 302              	.LBB107:
 303              	.LBB108:
 106:src/../h/list.hpp ****         return head->data;
 304              		.loc 2 106 13 is_stmt 0
 305 0174 97040000 		ld	s1,.LANCHOR0+16
 305      83B40400 
 306              	.LVL27:
 106:src/../h/list.hpp ****         return head->data;
 307              		.loc 2 106 9
 308 017c 638A0402 		beqz	s1,.L18
 309              		.loc 2 107 22
 310 0180 83B40400 		ld	s1,0(s1)
 311              	.LVL28:
 312              	.L21:
 313              	.LBE108:
 314              	.LBE107:
  21:src/scheduler.cpp ****         //__print_uint64(first->time);
 315              		.loc 1 21 5 is_stmt 1
GAS LISTING /tmp/ccY8L7Nz.s 			page 11


  21:src/scheduler.cpp ****         //__print_uint64(first->time);
 316              		.loc 1 21 11
 317 0184 63860402 		beqz	s1,.L18
  24:src/scheduler.cpp ****         sleepQueue.takeFirst();
 318              		.loc 1 24 9
  24:src/scheduler.cpp ****         sleepQueue.takeFirst();
 319              		.loc 1 24 20 is_stmt 0
 320 0188 83B70400 		ld	a5,0(s1)
  24:src/scheduler.cpp ****         sleepQueue.takeFirst();
 321              		.loc 1 24 9
 322 018c 63920702 		bnez	a5,.L18
  25:src/scheduler.cpp ****         first->thread->setBlocked(false);
 323              		.loc 1 25 9 is_stmt 1
 324              	.LVL29:
 325              	.LBB109:
 326              	.LBB102:
  79:src/../h/list.hpp **** 
 327              		.loc 2 79 14 is_stmt 0
 328 0190 17050000 		ld	a0,.LANCHOR0+16
 328      03350500 
  79:src/../h/list.hpp **** 
 329              		.loc 2 79 9
 330 0198 E30E05FA 		beqz	a0,.L19
 331              	.LVL30:
  83:src/../h/list.hpp ****         if (!head) tail = 0;
 332              		.loc 2 83 22
 333 019c 83378500 		ld	a5,8(a0)
  83:src/../h/list.hpp ****         if (!head) tail = 0;
 334              		.loc 2 83 9
 335 01a0 17070000 		sd	a5,.LANCHOR0+16,a4
 335      2330F700 
 336              	.LVL31:
  84:src/../h/list.hpp ****         delete old;
 337              		.loc 2 84 9
 338 01a8 E39207FA 		bnez	a5,.L20
 339 01ac 6FF09FF9 		j	.L24
 340              	.LVL32:
 341              	.L18:
 342              	.LBE102:
 343              	.LBE109:
  31:src/scheduler.cpp ****     first->time--;
 344              		.loc 1 31 5 is_stmt 1
 345 01b0 63880400 		beqz	s1,.L16
  32:src/scheduler.cpp **** }
 346              		.loc 1 32 5
  32:src/scheduler.cpp **** }
 347              		.loc 1 32 12 is_stmt 0
 348 01b4 83B70400 		ld	a5,0(s1)
  32:src/scheduler.cpp **** }
 349              		.loc 1 32 16
 350 01b8 9387F7FF 		addi	a5,a5,-1
 351 01bc 23B0F400 		sd	a5,0(s1)
 352              	.L16:
  33:src/scheduler.cpp **** 
 353              		.loc 1 33 1
 354 01c0 83308101 		ld	ra,24(sp)
 355              		.cfi_restore 1
GAS LISTING /tmp/ccY8L7Nz.s 			page 12


 356 01c4 03340101 		ld	s0,16(sp)
 357              		.cfi_restore 8
 358              		.cfi_def_cfa 2, 32
 359 01c8 83348100 		ld	s1,8(sp)
 360              		.cfi_restore 9
 361 01cc 13010102 		addi	sp,sp,32
 362              		.cfi_def_cfa_offset 0
 363 01d0 67800000 		jr	ra
 364              		.cfi_endproc
 365              	.LFE53:
 367              		.align	2
 368              		.globl	_ZN9Scheduler9timeSleepEm
 370              	_ZN9Scheduler9timeSleepEm:
 371              	.LFB54:
  35:src/scheduler.cpp ****     TCB* old = TCB::running;
 372              		.loc 1 35 40 is_stmt 1
 373              		.cfi_startproc
 374              	.LVL33:
 375 01d4 130101FD 		addi	sp,sp,-48
 376              		.cfi_def_cfa_offset 48
 377 01d8 23341102 		sd	ra,40(sp)
 378 01dc 23308102 		sd	s0,32(sp)
 379 01e0 233C9100 		sd	s1,24(sp)
 380 01e4 23382101 		sd	s2,16(sp)
 381 01e8 23343101 		sd	s3,8(sp)
 382              		.cfi_offset 1, -8
 383              		.cfi_offset 8, -16
 384              		.cfi_offset 9, -24
 385              		.cfi_offset 18, -32
 386              		.cfi_offset 19, -40
 387 01ec 13040103 		addi	s0,sp,48
 388              		.cfi_def_cfa 8, 0
 389 01f0 13090500 		mv	s2,a0
  36:src/scheduler.cpp ****     old->setBlocked(true);
 390              		.loc 1 36 5
  36:src/scheduler.cpp ****     old->setBlocked(true);
 391              		.loc 1 36 10 is_stmt 0
 392 01f4 97070000 		la	a5,_ZN3TCB7runningE
 392      83B70700 
 393 01fc 83B90700 		ld	s3,0(a5)
 394              	.LVL34:
  37:src/scheduler.cpp ****     sleepNode* sn = new sleepNode(time, old);
 395              		.loc 1 37 5 is_stmt 1
 396              	.LBB124:
 397              	.LBB125:
 398              		.loc 3 32 33
 399              		.loc 3 32 41 is_stmt 0
 400 0200 93071000 		li	a5,1
 401 0204 A38CF900 		sb	a5,25(s3)
 402              	.LVL35:
 403              	.LBE125:
 404              	.LBE124:
  38:src/scheduler.cpp ****     sleepQueue.putSorted(sn);
 405              		.loc 1 38 5 is_stmt 1
 406              	.LBB126:
 407              	.LBB127:
  24:src/../h/scheduler.hpp ****         }
GAS LISTING /tmp/ccY8L7Nz.s 			page 13


 408              		.loc 4 24 13
  24:src/../h/scheduler.hpp ****         }
 409              		.loc 4 24 45 is_stmt 0
 410 0208 13050001 		li	a0,16
 411              	.LVL36:
 412 020c 97000000 		call	_ZN15MemoryAllocator8allocateEm@plt
 412      E7800000 
 413              	.LVL37:
 414 0214 93040500 		mv	s1,a0
 415              	.LVL38:
 416              	.LBE127:
 417              	.LBE126:
 418              	.LBB128:
 419              	.LBB129:
  21:src/../h/scheduler.hpp **** 
 420              		.loc 4 21 72
 421 0218 23302501 		sd	s2,0(a0)
 422 021c 23343501 		sd	s3,8(a0)
 423              	.LVL39:
 424              	.LBE129:
 425              	.LBE128:
  39:src/scheduler.cpp ****     TCB::dispatch();
 426              		.loc 1 39 5 is_stmt 1
 427              	.LBB130:
 428              	.LBB131:
 429              	.LBB132:
 430              	.LBB133:
  23:src/../h/list.hpp ****         }
 431              		.loc 2 23 45 is_stmt 0
 432 0220 13050001 		li	a0,16
 433 0224 97000000 		call	_ZN15MemoryAllocator8allocateEm@plt
 433      E7800000 
 434              	.LVL40:
 435              	.LBE133:
 436              	.LBE132:
 437              	.LBB134:
 438              	.LBB135:
  20:src/../h/list.hpp **** 
 439              		.loc 2 20 58
 440 022c 23309500 		sd	s1,0(a0)
 441 0230 23340500 		sd	zero,8(a0)
 442              	.LVL41:
 443              	.LBE135:
 444              	.LBE134:
  62:src/../h/list.hpp ****         Node* curr = head, *prev = nullptr;
 445              		.loc 2 62 14
 446 0234 97070000 		ld	a5,.LANCHOR0+16
 446      83B70700 
  62:src/../h/list.hpp ****         Node* curr = head, *prev = nullptr;
 447              		.loc 2 62 9
 448 023c 638A0702 		beqz	a5,.L34
  63:src/../h/list.hpp ****         while (curr) {
 449              		.loc 2 63 29
 450 0240 93060000 		li	a3,0
 451              	.L26:
 452              	.LVL42:
  64:src/../h/list.hpp ****             if (*(uint64*)(newNode->data) < *(uint64*)(curr->data)) {
GAS LISTING /tmp/ccY8L7Nz.s 			page 14


 453              		.loc 2 64 9 is_stmt 1
 454 0244 63800704 		beqz	a5,.L28
  65:src/../h/list.hpp ****                 break;
 455              		.loc 2 65 37 is_stmt 0
 456 0248 03360500 		ld	a2,0(a0)
  65:src/../h/list.hpp ****                 break;
 457              		.loc 2 65 43
 458 024c 03370600 		ld	a4,0(a2)
  65:src/../h/list.hpp ****                 break;
 459              		.loc 2 65 62
 460 0250 83B50700 		ld	a1,0(a5)
  65:src/../h/list.hpp ****                 break;
 461              		.loc 2 65 43
 462 0254 83B50500 		ld	a1,0(a1)
  65:src/../h/list.hpp ****                 break;
 463              		.loc 2 65 13
 464 0258 6366B702 		bltu	a4,a1,.L28
  68:src/../h/list.hpp ****             prev = curr;
 465              		.loc 2 68 39
 466 025c 3307B740 		sub	a4,a4,a1
  68:src/../h/list.hpp ****             prev = curr;
 467              		.loc 2 68 13
 468 0260 2330E600 		sd	a4,0(a2)
 469              	.LVL43:
  69:src/../h/list.hpp ****             curr = curr->next;
 470              		.loc 2 69 13
 471 0264 93860700 		mv	a3,a5
  70:src/../h/list.hpp ****         }
 472              		.loc 2 70 13
 473 0268 83B78700 		ld	a5,8(a5)
 474              	.LVL44:
  64:src/../h/list.hpp ****             if (*(uint64*)(newNode->data) < *(uint64*)(curr->data)) {
 475              		.loc 2 64 9
 476 026c 6FF09FFD 		j	.L26
 477              	.LVL45:
 478              	.L34:
  62:src/../h/list.hpp ****         Node* curr = head, *prev = nullptr;
 479              		.loc 2 62 22
 480 0270 97070000 		lla	a5,.LANCHOR0
 480      93870700 
 481 0278 23BCA700 		sd	a0,24(a5)
 482 027c 23B8A700 		sd	a0,16(a5)
  62:src/../h/list.hpp ****         Node* curr = head, *prev = nullptr;
 483              		.loc 2 62 45
 484 0280 6F00C002 		j	.L27
 485              	.LVL46:
 486              	.L28:
  72:src/../h/list.hpp ****         else head = newNode;
 487              		.loc 2 72 9
 488 0284 63860604 		beqz	a3,.L29
  72:src/../h/list.hpp ****         else head = newNode;
 489              		.loc 2 72 19
 490 0288 23B4A600 		sd	a0,8(a3)
 491              	.L30:
  74:src/../h/list.hpp ****         else prev->next = newNode;
 492              		.loc 2 74 9
 493 028c 63880704 		beqz	a5,.L31
GAS LISTING /tmp/ccY8L7Nz.s 			page 15


  74:src/../h/list.hpp ****         else prev->next = newNode;
 494              		.loc 2 74 20
 495 0290 2334F500 		sd	a5,8(a0)
  74:src/../h/list.hpp ****         else prev->next = newNode;
 496              		.loc 2 74 59
 497 0294 03B70700 		ld	a4,0(a5)
  74:src/../h/list.hpp ****         else prev->next = newNode;
 498              		.loc 2 74 88
 499 0298 83360500 		ld	a3,0(a0)
 500              	.LVL47:
  74:src/../h/list.hpp ****         else prev->next = newNode;
 501              		.loc 2 74 65
 502 029c 83370700 		ld	a5,0(a4)
 503              	.LVL48:
 504 02a0 83B60600 		ld	a3,0(a3)
 505 02a4 B387D740 		sub	a5,a5,a3
  74:src/../h/list.hpp ****         else prev->next = newNode;
 506              		.loc 2 74 42
 507 02a8 2330F700 		sd	a5,0(a4)
 508              	.LVL49:
 509              	.L27:
 510              	.LBE131:
 511              	.LBE130:
  40:src/scheduler.cpp **** }
 512              		.loc 1 40 5 is_stmt 1
  40:src/scheduler.cpp **** }
 513              		.loc 1 40 18 is_stmt 0
 514 02ac 97000000 		call	_ZN3TCB8dispatchEv@plt
 514      E7800000 
 515              	.LVL50:
  41:src/scheduler.cpp **** 
 516              		.loc 1 41 1
 517 02b4 83308102 		ld	ra,40(sp)
 518              		.cfi_remember_state
 519              		.cfi_restore 1
 520 02b8 03340102 		ld	s0,32(sp)
 521              		.cfi_restore 8
 522              		.cfi_def_cfa 2, 48
 523 02bc 83348101 		ld	s1,24(sp)
 524              		.cfi_restore 9
 525              	.LVL51:
 526 02c0 03390101 		ld	s2,16(sp)
 527              		.cfi_restore 18
 528              	.LVL52:
 529 02c4 83398100 		ld	s3,8(sp)
 530              		.cfi_restore 19
 531              	.LVL53:
 532 02c8 13010103 		addi	sp,sp,48
 533              		.cfi_def_cfa_offset 0
 534 02cc 67800000 		jr	ra
 535              	.LVL54:
 536              	.L29:
 537              		.cfi_restore_state
 538              	.LBB137:
 539              	.LBB136:
  73:src/../h/list.hpp ****         if (curr) {newNode->next = curr; *(uint64*)(curr->data) -= *(uint64*)(newNode->data);}
 540              		.loc 2 73 14
GAS LISTING /tmp/ccY8L7Nz.s 			page 16


 541 02d0 17070000 		sd	a0,.LANCHOR0+16,a4
 541      2330A700 
 542 02d8 6FF05FFB 		j	.L30
 543              	.L31:
  75:src/../h/list.hpp ****     }
 544              		.loc 2 75 14
 545 02dc 23B4A600 		sd	a0,8(a3)
 546 02e0 6FF0DFFC 		j	.L27
 547              	.LBE136:
 548              	.LBE137:
 549              		.cfi_endproc
 550              	.LFE54:
 552              		.align	2
 553              		.globl	_ZN9Scheduler6finishEv
 555              	_ZN9Scheduler6finishEv:
 556              	.LFB55:
  43:src/scheduler.cpp ****     sleepQueue.deleteList();
 557              		.loc 1 43 26 is_stmt 1
 558              		.cfi_startproc
 559 02e4 130101FF 		addi	sp,sp,-16
 560              		.cfi_def_cfa_offset 16
 561 02e8 23341100 		sd	ra,8(sp)
 562 02ec 23308100 		sd	s0,0(sp)
 563              		.cfi_offset 1, -8
 564              		.cfi_offset 8, -16
 565 02f0 13040101 		addi	s0,sp,16
 566              		.cfi_def_cfa 8, 0
 567              	.L37:
 568              	.LBB138:
 569              	.LBB139:
 108:src/../h/list.hpp ****     }
 109:src/../h/list.hpp ****     T* getLast() {
 110:src/../h/list.hpp ****         if (!tail) return 0;
 111:src/../h/list.hpp ****         return tail->data;
 112:src/../h/list.hpp ****     }
 113:src/../h/list.hpp **** 
 114:src/../h/list.hpp ****     /*~List() {
 115:src/../h/list.hpp ****         while (head) {
 116:src/../h/list.hpp ****             Node *old = head;
 117:src/../h/list.hpp ****             head = head->next;
 118:src/../h/list.hpp ****             delete old;
 119:src/../h/list.hpp ****         }
 120:src/../h/list.hpp **** 
 121:src/../h/list.hpp ****         tail = 0;
 122:src/../h/list.hpp ****     }*/
 123:src/../h/list.hpp **** 
 124:src/../h/list.hpp ****     void deleteList() {
 125:src/../h/list.hpp ****         while (head) {
 570              		.loc 2 125 9
 571              		.loc 2 125 16 is_stmt 0
 572 02f4 17050000 		ld	a0,.LANCHOR0+16
 572      03350500 
 573              		.loc 2 125 9
 574 02fc 63000502 		beqz	a0,.L36
 575              	.LVL55:
 576              	.LBB140:
 126:src/../h/list.hpp ****             Node *old = head;
GAS LISTING /tmp/ccY8L7Nz.s 			page 17


 127:src/../h/list.hpp ****             head = head->next;
 577              		.loc 2 127 26
 578 0300 83378500 		ld	a5,8(a0)
 579              		.loc 2 127 13
 580 0304 17070000 		sd	a5,.LANCHOR0+16,a4
 580      2330F700 
 128:src/../h/list.hpp ****             delete old;
 581              		.loc 2 128 13
 582 030c E30405FE 		beqz	a0,.L37
 583              	.LVL56:
 584              	.LBB141:
 585              	.LBB142:
  31:src/../h/list.hpp ****         }
 586              		.loc 2 31 34
 587 0310 97000000 		call	_ZN15MemoryAllocator4freeEPv@plt
 587      E7800000 
 588              	.LVL57:
  32:src/../h/list.hpp **** 
 589              		.loc 2 32 9
 590 0318 6FF0DFFD 		j	.L37
 591              	.L36:
 592              	.LBE142:
 593              	.LBE141:
 594              	.LBE140:
 129:src/../h/list.hpp ****         }
 130:src/../h/list.hpp **** 
 131:src/../h/list.hpp ****         tail = 0;
 595              		.loc 2 131 9
 596 031c 97070000 		sd	zero,.LANCHOR0+24,a5
 596      23B00700 
 597              	.L40:
 598              	.LBE139:
 599              	.LBE138:
 600              	.LBB143:
 601              	.LBB144:
 125:src/../h/list.hpp ****             Node *old = head;
 602              		.loc 2 125 9 is_stmt 1
 125:src/../h/list.hpp ****             Node *old = head;
 603              		.loc 2 125 16 is_stmt 0
 604 0324 17050000 		ld	a0,.LANCHOR0
 604      03350500 
 125:src/../h/list.hpp ****             Node *old = head;
 605              		.loc 2 125 9
 606 032c 63000502 		beqz	a0,.L39
 607              	.LVL58:
 608              	.LBB145:
 127:src/../h/list.hpp ****             delete old;
 609              		.loc 2 127 26
 610 0330 83378500 		ld	a5,8(a0)
 127:src/../h/list.hpp ****             delete old;
 611              		.loc 2 127 13
 612 0334 17070000 		sd	a5,.LANCHOR0,a4
 612      2330F700 
 128:src/../h/list.hpp ****         }
 613              		.loc 2 128 13
 614 033c E30405FE 		beqz	a0,.L40
 615              	.LVL59:
GAS LISTING /tmp/ccY8L7Nz.s 			page 18


 616              	.LBB146:
 617              	.LBB147:
  31:src/../h/list.hpp ****         }
 618              		.loc 2 31 34
 619 0340 97000000 		call	_ZN15MemoryAllocator4freeEPv@plt
 619      E7800000 
 620              	.LVL60:
  32:src/../h/list.hpp **** 
 621              		.loc 2 32 9
 622 0348 6FF0DFFD 		j	.L40
 623              	.L39:
 624              	.LBE147:
 625              	.LBE146:
 626              	.LBE145:
 627              		.loc 2 131 9
 628 034c 97070000 		sd	zero,.LANCHOR0+8,a5
 628      23B00700 
 629              	.LBE144:
 630              	.LBE143:
 631              		.loc 1 46 1
 632 0354 83308100 		ld	ra,8(sp)
 633              		.cfi_restore 1
 634 0358 03340100 		ld	s0,0(sp)
 635              		.cfi_restore 8
 636              		.cfi_def_cfa 2, 16
 637 035c 13010101 		addi	sp,sp,16
 638              		.cfi_def_cfa_offset 0
 639 0360 67800000 		jr	ra
 640              		.cfi_endproc
 641              	.LFE55:
 643              		.align	2
 645              	_GLOBAL__sub_I__ZN9Scheduler10readyQueueE:
 646              	.LFB80:
 647              		.loc 1 46 1 is_stmt 1
 648              		.cfi_startproc
 649 0364 130101FF 		addi	sp,sp,-16
 650              		.cfi_def_cfa_offset 16
 651 0368 23341100 		sd	ra,8(sp)
 652 036c 23308100 		sd	s0,0(sp)
 653              		.cfi_offset 1, -8
 654              		.cfi_offset 8, -16
 655 0370 13040101 		addi	s0,sp,16
 656              		.cfi_def_cfa 8, 0
 657              		.loc 1 46 1 is_stmt 0
 658 0374 B7050100 		li	a1,65536
 659 0378 9385F5FF 		addi	a1,a1,-1
 660 037c 13051000 		li	a0,1
 661 0380 97000000 		call	_Z41__static_initialization_and_destruction_0ii
 661      E7800000 
 662              	.LVL61:
 663 0388 83308100 		ld	ra,8(sp)
 664              		.cfi_restore 1
 665 038c 03340100 		ld	s0,0(sp)
 666              		.cfi_restore 8
 667              		.cfi_def_cfa 2, 16
 668 0390 13010101 		addi	sp,sp,16
 669              		.cfi_def_cfa_offset 0
GAS LISTING /tmp/ccY8L7Nz.s 			page 19


 670 0394 67800000 		jr	ra
 671              		.cfi_endproc
 672              	.LFE80:
 674              		.section	.init_array,"aw"
 675              		.align	3
 676 0000 00000000 		.dword	_GLOBAL__sub_I__ZN9Scheduler10readyQueueE
 676      00000000 
 677              		.globl	_ZN9Scheduler10sleepQueueE
 678              		.globl	_ZN9Scheduler10readyQueueE
 679              		.bss
 680              		.align	3
 681              		.set	.LANCHOR0,. + 0
 684              	_ZN9Scheduler10readyQueueE:
 685 0000 00000000 		.zero	16
 685      00000000 
 685      00000000 
 685      00000000 
 688              	_ZN9Scheduler10sleepQueueE:
 689 0010 00000000 		.zero	16
 689      00000000 
 689      00000000 
 689      00000000 
 690              		.text
 691              	.Letext0:
 692              		.file 5 "src/../h/../lib/hw.h"
 693              		.file 6 "src/../h/memory_allocator.hpp"
 694              		.file 7 "src/../h/syscall_c.h"
GAS LISTING /tmp/ccY8L7Nz.s 			page 20

