GAS LISTING /tmp/ccALhBib.s 			page 1


   1              		.file	"scheduler.cpp"
   2              		.option pic
   3              		.option norelax
   4              		.text
   5              	.Ltext0:
   6              		.align	2
   8              	_Z41__static_initialization_and_destruction_0ii:
   9              	.LFB79:
  10              		.file 1 "src/scheduler.cpp"
   1:src/scheduler.cpp **** //
   2:src/scheduler.cpp **** // Created by os on 9/9/22.
   3:src/scheduler.cpp **** //
   4:src/scheduler.cpp **** 
   5:src/scheduler.cpp **** #include "../h/scheduler.hpp"
   6:src/scheduler.cpp **** //#include "../h/list.hpp"
   7:src/scheduler.cpp **** 
   8:src/scheduler.cpp **** List<TCB> Scheduler::readyQueue;
   9:src/scheduler.cpp **** List<Scheduler::sleepNode> Scheduler::sleepQueue;
  10:src/scheduler.cpp **** 
  11:src/scheduler.cpp **** TCB* Scheduler::get() {
  12:src/scheduler.cpp ****     //return readyQueue.takeFirst();
  13:src/scheduler.cpp ****     TCB* ret = readyQueue.takeFirst();
  14:src/scheduler.cpp ****     //readyQueue.printStatus();
  15:src/scheduler.cpp ****     return ret;
  16:src/scheduler.cpp **** }
  17:src/scheduler.cpp **** 
  18:src/scheduler.cpp **** void Scheduler::put(TCB* tcb) {
  19:src/scheduler.cpp ****     //return readyQueue.putLast(tcb);
  20:src/scheduler.cpp ****     readyQueue.putLast(tcb);
  21:src/scheduler.cpp ****     //putc('a');
  22:src/scheduler.cpp ****     //readyQueue.printStatus();
  23:src/scheduler.cpp **** }
  24:src/scheduler.cpp **** 
  25:src/scheduler.cpp **** void Scheduler::timerInterrupt() {
  26:src/scheduler.cpp ****     //__putc('a');
  27:src/scheduler.cpp ****     sleepNode *first = sleepQueue.getFirst();
  28:src/scheduler.cpp ****     if (!first) return;
  29:src/scheduler.cpp ****     first->time--;
  30:src/scheduler.cpp ****     while(first) {
  31:src/scheduler.cpp ****         if (first->time != 0) break;
  32:src/scheduler.cpp ****         sleepQueue.takeFirst();
  33:src/scheduler.cpp ****         first->thread->setBlocked(false);
  34:src/scheduler.cpp ****         Scheduler::put(first->thread);
  35:src/scheduler.cpp ****         delete first;
  36:src/scheduler.cpp ****         first = sleepQueue.getFirst();
  37:src/scheduler.cpp ****     }
  38:src/scheduler.cpp **** }
  39:src/scheduler.cpp **** 
  40:src/scheduler.cpp **** void Scheduler::timeSleep(time_t time) {
  41:src/scheduler.cpp ****     TCB* old = TCB::running;
  42:src/scheduler.cpp ****     old->setBlocked(true);
  43:src/scheduler.cpp ****     sleepNode* sn = new sleepNode(time, old);
  44:src/scheduler.cpp ****     sleepQueue.putSorted(sn);
  45:src/scheduler.cpp ****     TCB::dispatch();
  46:src/scheduler.cpp **** }
  11              		.loc 1 46 1
  12              		.cfi_startproc
GAS LISTING /tmp/ccALhBib.s 			page 2


  13              	.LVL0:
  14 0000 130101FF 		addi	sp,sp,-16
  15              		.cfi_def_cfa_offset 16
  16 0004 23348100 		sd	s0,8(sp)
  17              		.cfi_offset 8, -8
  18 0008 13040101 		addi	s0,sp,16
  19              		.cfi_def_cfa 8, 0
  20              		.loc 1 46 1 is_stmt 0
  21 000c 93071000 		li	a5,1
  22 0010 6308F500 		beq	a0,a5,.L4
  23              	.L1:
  24 0014 03348100 		ld	s0,8(sp)
  25              		.cfi_remember_state
  26              		.cfi_restore 8
  27              		.cfi_def_cfa 2, 16
  28 0018 13010101 		addi	sp,sp,16
  29              		.cfi_def_cfa_offset 0
  30 001c 67800000 		jr	ra
  31              	.L4:
  32              		.cfi_restore_state
  33              		.loc 1 46 1 discriminator 1
  34 0020 B7070100 		li	a5,65536
  35 0024 9387F7FF 		addi	a5,a5,-1
  36 0028 E396F5FE 		bne	a1,a5,.L1
  37              	.LVL1:
  38              	.LBB60:
  39              	.LBB61:
  40              	.LBB62:
  41              		.file 2 "src/../h/list.hpp"
   1:src/../h/list.hpp **** //
   2:src/../h/list.hpp **** // Created by os on 9/6/22.
   3:src/../h/list.hpp **** //
   4:src/../h/list.hpp **** 
   5:src/../h/list.hpp **** #ifndef OSMIUM_LIST_H
   6:src/../h/list.hpp **** #define OSMIUM_LIST_H
   7:src/../h/list.hpp **** 
   8:src/../h/list.hpp **** #include "../lib/console.h"
   9:src/../h/list.hpp **** //#include "../h/print.hpp"
  10:src/../h/list.hpp **** 
  11:src/../h/list.hpp **** #include "__print.hpp"
  12:src/../h/list.hpp **** #include "memory_allocator.hpp"
  13:src/../h/list.hpp **** 
  14:src/../h/list.hpp **** template <typename T>
  15:src/../h/list.hpp **** class List {
  16:src/../h/list.hpp **** private:
  17:src/../h/list.hpp ****     struct Node {
  18:src/../h/list.hpp ****         T *data;
  19:src/../h/list.hpp ****         Node *next;
  20:src/../h/list.hpp **** 
  21:src/../h/list.hpp ****         Node(T *data, Node *next) : data(data), next(next) {}
  22:src/../h/list.hpp **** 
  23:src/../h/list.hpp ****         void* operator new(size_t size) {
  24:src/../h/list.hpp ****             return MemoryAllocator::allocate(size);
  25:src/../h/list.hpp ****         }
  26:src/../h/list.hpp **** 
  27:src/../h/list.hpp ****         void* operator new[](size_t size) {
  28:src/../h/list.hpp ****             return MemoryAllocator::allocate(size);
GAS LISTING /tmp/ccALhBib.s 			page 3


  29:src/../h/list.hpp ****         }
  30:src/../h/list.hpp **** 
  31:src/../h/list.hpp ****         void operator delete(void* ptr) {
  32:src/../h/list.hpp ****             MemoryAllocator::free(ptr);
  33:src/../h/list.hpp ****         }
  34:src/../h/list.hpp **** 
  35:src/../h/list.hpp ****         void operator delete[](void* ptr) {
  36:src/../h/list.hpp ****             MemoryAllocator::free(ptr);
  37:src/../h/list.hpp ****         }
  38:src/../h/list.hpp ****     };
  39:src/../h/list.hpp **** 
  40:src/../h/list.hpp ****     Node *head, *tail;
  41:src/../h/list.hpp **** public:
  42:src/../h/list.hpp ****     List() : head(0), tail(0) {}
  42              		.loc 2 42 29
  43 002c 97070000 		lla	a5,.LANCHOR0
  43      93870700 
  44 0034 23B00700 		sd	zero,0(a5)
  45 0038 23B40700 		sd	zero,8(a5)
  46              	.LVL2:
  47              	.LBE62:
  48              	.LBE61:
  49              	.LBE60:
  50              	.LBB63:
  51              	.LBB64:
  52              	.LBB65:
  53 003c 23B80700 		sd	zero,16(a5)
  54 0040 23BC0700 		sd	zero,24(a5)
  55              	.LVL3:
  56              	.LBE65:
  57              	.LBE64:
  58              	.LBE63:
  59              		.loc 1 46 1
  60 0044 6FF01FFD 		j	.L1
  61              		.cfi_endproc
  62              	.LFE79:
  64              		.align	2
  65              		.globl	_ZN9Scheduler3getEv
  67              	_ZN9Scheduler3getEv:
  68              	.LFB52:
  11:src/scheduler.cpp ****     //return readyQueue.takeFirst();
  69              		.loc 1 11 23 is_stmt 1
  70              		.cfi_startproc
  71 0048 130101FE 		addi	sp,sp,-32
  72              		.cfi_def_cfa_offset 32
  73 004c 233C1100 		sd	ra,24(sp)
  74 0050 23388100 		sd	s0,16(sp)
  75 0054 23349100 		sd	s1,8(sp)
  76              		.cfi_offset 1, -8
  77              		.cfi_offset 8, -16
  78              		.cfi_offset 9, -24
  79 0058 13040102 		addi	s0,sp,32
  80              		.cfi_def_cfa 8, 0
  13:src/scheduler.cpp ****     //readyQueue.printStatus();
  81              		.loc 1 13 5
  82              	.LVL4:
  83              	.LBB66:
GAS LISTING /tmp/ccALhBib.s 			page 4


  84              	.LBB67:
  43:src/../h/list.hpp ****     List(const List<T> &) = delete;
  44:src/../h/list.hpp ****     //List(List<T> &&) = delete;
  45:src/../h/list.hpp ****     List<T> &operator=(const List<T> &) = delete;
  46:src/../h/list.hpp **** 
  47:src/../h/list.hpp ****     void putFirst(T *data) {
  48:src/../h/list.hpp ****         Node *newNode = new Node(data, head);
  49:src/../h/list.hpp ****         head = newNode;
  50:src/../h/list.hpp ****         if (!tail) tail = head;
  51:src/../h/list.hpp ****     }
  52:src/../h/list.hpp **** 
  53:src/../h/list.hpp ****     void putLast(T *data) {
  54:src/../h/list.hpp ****         /*__putc('i');
  55:src/../h/list.hpp ****         __putc('l');
  56:src/../h/list.hpp ****         __putc('\n');*/
  57:src/../h/list.hpp ****         Node *newNode = new Node(data, 0);
  58:src/../h/list.hpp ****         if (!tail) head = tail = newNode;
  59:src/../h/list.hpp ****         else {
  60:src/../h/list.hpp ****             tail->next = newNode;
  61:src/../h/list.hpp ****             tail = newNode;
  62:src/../h/list.hpp ****         }
  63:src/../h/list.hpp ****         //printStatus();
  64:src/../h/list.hpp ****     }
  65:src/../h/list.hpp **** 
  66:src/../h/list.hpp ****     void putSorted(T* data) {
  67:src/../h/list.hpp ****         Node *newNode = new Node(data, 0);
  68:src/../h/list.hpp ****         if (!head) { head = tail = newNode; return; }
  69:src/../h/list.hpp ****         Node* curr = head;
  70:src/../h/list.hpp ****         uint64 nodeTime = *(uint64*)data;
  71:src/../h/list.hpp ****         uint64 currTime = *(uint64*)(curr->data);
  72:src/../h/list.hpp ****         if (nodeTime < currTime) { *(uint64*)(curr->data) -= nodeTime; putFirst(data); return; }
  73:src/../h/list.hpp ****         while (curr->next && *(uint64*)data > *(uint64*)(curr->data)) {
  74:src/../h/list.hpp ****             curr = curr->next;
  75:src/../h/list.hpp ****             *(uint64*)data -= *(uint64*)curr->data;
  76:src/../h/list.hpp ****         }
  77:src/../h/list.hpp ****         newNode->next = curr->next;
  78:src/../h/list.hpp ****         curr->next = newNode;
  79:src/../h/list.hpp ****         if (!curr->next) tail = newNode;
  80:src/../h/list.hpp ****     }
  81:src/../h/list.hpp **** 
  82:src/../h/list.hpp ****     T* takeFirst() {
  83:src/../h/list.hpp ****         /*__putc('o');
  84:src/../h/list.hpp ****         __putc('f');
  85:src/../h/list.hpp ****         __putc('\n');*/
  86:src/../h/list.hpp ****         if (!head) return 0;
  85              		.loc 2 86 14 is_stmt 0
  86 005c 17050000 		ld	a0,.LANCHOR0
  86      03350500 
  87              		.loc 2 86 9
  88 0064 63020504 		beqz	a0,.L8
  87:src/../h/list.hpp **** 
  88:src/../h/list.hpp ****         T* ret = head->data;
  89              		.loc 2 88 12
  90 0068 83340500 		ld	s1,0(a0)
  91              	.LVL5:
  89:src/../h/list.hpp ****         Node* old = head;
  90:src/../h/list.hpp ****         head = head->next;
GAS LISTING /tmp/ccALhBib.s 			page 5


  92              		.loc 2 90 22
  93 006c 83378500 		ld	a5,8(a0)
  94              		.loc 2 90 9
  95 0070 17070000 		sd	a5,.LANCHOR0,a4
  95      2330F700 
  91:src/../h/list.hpp ****         if (!head) tail = 0;
  96              		.loc 2 91 9
  97 0078 63820702 		beqz	a5,.L10
  98              	.L7:
  99              	.LVL6:
 100              	.LBB68:
 101              	.LBB69:
  32:src/../h/list.hpp ****         }
 102              		.loc 2 32 34
 103 007c 97000000 		call	_ZN15MemoryAllocator4freeEPv@plt
 103      E7800000 
 104              	.LVL7:
 105              	.L5:
 106              	.LBE69:
 107              	.LBE68:
 108              	.LBE67:
 109              	.LBE66:
  16:src/scheduler.cpp **** 
 110              		.loc 1 16 1
 111 0084 13850400 		mv	a0,s1
 112 0088 83308101 		ld	ra,24(sp)
 113              		.cfi_remember_state
 114              		.cfi_restore 1
 115 008c 03340101 		ld	s0,16(sp)
 116              		.cfi_restore 8
 117              		.cfi_def_cfa 2, 32
 118 0090 83348100 		ld	s1,8(sp)
 119              		.cfi_restore 9
 120 0094 13010102 		addi	sp,sp,32
 121              		.cfi_def_cfa_offset 0
 122 0098 67800000 		jr	ra
 123              	.LVL8:
 124              	.L10:
 125              		.cfi_restore_state
 126              	.LBB71:
 127              	.LBB70:
 128              		.loc 2 91 20
 129 009c 97070000 		sd	zero,.LANCHOR0+8,a5
 129      23B00700 
 130 00a4 6FF09FFD 		j	.L7
 131              	.LVL9:
 132              	.L8:
  86:src/../h/list.hpp **** 
 133              		.loc 2 86 27
 134 00a8 93040500 		mv	s1,a0
 135              	.LVL10:
 136              	.LBE70:
 137              	.LBE71:
  15:src/scheduler.cpp **** }
 138              		.loc 1 15 5 is_stmt 1
  15:src/scheduler.cpp **** }
 139              		.loc 1 15 12 is_stmt 0
GAS LISTING /tmp/ccALhBib.s 			page 6


 140 00ac 6FF09FFD 		j	.L5
 141              		.cfi_endproc
 142              	.LFE52:
 144              		.align	2
 145              		.globl	_ZN9Scheduler3putEP3TCB
 147              	_ZN9Scheduler3putEP3TCB:
 148              	.LFB53:
  18:src/scheduler.cpp ****     //return readyQueue.putLast(tcb);
 149              		.loc 1 18 31 is_stmt 1
 150              		.cfi_startproc
 151              	.LVL11:
 152 00b0 130101FE 		addi	sp,sp,-32
 153              		.cfi_def_cfa_offset 32
 154 00b4 233C1100 		sd	ra,24(sp)
 155 00b8 23388100 		sd	s0,16(sp)
 156 00bc 23349100 		sd	s1,8(sp)
 157              		.cfi_offset 1, -8
 158              		.cfi_offset 8, -16
 159              		.cfi_offset 9, -24
 160 00c0 13040102 		addi	s0,sp,32
 161              		.cfi_def_cfa 8, 0
 162 00c4 93040500 		mv	s1,a0
  20:src/scheduler.cpp ****     //putc('a');
 163              		.loc 1 20 5
 164              	.LVL12:
 165              	.LBB72:
 166              	.LBB73:
 167              	.LBB74:
 168              	.LBB75:
  24:src/../h/list.hpp ****         }
 169              		.loc 2 24 45 is_stmt 0
 170 00c8 13050001 		li	a0,16
 171              	.LVL13:
 172 00cc 97000000 		call	_ZN15MemoryAllocator8allocateEm@plt
 172      E7800000 
 173              	.LVL14:
 174              	.LBE75:
 175              	.LBE74:
 176              	.LBB76:
 177              	.LBB77:
  21:src/../h/list.hpp **** 
 178              		.loc 2 21 58
 179 00d4 23309500 		sd	s1,0(a0)
 180 00d8 23340500 		sd	zero,8(a0)
 181              	.LVL15:
 182              	.LBE77:
 183              	.LBE76:
  58:src/../h/list.hpp ****         else {
 184              		.loc 2 58 14
 185 00dc 97070000 		ld	a5,.LANCHOR0+8
 185      83B70700 
  58:src/../h/list.hpp ****         else {
 186              		.loc 2 58 9
 187 00e4 63820702 		beqz	a5,.L15
  60:src/../h/list.hpp ****             tail = newNode;
 188              		.loc 2 60 13
 189 00e8 23B4A700 		sd	a0,8(a5)
GAS LISTING /tmp/ccALhBib.s 			page 7


  61:src/../h/list.hpp ****         }
 190              		.loc 2 61 13
 191 00ec 97070000 		sd	a0,.LANCHOR0+8,a5
 191      23B0A700 
 192              	.LVL16:
 193              	.L11:
 194              	.LBE73:
 195              	.LBE72:
  23:src/scheduler.cpp **** 
 196              		.loc 1 23 1
 197 00f4 83308101 		ld	ra,24(sp)
 198              		.cfi_remember_state
 199              		.cfi_restore 1
 200 00f8 03340101 		ld	s0,16(sp)
 201              		.cfi_restore 8
 202              		.cfi_def_cfa 2, 32
 203 00fc 83348100 		ld	s1,8(sp)
 204              		.cfi_restore 9
 205              	.LVL17:
 206 0100 13010102 		addi	sp,sp,32
 207              		.cfi_def_cfa_offset 0
 208 0104 67800000 		jr	ra
 209              	.LVL18:
 210              	.L15:
 211              		.cfi_restore_state
 212              	.LBB79:
 213              	.LBB78:
  58:src/../h/list.hpp ****         else {
 214              		.loc 2 58 20
 215 0108 97070000 		lla	a5,.LANCHOR0
 215      93870700 
 216 0110 23B4A700 		sd	a0,8(a5)
 217 0114 23B0A700 		sd	a0,0(a5)
 218 0118 6FF0DFFD 		j	.L11
 219              	.LBE78:
 220              	.LBE79:
 221              		.cfi_endproc
 222              	.LFE53:
 224              		.align	2
 225              		.globl	_ZN9Scheduler14timerInterruptEv
 227              	_ZN9Scheduler14timerInterruptEv:
 228              	.LFB54:
  25:src/scheduler.cpp ****     //__putc('a');
 229              		.loc 1 25 34 is_stmt 1
 230              		.cfi_startproc
  27:src/scheduler.cpp ****     if (!first) return;
 231              		.loc 1 27 5
 232              	.LVL19:
 233              	.LBB92:
 234              	.LBB93:
  92:src/../h/list.hpp ****         delete old;
  93:src/../h/list.hpp ****         //printStatus();
  94:src/../h/list.hpp **** 
  95:src/../h/list.hpp ****         return ret;
  96:src/../h/list.hpp ****     }
  97:src/../h/list.hpp **** 
  98:src/../h/list.hpp ****     T* takeLast() {
GAS LISTING /tmp/ccALhBib.s 			page 8


  99:src/../h/list.hpp ****         if (!head) return 0;
 100:src/../h/list.hpp **** 
 101:src/../h/list.hpp ****         Node* curr = head, *prev = 0;
 102:src/../h/list.hpp ****         while (curr->next) prev = curr, curr = curr->next;
 103:src/../h/list.hpp **** 
 104:src/../h/list.hpp ****         if(prev) prev->next = 0;
 105:src/../h/list.hpp ****         else head = 0;
 106:src/../h/list.hpp ****         tail = prev;
 107:src/../h/list.hpp ****         T* ret = curr->data;
 108:src/../h/list.hpp **** 
 109:src/../h/list.hpp ****         return ret;
 110:src/../h/list.hpp ****     }
 111:src/../h/list.hpp **** 
 112:src/../h/list.hpp ****     T* getFirst() {
 113:src/../h/list.hpp ****         if(!head) return 0;
 235              		.loc 2 113 13 is_stmt 0
 236 011c 97070000 		ld	a5,.LANCHOR0+16
 236      83B70700 
 237              		.loc 2 113 9
 238 0124 6388070A 		beqz	a5,.L22
 239              	.LBE93:
 240              	.LBE92:
  25:src/scheduler.cpp ****     //__putc('a');
 241              		.loc 1 25 34
 242 0128 130101FE 		addi	sp,sp,-32
 243              		.cfi_def_cfa_offset 32
 244 012c 233C1100 		sd	ra,24(sp)
 245 0130 23388100 		sd	s0,16(sp)
 246 0134 23349100 		sd	s1,8(sp)
 247              		.cfi_offset 1, -8
 248              		.cfi_offset 8, -16
 249              		.cfi_offset 9, -24
 250 0138 13040102 		addi	s0,sp,32
 251              		.cfi_def_cfa 8, 0
 252              	.LBB95:
 253              	.LBB94:
 114:src/../h/list.hpp ****         return head->data;
 254              		.loc 2 114 22
 255 013c 83B40700 		ld	s1,0(a5)
 256              	.LVL20:
 257              	.LBE94:
 258              	.LBE95:
  28:src/scheduler.cpp ****     first->time--;
 259              		.loc 1 28 5 is_stmt 1
 260 0140 63800408 		beqz	s1,.L16
  29:src/scheduler.cpp ****     while(first) {
 261              		.loc 1 29 5
  29:src/scheduler.cpp ****     while(first) {
 262              		.loc 1 29 12 is_stmt 0
 263 0144 83B70400 		ld	a5,0(s1)
  29:src/scheduler.cpp ****     while(first) {
 264              		.loc 1 29 16
 265 0148 9387F7FF 		addi	a5,a5,-1
 266 014c 23B0F400 		sd	a5,0(s1)
 267 0150 6F004004 		j	.L20
 268              	.LVL21:
 269              	.L25:
GAS LISTING /tmp/ccALhBib.s 			page 9


 270              	.LBB96:
 271              	.LBB97:
  91:src/../h/list.hpp ****         delete old;
 272              		.loc 2 91 20
 273 0154 97070000 		sd	zero,.LANCHOR0+24,a5
 273      23B00700 
 274              	.L19:
 275              	.LVL22:
 276              	.LBB98:
 277              	.LBB99:
  32:src/../h/list.hpp ****         }
 278              		.loc 2 32 34
 279 015c 97000000 		call	_ZN15MemoryAllocator4freeEPv@plt
 279      E7800000 
 280              	.LVL23:
 281              	.L18:
 282              	.LBE99:
 283              	.LBE98:
 284              	.LBE97:
 285              	.LBE96:
  33:src/scheduler.cpp ****         Scheduler::put(first->thread);
 286              		.loc 1 33 9 is_stmt 1
  33:src/scheduler.cpp ****         Scheduler::put(first->thread);
 287              		.loc 1 33 16 is_stmt 0
 288 0164 83B78400 		ld	a5,8(s1)
 289              	.LVL24:
 290              	.LBB101:
 291              	.LBB102:
 292              		.file 3 "src/../h/tcb.hpp"
   1:src/../h/tcb.hpp **** //
   2:src/../h/tcb.hpp **** // Created by os on 9/9/22.
   3:src/../h/tcb.hpp **** //
   4:src/../h/tcb.hpp **** 
   5:src/../h/tcb.hpp **** #ifndef OSMIUM_TCB_HPP
   6:src/../h/tcb.hpp **** #define OSMIUM_TCB_HPP
   7:src/../h/tcb.hpp **** 
   8:src/../h/tcb.hpp **** #include "../lib/hw.h"
   9:src/../h/tcb.hpp **** //#include "../h/scheduler.hpp"
  10:src/../h/tcb.hpp **** #include "riscv.hpp"
  11:src/../h/tcb.hpp **** #include "memory_allocator.hpp"
  12:src/../h/tcb.hpp **** 
  13:src/../h/tcb.hpp **** class Scheduler;
  14:src/../h/tcb.hpp **** 
  15:src/../h/tcb.hpp **** 
  16:src/../h/tcb.hpp **** class TCB {
  17:src/../h/tcb.hpp **** public:
  18:src/../h/tcb.hpp ****     using Body = void (*)(void*);
  19:src/../h/tcb.hpp **** 
  20:src/../h/tcb.hpp ****     static TCB* createTCB(Body body, void* args);
  21:src/../h/tcb.hpp **** 
  22:src/../h/tcb.hpp ****     static TCB* createDeactivatedTCB(Body body, void* args);
  23:src/../h/tcb.hpp **** 
  24:src/../h/tcb.hpp ****     static TCB* createSupervisorTCB(Body body, void* args);
  25:src/../h/tcb.hpp **** 
  26:src/../h/tcb.hpp ****     bool isFinished() const { return finished; }
  27:src/../h/tcb.hpp **** 
  28:src/../h/tcb.hpp ****     void setFinished(bool val) { finished = val; }
GAS LISTING /tmp/ccALhBib.s 			page 10


  29:src/../h/tcb.hpp **** 
  30:src/../h/tcb.hpp ****     bool isBlocked() const { return blocked; }
  31:src/../h/tcb.hpp **** 
  32:src/../h/tcb.hpp ****     void setBlocked(bool val) { blocked = val; }
 293              		.loc 3 32 33 is_stmt 1
 294              		.loc 3 32 41 is_stmt 0
 295 0168 A38C0700 		sb	zero,25(a5)
 296              	.LVL25:
 297              	.LBE102:
 298              	.LBE101:
  34:src/scheduler.cpp ****         delete first;
 299              		.loc 1 34 9 is_stmt 1
  34:src/scheduler.cpp ****         delete first;
 300              		.loc 1 34 23 is_stmt 0
 301 016c 03B58400 		ld	a0,8(s1)
 302 0170 97000000 		call	_ZN9Scheduler3putEP3TCB
 302      E7800000 
 303              	.LVL26:
  35:src/scheduler.cpp ****         first = sleepQueue.getFirst();
 304              		.loc 1 35 9 is_stmt 1
 305              	.LBB103:
 306              	.LBB104:
 307              		.file 4 "src/../h/scheduler.hpp"
   1:src/../h/scheduler.hpp **** //
   2:src/../h/scheduler.hpp **** // Created by os on 9/9/22.
   3:src/../h/scheduler.hpp **** //
   4:src/../h/scheduler.hpp **** 
   5:src/../h/scheduler.hpp **** #ifndef OSMIUM_SCHEDULER_HPP
   6:src/../h/scheduler.hpp **** #define OSMIUM_SCHEDULER_HPP
   7:src/../h/scheduler.hpp **** 
   8:src/../h/scheduler.hpp **** #include "syscall_c.h"
   9:src/../h/scheduler.hpp **** #include "list.hpp"
  10:src/../h/scheduler.hpp **** 
  11:src/../h/scheduler.hpp **** #include "tcb.hpp"
  12:src/../h/scheduler.hpp **** 
  13:src/../h/scheduler.hpp **** class Scheduler {
  14:src/../h/scheduler.hpp **** private:
  15:src/../h/scheduler.hpp ****     static List<TCB> readyQueue;
  16:src/../h/scheduler.hpp **** 
  17:src/../h/scheduler.hpp ****     struct sleepNode {
  18:src/../h/scheduler.hpp ****         time_t time;
  19:src/../h/scheduler.hpp ****         TCB* thread;
  20:src/../h/scheduler.hpp **** 
  21:src/../h/scheduler.hpp ****         sleepNode(time_t time, TCB* thread) : time(time), thread(thread) {}
  22:src/../h/scheduler.hpp **** 
  23:src/../h/scheduler.hpp ****         void* operator new(size_t size) {
  24:src/../h/scheduler.hpp ****             return MemoryAllocator::allocate(size);
  25:src/../h/scheduler.hpp ****         }
  26:src/../h/scheduler.hpp **** 
  27:src/../h/scheduler.hpp ****         void* operator new[](size_t size) {
  28:src/../h/scheduler.hpp ****             return MemoryAllocator::allocate(size);
  29:src/../h/scheduler.hpp ****         }
  30:src/../h/scheduler.hpp **** 
  31:src/../h/scheduler.hpp ****         void operator delete(void* ptr) {
  32:src/../h/scheduler.hpp ****             MemoryAllocator::free(ptr);
 308              		.loc 4 32 13
 309              		.loc 4 32 34 is_stmt 0
GAS LISTING /tmp/ccALhBib.s 			page 11


 310 0178 13850400 		mv	a0,s1
 311 017c 97000000 		call	_ZN15MemoryAllocator4freeEPv@plt
 311      E7800000 
 312              	.LVL27:
 313              	.LBE104:
 314              	.LBE103:
  36:src/scheduler.cpp ****     }
 315              		.loc 1 36 9 is_stmt 1
 316              	.LBB105:
 317              	.LBB106:
 113:src/../h/list.hpp ****         return head->data;
 318              		.loc 2 113 13 is_stmt 0
 319 0184 97070000 		ld	a5,.LANCHOR0+16
 319      83B70700 
 113:src/../h/list.hpp ****         return head->data;
 320              		.loc 2 113 9
 321 018c 638A0702 		beqz	a5,.L16
 322              		.loc 2 114 22
 323 0190 83B40700 		ld	s1,0(a5)
 324              	.LVL28:
 325              	.L20:
 326              	.LBE106:
 327              	.LBE105:
  30:src/scheduler.cpp ****         if (first->time != 0) break;
 328              		.loc 1 30 5 is_stmt 1
  30:src/scheduler.cpp ****         if (first->time != 0) break;
 329              		.loc 1 30 11
 330 0194 63860402 		beqz	s1,.L16
  31:src/scheduler.cpp ****         sleepQueue.takeFirst();
 331              		.loc 1 31 9
  31:src/scheduler.cpp ****         sleepQueue.takeFirst();
 332              		.loc 1 31 20 is_stmt 0
 333 0198 83B70400 		ld	a5,0(s1)
  31:src/scheduler.cpp ****         sleepQueue.takeFirst();
 334              		.loc 1 31 9
 335 019c 63920702 		bnez	a5,.L16
  32:src/scheduler.cpp ****         first->thread->setBlocked(false);
 336              		.loc 1 32 9 is_stmt 1
 337              	.LVL29:
 338              	.LBB107:
 339              	.LBB100:
  86:src/../h/list.hpp **** 
 340              		.loc 2 86 14 is_stmt 0
 341 01a0 17050000 		ld	a0,.LANCHOR0+16
 341      03350500 
  86:src/../h/list.hpp **** 
 342              		.loc 2 86 9
 343 01a8 E30E05FA 		beqz	a0,.L18
 344              	.LVL30:
  90:src/../h/list.hpp ****         if (!head) tail = 0;
 345              		.loc 2 90 22
 346 01ac 83378500 		ld	a5,8(a0)
  90:src/../h/list.hpp ****         if (!head) tail = 0;
 347              		.loc 2 90 9
 348 01b0 17070000 		sd	a5,.LANCHOR0+16,a4
 348      2330F700 
 349              	.LVL31:
GAS LISTING /tmp/ccALhBib.s 			page 12


  91:src/../h/list.hpp ****         delete old;
 350              		.loc 2 91 9
 351 01b8 E39207FA 		bnez	a5,.L19
 352 01bc 6FF09FF9 		j	.L25
 353              	.LVL32:
 354              	.L16:
 355              	.LBE100:
 356              	.LBE107:
  38:src/scheduler.cpp **** 
 357              		.loc 1 38 1
 358 01c0 83308101 		ld	ra,24(sp)
 359              		.cfi_restore 1
 360 01c4 03340101 		ld	s0,16(sp)
 361              		.cfi_restore 8
 362              		.cfi_def_cfa 2, 32
 363 01c8 83348100 		ld	s1,8(sp)
 364              		.cfi_restore 9
 365              	.LVL33:
 366 01cc 13010102 		addi	sp,sp,32
 367              		.cfi_def_cfa_offset 0
 368 01d0 67800000 		jr	ra
 369              	.LVL34:
 370              	.L22:
 371 01d4 67800000 		ret
 372              		.cfi_endproc
 373              	.LFE54:
 375              		.align	2
 376              		.globl	_ZN9Scheduler9timeSleepEm
 378              	_ZN9Scheduler9timeSleepEm:
 379              	.LFB55:
  40:src/scheduler.cpp ****     TCB* old = TCB::running;
 380              		.loc 1 40 40 is_stmt 1
 381              		.cfi_startproc
 382              	.LVL35:
 383 01d8 130101FD 		addi	sp,sp,-48
 384              		.cfi_def_cfa_offset 48
 385 01dc 23341102 		sd	ra,40(sp)
 386 01e0 23308102 		sd	s0,32(sp)
 387 01e4 233C9100 		sd	s1,24(sp)
 388 01e8 23382101 		sd	s2,16(sp)
 389 01ec 23343101 		sd	s3,8(sp)
 390              		.cfi_offset 1, -8
 391              		.cfi_offset 8, -16
 392              		.cfi_offset 9, -24
 393              		.cfi_offset 18, -32
 394              		.cfi_offset 19, -40
 395 01f0 13040103 		addi	s0,sp,48
 396              		.cfi_def_cfa 8, 0
 397 01f4 13090500 		mv	s2,a0
  41:src/scheduler.cpp ****     old->setBlocked(true);
 398              		.loc 1 41 5
  41:src/scheduler.cpp ****     old->setBlocked(true);
 399              		.loc 1 41 10 is_stmt 0
 400 01f8 97070000 		la	a5,_ZN3TCB7runningE
 400      83B70700 
 401 0200 83B90700 		ld	s3,0(a5)
 402              	.LVL36:
GAS LISTING /tmp/ccALhBib.s 			page 13


  42:src/scheduler.cpp ****     sleepNode* sn = new sleepNode(time, old);
 403              		.loc 1 42 5 is_stmt 1
 404              	.LBB129:
 405              	.LBB130:
 406              		.loc 3 32 33
 407              		.loc 3 32 41 is_stmt 0
 408 0204 93071000 		li	a5,1
 409 0208 A38CF900 		sb	a5,25(s3)
 410              	.LVL37:
 411              	.LBE130:
 412              	.LBE129:
  43:src/scheduler.cpp ****     sleepQueue.putSorted(sn);
 413              		.loc 1 43 5 is_stmt 1
 414              	.LBB131:
 415              	.LBB132:
  24:src/../h/scheduler.hpp ****         }
 416              		.loc 4 24 13
  24:src/../h/scheduler.hpp ****         }
 417              		.loc 4 24 45 is_stmt 0
 418 020c 13050001 		li	a0,16
 419              	.LVL38:
 420 0210 97000000 		call	_ZN15MemoryAllocator8allocateEm@plt
 420      E7800000 
 421              	.LVL39:
 422 0218 93040500 		mv	s1,a0
 423              	.LVL40:
 424              	.LBE132:
 425              	.LBE131:
 426              	.LBB133:
 427              	.LBB134:
  21:src/../h/scheduler.hpp **** 
 428              		.loc 4 21 72
 429 021c 23302501 		sd	s2,0(a0)
 430 0220 23343501 		sd	s3,8(a0)
 431              	.LVL41:
 432              	.LBE134:
 433              	.LBE133:
  44:src/scheduler.cpp ****     TCB::dispatch();
 434              		.loc 1 44 5 is_stmt 1
 435              	.LBB135:
 436              	.LBB136:
 437              	.LBB137:
 438              	.LBB138:
  24:src/../h/list.hpp ****         }
 439              		.loc 2 24 45 is_stmt 0
 440 0224 13050001 		li	a0,16
 441 0228 97000000 		call	_ZN15MemoryAllocator8allocateEm@plt
 441      E7800000 
 442              	.LVL42:
 443              	.LBE138:
 444              	.LBE137:
 445              	.LBB139:
 446              	.LBB140:
  21:src/../h/list.hpp **** 
 447              		.loc 2 21 58
 448 0230 23309500 		sd	s1,0(a0)
 449 0234 23340500 		sd	zero,8(a0)
GAS LISTING /tmp/ccALhBib.s 			page 14


 450              	.LVL43:
 451              	.LBE140:
 452              	.LBE139:
  68:src/../h/list.hpp ****         Node* curr = head;
 453              		.loc 2 68 14
 454 0238 97070000 		ld	a5,.LANCHOR0+16
 454      83B70700 
  68:src/../h/list.hpp ****         Node* curr = head;
 455              		.loc 2 68 9
 456 0240 63820704 		beqz	a5,.L33
 457              	.LVL44:
  70:src/../h/list.hpp ****         uint64 currTime = *(uint64*)(curr->data);
 458              		.loc 2 70 16
 459 0244 03B60400 		ld	a2,0(s1)
 460              	.LVL45:
  71:src/../h/list.hpp ****         if (nodeTime < currTime) { *(uint64*)(curr->data) -= nodeTime; putFirst(data); return; }
 461              		.loc 2 71 44
 462 0248 83B60700 		ld	a3,0(a5)
  71:src/../h/list.hpp ****         if (nodeTime < currTime) { *(uint64*)(curr->data) -= nodeTime; putFirst(data); return; }
 463              		.loc 2 71 16
 464 024c 03B70600 		ld	a4,0(a3)
 465              	.LVL46:
  72:src/../h/list.hpp ****         while (curr->next && *(uint64*)data > *(uint64*)(curr->data)) {
 466              		.loc 2 72 9
 467 0250 6364E604 		bltu	a2,a4,.L34
 468              	.LVL47:
 469              	.L29:
  73:src/../h/list.hpp ****             curr = curr->next;
 470              		.loc 2 73 27 is_stmt 1
  73:src/../h/list.hpp ****             curr = curr->next;
 471              		.loc 2 73 22 is_stmt 0
 472 0254 83B68700 		ld	a3,8(a5)
  73:src/../h/list.hpp ****             curr = curr->next;
 473              		.loc 2 73 27
 474 0258 63800608 		beqz	a3,.L31
  73:src/../h/list.hpp ****             curr = curr->next;
 475              		.loc 2 73 45
 476 025c 03B70400 		ld	a4,0(s1)
  73:src/../h/list.hpp ****             curr = curr->next;
 477              		.loc 2 73 64
 478 0260 03B60700 		ld	a2,0(a5)
  73:src/../h/list.hpp ****             curr = curr->next;
 479              		.loc 2 73 45
 480 0264 03360600 		ld	a2,0(a2)
  73:src/../h/list.hpp ****             curr = curr->next;
 481              		.loc 2 73 27
 482 0268 6378E606 		bleu	a4,a2,.L31
 483              	.LVL48:
  75:src/../h/list.hpp ****         }
 484              		.loc 2 75 47
 485 026c 83B70600 		ld	a5,0(a3)
  75:src/../h/list.hpp ****         }
 486              		.loc 2 75 28
 487 0270 83B70700 		ld	a5,0(a5)
 488 0274 3307F740 		sub	a4,a4,a5
  75:src/../h/list.hpp ****         }
 489              		.loc 2 75 13
GAS LISTING /tmp/ccALhBib.s 			page 15


 490 0278 23B0E400 		sd	a4,0(s1)
  74:src/../h/list.hpp ****             *(uint64*)data -= *(uint64*)curr->data;
 491              		.loc 2 74 13
 492 027c 93870600 		mv	a5,a3
  73:src/../h/list.hpp ****             curr = curr->next;
 493              		.loc 2 73 9
 494 0280 6FF05FFD 		j	.L29
 495              	.LVL49:
 496              	.L33:
  68:src/../h/list.hpp ****         Node* curr = head;
 497              		.loc 2 68 22
 498 0284 97070000 		lla	a5,.LANCHOR0
 498      93870700 
 499 028c 23BCA700 		sd	a0,24(a5)
 500 0290 23B8A700 		sd	a0,16(a5)
  68:src/../h/list.hpp ****         Node* curr = head;
 501              		.loc 2 68 45
 502 0294 6F000005 		j	.L28
 503              	.LVL50:
 504              	.L34:
  72:src/../h/list.hpp ****         while (curr->next && *(uint64*)data > *(uint64*)(curr->data)) {
 505              		.loc 2 72 59
 506 0298 3307C740 		sub	a4,a4,a2
 507              	.LVL51:
  72:src/../h/list.hpp ****         while (curr->next && *(uint64*)data > *(uint64*)(curr->data)) {
 508              		.loc 2 72 36
 509 029c 23B0E600 		sd	a4,0(a3)
 510              	.LVL52:
 511              	.LBB141:
 512              	.LBB142:
 513              	.LBB143:
 514              	.LBB144:
  24:src/../h/list.hpp ****         }
 515              		.loc 2 24 45
 516 02a0 13050001 		li	a0,16
 517              	.LVL53:
 518 02a4 97000000 		call	_ZN15MemoryAllocator8allocateEm@plt
 518      E7800000 
 519              	.LVL54:
 520              	.LBE144:
 521              	.LBE143:
  48:src/../h/list.hpp ****         head = newNode;
 522              		.loc 2 48 25
 523 02ac 97070000 		lla	a5,.LANCHOR0
 523      93870700 
 524 02b4 03B70701 		ld	a4,16(a5)
 525              	.LVL55:
 526              	.LBB145:
 527              	.LBB146:
  21:src/../h/list.hpp **** 
 528              		.loc 2 21 58
 529 02b8 23309500 		sd	s1,0(a0)
 530 02bc 2334E500 		sd	a4,8(a0)
 531              	.LVL56:
 532              	.LBE146:
 533              	.LBE145:
  49:src/../h/list.hpp ****         if (!tail) tail = head;
GAS LISTING /tmp/ccALhBib.s 			page 16


 534              		.loc 2 49 9
 535 02c0 23B8A700 		sd	a0,16(a5)
  50:src/../h/list.hpp ****     }
 536              		.loc 2 50 14
 537 02c4 83B78701 		ld	a5,24(a5)
  50:src/../h/list.hpp ****     }
 538              		.loc 2 50 9
 539 02c8 639E0700 		bnez	a5,.L28
  50:src/../h/list.hpp ****     }
 540              		.loc 2 50 20
 541 02cc 97070000 		sd	a0,.LANCHOR0+24,a5
 541      23B0A700 
 542              	.LVL57:
 543              	.LBE142:
 544              	.LBE141:
  72:src/../h/list.hpp ****         while (curr->next && *(uint64*)data > *(uint64*)(curr->data)) {
 545              		.loc 2 72 88
 546 02d4 6F000001 		j	.L28
 547              	.LVL58:
 548              	.L31:
  77:src/../h/list.hpp ****         curr->next = newNode;
 549              		.loc 2 77 9
 550 02d8 2334D500 		sd	a3,8(a0)
  78:src/../h/list.hpp ****         if (!curr->next) tail = newNode;
 551              		.loc 2 78 9
 552 02dc 23B4A700 		sd	a0,8(a5)
  79:src/../h/list.hpp ****     }
 553              		.loc 2 79 9
 554 02e0 63040502 		beqz	a0,.L35
 555              	.LVL59:
 556              	.L28:
 557              	.LBE136:
 558              	.LBE135:
  45:src/scheduler.cpp **** }
 559              		.loc 1 45 5 is_stmt 1
  45:src/scheduler.cpp **** }
 560              		.loc 1 45 18 is_stmt 0
 561 02e4 97000000 		call	_ZN3TCB8dispatchEv@plt
 561      E7800000 
 562              	.LVL60:
 563              		.loc 1 46 1
 564 02ec 83308102 		ld	ra,40(sp)
 565              		.cfi_remember_state
 566              		.cfi_restore 1
 567 02f0 03340102 		ld	s0,32(sp)
 568              		.cfi_restore 8
 569              		.cfi_def_cfa 2, 48
 570 02f4 83348101 		ld	s1,24(sp)
 571              		.cfi_restore 9
 572              	.LVL61:
 573 02f8 03390101 		ld	s2,16(sp)
 574              		.cfi_restore 18
 575              	.LVL62:
 576 02fc 83398100 		ld	s3,8(sp)
 577              		.cfi_restore 19
 578              	.LVL63:
 579 0300 13010103 		addi	sp,sp,48
GAS LISTING /tmp/ccALhBib.s 			page 17


 580              		.cfi_def_cfa_offset 0
 581 0304 67800000 		jr	ra
 582              	.LVL64:
 583              	.L35:
 584              		.cfi_restore_state
 585              	.LBB148:
 586              	.LBB147:
  79:src/../h/list.hpp ****     }
 587              		.loc 2 79 26
 588 0308 97070000 		sd	a0,.LANCHOR0+24,a5
 588      23B0A700 
 589              	.LVL65:
 590 0310 6FF05FFD 		j	.L28
 591              	.LBE147:
 592              	.LBE148:
 593              		.cfi_endproc
 594              	.LFE55:
 596              		.align	2
 598              	_GLOBAL__sub_I__ZN9Scheduler10readyQueueE:
 599              	.LFB80:
 600              		.loc 1 46 1 is_stmt 1
 601              		.cfi_startproc
 602 0314 130101FF 		addi	sp,sp,-16
 603              		.cfi_def_cfa_offset 16
 604 0318 23341100 		sd	ra,8(sp)
 605 031c 23308100 		sd	s0,0(sp)
 606              		.cfi_offset 1, -8
 607              		.cfi_offset 8, -16
 608 0320 13040101 		addi	s0,sp,16
 609              		.cfi_def_cfa 8, 0
 610              		.loc 1 46 1 is_stmt 0
 611 0324 B7050100 		li	a1,65536
 612 0328 9385F5FF 		addi	a1,a1,-1
 613 032c 13051000 		li	a0,1
 614 0330 97000000 		call	_Z41__static_initialization_and_destruction_0ii
 614      E7800000 
 615              	.LVL66:
 616 0338 83308100 		ld	ra,8(sp)
 617              		.cfi_restore 1
 618 033c 03340100 		ld	s0,0(sp)
 619              		.cfi_restore 8
 620              		.cfi_def_cfa 2, 16
 621 0340 13010101 		addi	sp,sp,16
 622              		.cfi_def_cfa_offset 0
 623 0344 67800000 		jr	ra
 624              		.cfi_endproc
 625              	.LFE80:
 627              		.section	.init_array,"aw"
 628              		.align	3
 629 0000 00000000 		.dword	_GLOBAL__sub_I__ZN9Scheduler10readyQueueE
 629      00000000 
 630              		.globl	_ZN9Scheduler10sleepQueueE
 631              		.globl	_ZN9Scheduler10readyQueueE
 632              		.bss
 633              		.align	3
 634              		.set	.LANCHOR0,. + 0
 637              	_ZN9Scheduler10readyQueueE:
GAS LISTING /tmp/ccALhBib.s 			page 18


 638 0000 00000000 		.zero	16
 638      00000000 
 638      00000000 
 638      00000000 
 641              	_ZN9Scheduler10sleepQueueE:
 642 0010 00000000 		.zero	16
 642      00000000 
 642      00000000 
 642      00000000 
 643              		.text
 644              	.Letext0:
 645              		.file 5 "src/../h/../lib/hw.h"
 646              		.file 6 "src/../h/memory_allocator.hpp"
 647              		.file 7 "src/../h/syscall_c.h"
GAS LISTING /tmp/ccALhBib.s 			page 19


DEFINED SYMBOLS
                            *ABS*:0000000000000000 scheduler.cpp
     /tmp/ccALhBib.s:8      .text:0000000000000000 _Z41__static_initialization_and_destruction_0ii
     /tmp/ccALhBib.s:12     .text:0000000000000000 .L0 
     /tmp/ccALhBib.s:14     .text:0000000000000000 .L0 
     /tmp/ccALhBib.s:15     .text:0000000000000004 .L0 
     /tmp/ccALhBib.s:17     .text:0000000000000008 .L0 
     /tmp/ccALhBib.s:19     .text:000000000000000c .L0 
     /tmp/ccALhBib.s:21     .text:000000000000000c .L0 
     /tmp/ccALhBib.s:25     .text:0000000000000018 .L0 
     /tmp/ccALhBib.s:26     .text:0000000000000018 .L0 
     /tmp/ccALhBib.s:27     .text:0000000000000018 .L0 
     /tmp/ccALhBib.s:29     .text:000000000000001c .L0 
     /tmp/ccALhBib.s:32     .text:0000000000000020 .L0 
     /tmp/ccALhBib.s:34     .text:0000000000000020 .L0 
     /tmp/ccALhBib.s:43     .text:000000000000002c .L0 
     /tmp/ccALhBib.s:60     .text:0000000000000044 .L0 
     /tmp/ccALhBib.s:61     .text:0000000000000048 .L0 
     /tmp/ccALhBib.s:67     .text:0000000000000048 _ZN9Scheduler3getEv
     /tmp/ccALhBib.s:70     .text:0000000000000048 .L0 
     /tmp/ccALhBib.s:71     .text:0000000000000048 .L0 
     /tmp/ccALhBib.s:72     .text:000000000000004c .L0 
     /tmp/ccALhBib.s:76     .text:0000000000000058 .L0 
     /tmp/ccALhBib.s:77     .text:0000000000000058 .L0 
     /tmp/ccALhBib.s:78     .text:0000000000000058 .L0 
     /tmp/ccALhBib.s:80     .text:000000000000005c .L0 
     /tmp/ccALhBib.s:85     .text:000000000000005c .L0 
     /tmp/ccALhBib.s:86     .text:000000000000005c .L0 
     /tmp/ccALhBib.s:88     .text:0000000000000064 .L0 
     /tmp/ccALhBib.s:90     .text:0000000000000068 .L0 
     /tmp/ccALhBib.s:93     .text:000000000000006c .L0 
     /tmp/ccALhBib.s:95     .text:0000000000000070 .L0 
     /tmp/ccALhBib.s:97     .text:0000000000000078 .L0 
     /tmp/ccALhBib.s:103    .text:000000000000007c .L0 
     /tmp/ccALhBib.s:111    .text:0000000000000084 .L0 
     /tmp/ccALhBib.s:113    .text:000000000000008c .L0 
     /tmp/ccALhBib.s:114    .text:000000000000008c .L0 
     /tmp/ccALhBib.s:116    .text:0000000000000090 .L0 
     /tmp/ccALhBib.s:117    .text:0000000000000090 .L0 
     /tmp/ccALhBib.s:119    .text:0000000000000094 .L0 
     /tmp/ccALhBib.s:121    .text:0000000000000098 .L0 
     /tmp/ccALhBib.s:125    .text:000000000000009c .L0 
     /tmp/ccALhBib.s:129    .text:000000000000009c .L0 
     /tmp/ccALhBib.s:134    .text:00000000000000a8 .L0 
     /tmp/ccALhBib.s:139    .text:00000000000000ac .L0 
     /tmp/ccALhBib.s:140    .text:00000000000000ac .L0 
     /tmp/ccALhBib.s:141    .text:00000000000000b0 .L0 
     /tmp/ccALhBib.s:147    .text:00000000000000b0 _ZN9Scheduler3putEP3TCB
     /tmp/ccALhBib.s:150    .text:00000000000000b0 .L0 
     /tmp/ccALhBib.s:152    .text:00000000000000b0 .L0 
     /tmp/ccALhBib.s:153    .text:00000000000000b4 .L0 
     /tmp/ccALhBib.s:157    .text:00000000000000c0 .L0 
     /tmp/ccALhBib.s:158    .text:00000000000000c0 .L0 
     /tmp/ccALhBib.s:159    .text:00000000000000c0 .L0 
     /tmp/ccALhBib.s:161    .text:00000000000000c4 .L0 
     /tmp/ccALhBib.s:169    .text:00000000000000c8 .L0 
     /tmp/ccALhBib.s:170    .text:00000000000000c8 .L0 
GAS LISTING /tmp/ccALhBib.s 			page 20


     /tmp/ccALhBib.s:179    .text:00000000000000d4 .L0 
     /tmp/ccALhBib.s:185    .text:00000000000000dc .L0 
     /tmp/ccALhBib.s:187    .text:00000000000000e4 .L0 
     /tmp/ccALhBib.s:189    .text:00000000000000e8 .L0 
     /tmp/ccALhBib.s:191    .text:00000000000000ec .L0 
     /tmp/ccALhBib.s:197    .text:00000000000000f4 .L0 
     /tmp/ccALhBib.s:198    .text:00000000000000f8 .L0 
     /tmp/ccALhBib.s:199    .text:00000000000000f8 .L0 
     /tmp/ccALhBib.s:201    .text:00000000000000fc .L0 
     /tmp/ccALhBib.s:202    .text:00000000000000fc .L0 
     /tmp/ccALhBib.s:204    .text:0000000000000100 .L0 
     /tmp/ccALhBib.s:207    .text:0000000000000104 .L0 
     /tmp/ccALhBib.s:211    .text:0000000000000108 .L0 
     /tmp/ccALhBib.s:215    .text:0000000000000108 .L0 
     /tmp/ccALhBib.s:221    .text:000000000000011c .L0 
     /tmp/ccALhBib.s:227    .text:000000000000011c _ZN9Scheduler14timerInterruptEv
     /tmp/ccALhBib.s:230    .text:000000000000011c .L0 
     /tmp/ccALhBib.s:231    .text:000000000000011c .L0 
     /tmp/ccALhBib.s:235    .text:000000000000011c .L0 
     /tmp/ccALhBib.s:236    .text:000000000000011c .L0 
     /tmp/ccALhBib.s:238    .text:0000000000000124 .L0 
     /tmp/ccALhBib.s:242    .text:0000000000000128 .L0 
     /tmp/ccALhBib.s:243    .text:000000000000012c .L0 
     /tmp/ccALhBib.s:247    .text:0000000000000138 .L0 
     /tmp/ccALhBib.s:248    .text:0000000000000138 .L0 
     /tmp/ccALhBib.s:249    .text:0000000000000138 .L0 
     /tmp/ccALhBib.s:251    .text:000000000000013c .L0 
     /tmp/ccALhBib.s:255    .text:000000000000013c .L0 
     /tmp/ccALhBib.s:260    .text:0000000000000140 .L0 
     /tmp/ccALhBib.s:262    .text:0000000000000144 .L0 
     /tmp/ccALhBib.s:263    .text:0000000000000144 .L0 
     /tmp/ccALhBib.s:265    .text:0000000000000148 .L0 
     /tmp/ccALhBib.s:273    .text:0000000000000154 .L0 
     /tmp/ccALhBib.s:279    .text:000000000000015c .L0 
     /tmp/ccALhBib.s:287    .text:0000000000000164 .L0 
     /tmp/ccALhBib.s:288    .text:0000000000000164 .L0 
     /tmp/ccALhBib.s:294    .text:0000000000000168 .L0 
     /tmp/ccALhBib.s:295    .text:0000000000000168 .L0 
     /tmp/ccALhBib.s:300    .text:000000000000016c .L0 
     /tmp/ccALhBib.s:301    .text:000000000000016c .L0 
     /tmp/ccALhBib.s:308    .text:0000000000000178 .L0 
     /tmp/ccALhBib.s:309    .text:0000000000000178 .L0 
     /tmp/ccALhBib.s:310    .text:0000000000000178 .L0 
     /tmp/ccALhBib.s:318    .text:0000000000000184 .L0 
     /tmp/ccALhBib.s:319    .text:0000000000000184 .L0 
     /tmp/ccALhBib.s:321    .text:000000000000018c .L0 
     /tmp/ccALhBib.s:323    .text:0000000000000190 .L0 
     /tmp/ccALhBib.s:329    .text:0000000000000194 .L0 
     /tmp/ccALhBib.s:330    .text:0000000000000194 .L0 
     /tmp/ccALhBib.s:332    .text:0000000000000198 .L0 
     /tmp/ccALhBib.s:333    .text:0000000000000198 .L0 
     /tmp/ccALhBib.s:335    .text:000000000000019c .L0 
     /tmp/ccALhBib.s:340    .text:00000000000001a0 .L0 
     /tmp/ccALhBib.s:341    .text:00000000000001a0 .L0 
     /tmp/ccALhBib.s:343    .text:00000000000001a8 .L0 
     /tmp/ccALhBib.s:346    .text:00000000000001ac .L0 
     /tmp/ccALhBib.s:348    .text:00000000000001b0 .L0 
GAS LISTING /tmp/ccALhBib.s 			page 21


     /tmp/ccALhBib.s:351    .text:00000000000001b8 .L0 
     /tmp/ccALhBib.s:358    .text:00000000000001c0 .L0 
     /tmp/ccALhBib.s:359    .text:00000000000001c4 .L0 
     /tmp/ccALhBib.s:361    .text:00000000000001c8 .L0 
     /tmp/ccALhBib.s:362    .text:00000000000001c8 .L0 
     /tmp/ccALhBib.s:364    .text:00000000000001cc .L0 
     /tmp/ccALhBib.s:367    .text:00000000000001d0 .L0 
     /tmp/ccALhBib.s:372    .text:00000000000001d8 .L0 
     /tmp/ccALhBib.s:378    .text:00000000000001d8 _ZN9Scheduler9timeSleepEm
     /tmp/ccALhBib.s:381    .text:00000000000001d8 .L0 
     /tmp/ccALhBib.s:383    .text:00000000000001d8 .L0 
     /tmp/ccALhBib.s:384    .text:00000000000001dc .L0 
     /tmp/ccALhBib.s:390    .text:00000000000001f0 .L0 
     /tmp/ccALhBib.s:391    .text:00000000000001f0 .L0 
     /tmp/ccALhBib.s:392    .text:00000000000001f0 .L0 
     /tmp/ccALhBib.s:393    .text:00000000000001f0 .L0 
     /tmp/ccALhBib.s:394    .text:00000000000001f0 .L0 
     /tmp/ccALhBib.s:396    .text:00000000000001f4 .L0 
     /tmp/ccALhBib.s:399    .text:00000000000001f8 .L0 
     /tmp/ccALhBib.s:400    .text:00000000000001f8 .L0 
     /tmp/ccALhBib.s:406    .text:0000000000000204 .L0 
     /tmp/ccALhBib.s:407    .text:0000000000000204 .L0 
     /tmp/ccALhBib.s:408    .text:0000000000000204 .L0 
     /tmp/ccALhBib.s:416    .text:000000000000020c .L0 
     /tmp/ccALhBib.s:417    .text:000000000000020c .L0 
     /tmp/ccALhBib.s:418    .text:000000000000020c .L0 
     /tmp/ccALhBib.s:429    .text:000000000000021c .L0 
     /tmp/ccALhBib.s:439    .text:0000000000000224 .L0 
     /tmp/ccALhBib.s:440    .text:0000000000000224 .L0 
     /tmp/ccALhBib.s:448    .text:0000000000000230 .L0 
     /tmp/ccALhBib.s:454    .text:0000000000000238 .L0 
     /tmp/ccALhBib.s:456    .text:0000000000000240 .L0 
     /tmp/ccALhBib.s:459    .text:0000000000000244 .L0 
     /tmp/ccALhBib.s:462    .text:0000000000000248 .L0 
     /tmp/ccALhBib.s:464    .text:000000000000024c .L0 
     /tmp/ccALhBib.s:467    .text:0000000000000250 .L0 
     /tmp/ccALhBib.s:471    .text:0000000000000254 .L0 
     /tmp/ccALhBib.s:472    .text:0000000000000254 .L0 
     /tmp/ccALhBib.s:474    .text:0000000000000258 .L0 
     /tmp/ccALhBib.s:476    .text:000000000000025c .L0 
     /tmp/ccALhBib.s:478    .text:0000000000000260 .L0 
     /tmp/ccALhBib.s:480    .text:0000000000000264 .L0 
     /tmp/ccALhBib.s:482    .text:0000000000000268 .L0 
     /tmp/ccALhBib.s:485    .text:000000000000026c .L0 
     /tmp/ccALhBib.s:487    .text:0000000000000270 .L0 
     /tmp/ccALhBib.s:490    .text:0000000000000278 .L0 
     /tmp/ccALhBib.s:492    .text:000000000000027c .L0 
     /tmp/ccALhBib.s:494    .text:0000000000000280 .L0 
     /tmp/ccALhBib.s:498    .text:0000000000000284 .L0 
     /tmp/ccALhBib.s:502    .text:0000000000000294 .L0 
     /tmp/ccALhBib.s:506    .text:0000000000000298 .L0 
     /tmp/ccALhBib.s:509    .text:000000000000029c .L0 
     /tmp/ccALhBib.s:516    .text:00000000000002a0 .L0 
     /tmp/ccALhBib.s:523    .text:00000000000002ac .L0 
     /tmp/ccALhBib.s:529    .text:00000000000002b8 .L0 
     /tmp/ccALhBib.s:535    .text:00000000000002c0 .L0 
     /tmp/ccALhBib.s:537    .text:00000000000002c4 .L0 
GAS LISTING /tmp/ccALhBib.s 			page 22


     /tmp/ccALhBib.s:539    .text:00000000000002c8 .L0 
     /tmp/ccALhBib.s:541    .text:00000000000002cc .L0 
     /tmp/ccALhBib.s:546    .text:00000000000002d4 .L0 
     /tmp/ccALhBib.s:550    .text:00000000000002d8 .L0 
     /tmp/ccALhBib.s:552    .text:00000000000002dc .L0 
     /tmp/ccALhBib.s:554    .text:00000000000002e0 .L0 
     /tmp/ccALhBib.s:560    .text:00000000000002e4 .L0 
     /tmp/ccALhBib.s:561    .text:00000000000002e4 .L0 
     /tmp/ccALhBib.s:564    .text:00000000000002ec .L0 
     /tmp/ccALhBib.s:565    .text:00000000000002f0 .L0 
     /tmp/ccALhBib.s:566    .text:00000000000002f0 .L0 
     /tmp/ccALhBib.s:568    .text:00000000000002f4 .L0 
     /tmp/ccALhBib.s:569    .text:00000000000002f4 .L0 
     /tmp/ccALhBib.s:571    .text:00000000000002f8 .L0 
     /tmp/ccALhBib.s:574    .text:00000000000002fc .L0 
     /tmp/ccALhBib.s:577    .text:0000000000000300 .L0 
     /tmp/ccALhBib.s:580    .text:0000000000000304 .L0 
     /tmp/ccALhBib.s:584    .text:0000000000000308 .L0 
     /tmp/ccALhBib.s:588    .text:0000000000000308 .L0 
     /tmp/ccALhBib.s:593    .text:0000000000000314 .L0 
     /tmp/ccALhBib.s:598    .text:0000000000000314 _GLOBAL__sub_I__ZN9Scheduler10readyQueueE
     /tmp/ccALhBib.s:601    .text:0000000000000314 .L0 
     /tmp/ccALhBib.s:602    .text:0000000000000314 .L0 
     /tmp/ccALhBib.s:603    .text:0000000000000318 .L0 
     /tmp/ccALhBib.s:606    .text:0000000000000320 .L0 
     /tmp/ccALhBib.s:607    .text:0000000000000320 .L0 
     /tmp/ccALhBib.s:609    .text:0000000000000324 .L0 
     /tmp/ccALhBib.s:611    .text:0000000000000324 .L0 
     /tmp/ccALhBib.s:617    .text:000000000000033c .L0 
     /tmp/ccALhBib.s:619    .text:0000000000000340 .L0 
     /tmp/ccALhBib.s:620    .text:0000000000000340 .L0 
     /tmp/ccALhBib.s:622    .text:0000000000000344 .L0 
     /tmp/ccALhBib.s:624    .text:0000000000000348 .L0 
     /tmp/ccALhBib.s:641    .bss:0000000000000010 _ZN9Scheduler10sleepQueueE
     /tmp/ccALhBib.s:637    .bss:0000000000000000 _ZN9Scheduler10readyQueueE
     /tmp/ccALhBib.s:634    .bss:0000000000000000 .LANCHOR0
     /tmp/ccALhBib.s:648    .text:0000000000000348 .L0 
     /tmp/ccALhBib.s:43     .text:000000000000002c .L0 
     /tmp/ccALhBib.s:86     .text:000000000000005c .L0 
     /tmp/ccALhBib.s:95     .text:0000000000000070 .L0 
     /tmp/ccALhBib.s:129    .text:000000000000009c .L0 
     /tmp/ccALhBib.s:185    .text:00000000000000dc .L0 
     /tmp/ccALhBib.s:191    .text:00000000000000ec .L0 
     /tmp/ccALhBib.s:215    .text:0000000000000108 .L0 
     /tmp/ccALhBib.s:236    .text:000000000000011c .L0 
     /tmp/ccALhBib.s:273    .text:0000000000000154 .L0 
     /tmp/ccALhBib.s:319    .text:0000000000000184 .L0 
     /tmp/ccALhBib.s:341    .text:00000000000001a0 .L0 
     /tmp/ccALhBib.s:348    .text:00000000000001b0 .L0 
     /tmp/ccALhBib.s:400    .text:00000000000001f8 .L0 
     /tmp/ccALhBib.s:454    .text:0000000000000238 .L0 
     /tmp/ccALhBib.s:498    .text:0000000000000284 .L0 
     /tmp/ccALhBib.s:523    .text:00000000000002ac .L0 
     /tmp/ccALhBib.s:541    .text:00000000000002cc .L0 
     /tmp/ccALhBib.s:588    .text:0000000000000308 .L0 
     /tmp/ccALhBib.s:31     .text:0000000000000020 .L4
     /tmp/ccALhBib.s:23     .text:0000000000000014 .L1
GAS LISTING /tmp/ccALhBib.s 			page 23


     /tmp/ccALhBib.s:132    .text:00000000000000a8 .L8
     /tmp/ccALhBib.s:124    .text:000000000000009c .L10
     /tmp/ccALhBib.s:98     .text:000000000000007c .L7
     /tmp/ccALhBib.s:105    .text:0000000000000084 .L5
     /tmp/ccALhBib.s:210    .text:0000000000000108 .L15
     /tmp/ccALhBib.s:193    .text:00000000000000f4 .L11
     /tmp/ccALhBib.s:370    .text:00000000000001d4 .L22
     /tmp/ccALhBib.s:354    .text:00000000000001c0 .L16
     /tmp/ccALhBib.s:325    .text:0000000000000194 .L20
     /tmp/ccALhBib.s:281    .text:0000000000000164 .L18
     /tmp/ccALhBib.s:274    .text:000000000000015c .L19
     /tmp/ccALhBib.s:269    .text:0000000000000154 .L25
     /tmp/ccALhBib.s:496    .text:0000000000000284 .L33
     /tmp/ccALhBib.s:504    .text:0000000000000298 .L34
     /tmp/ccALhBib.s:548    .text:00000000000002d8 .L31
     /tmp/ccALhBib.s:469    .text:0000000000000254 .L29
     /tmp/ccALhBib.s:556    .text:00000000000002e4 .L28
     /tmp/ccALhBib.s:583    .text:0000000000000308 .L35
     /tmp/ccALhBib.s:2869   .debug_abbrev:0000000000000000 .Ldebug_abbrev0
     /tmp/ccALhBib.s:4904   .debug_str:0000000000000ae7 .LASF171
     /tmp/ccALhBib.s:4828   .debug_str:00000000000007fc .LASF172
     /tmp/ccALhBib.s:4870   .debug_str:0000000000000990 .LASF173
     /tmp/ccALhBib.s:5      .text:0000000000000000 .Ltext0
     /tmp/ccALhBib.s:644    .text:0000000000000348 .Letext0
     /tmp/ccALhBib.s:4616   .debug_line:0000000000000000 .Ldebug_line0
     /tmp/ccALhBib.s:4750   .debug_str:0000000000000544 .LASF0
     /tmp/ccALhBib.s:4768   .debug_str:00000000000005e4 .LASF1
     /tmp/ccALhBib.s:4844   .debug_str:000000000000088d .LASF2
     /tmp/ccALhBib.s:4856   .debug_str:0000000000000909 .LASF4
     /tmp/ccALhBib.s:4754   .debug_str:0000000000000556 .LASF3
     /tmp/ccALhBib.s:4636   .debug_str:00000000000000f5 .LASF5
     /tmp/ccALhBib.s:4826   .debug_str:00000000000007f5 .LASF6
     /tmp/ccALhBib.s:4818   .debug_str:00000000000007ba .LASF7
     /tmp/ccALhBib.s:4760   .debug_str:00000000000005af .LASF8
     /tmp/ccALhBib.s:4726   .debug_str:0000000000000424 .LASF9
     /tmp/ccALhBib.s:4734   .debug_str:000000000000047e .LASF10
     /tmp/ccALhBib.s:4668   .debug_str:0000000000000243 .LASF11
     /tmp/ccALhBib.s:4716   .debug_str:00000000000003f1 .LASF12
     /tmp/ccALhBib.s:4680   .debug_str:0000000000000299 .LASF13
     /tmp/ccALhBib.s:4666   .debug_str:0000000000000233 .LASF14
     /tmp/ccALhBib.s:4882   .debug_str:0000000000000a1e .LASF15
     /tmp/ccALhBib.s:4706   .debug_str:00000000000003a0 .LASF16
     /tmp/ccALhBib.s:4874   .debug_str:00000000000009c6 .LASF17
     /tmp/ccALhBib.s:4888   .debug_str:0000000000000a63 .LASF83
     /tmp/ccALhBib.s:4960   .debug_str:0000000000000e5c .LASF18
     /tmp/ccALhBib.s:4906   .debug_str:0000000000000bab .LASF20
     /tmp/ccALhBib.s:4810   .debug_str:000000000000077c .LASF174
     /tmp/ccALhBib.s:4792   .debug_str:00000000000006f4 .LASF19
     /tmp/ccALhBib.s:4864   .debug_str:0000000000000945 .LASF21
     /tmp/ccALhBib.s:4766   .debug_str:00000000000005d0 .LASF22
     /tmp/ccALhBib.s:4968   .debug_str:0000000000000e96 .LASF23
     /tmp/ccALhBib.s:4890   .debug_str:0000000000000a6b .LASF26
     /tmp/ccALhBib.s:4796   .debug_str:000000000000070e .LASF28
     /tmp/ccALhBib.s:4654   .debug_str:00000000000001c4 .LASF24
     /tmp/ccALhBib.s:4922   .debug_str:0000000000000c41 .LASF25
     /tmp/ccALhBib.s:4848   .debug_str:00000000000008a8 .LASF27
     /tmp/ccALhBib.s:4664   .debug_str:000000000000021e .LASF29
GAS LISTING /tmp/ccALhBib.s 			page 24


     /tmp/ccALhBib.s:4892   .debug_str:0000000000000a76 .LASF30
     /tmp/ccALhBib.s:4712   .debug_str:00000000000003cc .LASF31
     /tmp/ccALhBib.s:4772   .debug_str:00000000000005ff .LASF32
     /tmp/ccALhBib.s:4932   .debug_str:0000000000000ce3 .LASF33
     /tmp/ccALhBib.s:4902   .debug_str:0000000000000adf .LASF175
     /tmp/ccALhBib.s:4696   .debug_str:000000000000033d .LASF34
     /tmp/ccALhBib.s:4676   .debug_str:000000000000027b .LASF36
     /tmp/ccALhBib.s:4698   .debug_str:0000000000000346 .LASF35
     /tmp/ccALhBib.s:4852   .debug_str:00000000000008e0 .LASF37
     /tmp/ccALhBib.s:4780   .debug_str:000000000000067c .LASF98
     /tmp/ccALhBib.s:4738   .debug_str:00000000000004a7 .LASF102
     /tmp/ccALhBib.s:4802   .debug_str:000000000000074a .LASF38
     /tmp/ccALhBib.s:4926   .debug_str:0000000000000c72 .LASF39
     /tmp/ccALhBib.s:4858   .debug_str:0000000000000910 .LASF40
     /tmp/ccALhBib.s:4634   .debug_str:00000000000000e9 .LASF41
     /tmp/ccALhBib.s:4964   .debug_str:0000000000000e80 .LASF42
     /tmp/ccALhBib.s:4730   .debug_str:0000000000000452 .LASF43
     /tmp/ccALhBib.s:4662   .debug_str:000000000000020e .LASF44
     /tmp/ccALhBib.s:4722   .debug_str:000000000000040e .LASF45
     /tmp/ccALhBib.s:4626   .debug_str:000000000000007a .LASF46
     /tmp/ccALhBib.s:4782   .debug_str:0000000000000690 .LASF48
     /tmp/ccALhBib.s:4872   .debug_str:00000000000009b3 .LASF47
     /tmp/ccALhBib.s:4846   .debug_str:000000000000089b .LASF49
     /tmp/ccALhBib.s:4622   .debug_str:000000000000005e .LASF99
     /tmp/ccALhBib.s:4862   .debug_str:0000000000000934 .LASF73
     /tmp/ccALhBib.s:4624   .debug_str:0000000000000075 .LASF50
     /tmp/ccALhBib.s:4958   .debug_str:0000000000000e57 .LASF51
     /tmp/ccALhBib.s:4866   .debug_str:000000000000096d .LASF52
     /tmp/ccALhBib.s:4886   .debug_str:0000000000000a5a .LASF53
     /tmp/ccALhBib.s:4804   .debug_str:0000000000000760 .LASF54
     /tmp/ccALhBib.s:4910   .debug_str:0000000000000bd2 .LASF55
     /tmp/ccALhBib.s:4918   .debug_str:0000000000000c34 .LASF56
     /tmp/ccALhBib.s:4684   .debug_str:00000000000002ae .LASF90
     /tmp/ccALhBib.s:4632   .debug_str:00000000000000c1 .LASF91
     /tmp/ccALhBib.s:4660   .debug_str:0000000000000200 .LASF57
     /tmp/ccALhBib.s:4774   .debug_str:000000000000060c .LASF59
     /tmp/ccALhBib.s:4714   .debug_str:00000000000003e2 .LASF58
     /tmp/ccALhBib.s:4962   .debug_str:0000000000000e66 .LASF60
     /tmp/ccALhBib.s:4814   .debug_str:000000000000078a .LASF61
     /tmp/ccALhBib.s:4900   .debug_str:0000000000000ad7 .LASF176
     /tmp/ccALhBib.s:4682   .debug_str:00000000000002a9 .LASF62
     /tmp/ccALhBib.s:4644   .debug_str:0000000000000147 .LASF63
     /tmp/ccALhBib.s:4670   .debug_str:0000000000000252 .LASF64
     /tmp/ccALhBib.s:4972   .debug_str:0000000000000edc .LASF65
     /tmp/ccALhBib.s:4732   .debug_str:000000000000045e .LASF66
     /tmp/ccALhBib.s:4920   .debug_str:0000000000000c3c .LASF67
     /tmp/ccALhBib.s:4756   .debug_str:0000000000000568 .LASF68
     /tmp/ccALhBib.s:4788   .debug_str:00000000000006d0 .LASF69
     /tmp/ccALhBib.s:4860   .debug_str:0000000000000915 .LASF70
     /tmp/ccALhBib.s:4842   .debug_str:0000000000000884 .LASF71
     /tmp/ccALhBib.s:4816   .debug_str:000000000000079a .LASF72
     /tmp/ccALhBib.s:4954   .debug_str:0000000000000e3a .LASF74
     /tmp/ccALhBib.s:4762   .debug_str:00000000000005c2 .LASF75
     /tmp/ccALhBib.s:4800   .debug_str:000000000000072a .LASF76
     /tmp/ccALhBib.s:4708   .debug_str:00000000000003b6 .LASF77
     /tmp/ccALhBib.s:4938   .debug_str:0000000000000d47 .LASF78
     /tmp/ccALhBib.s:4966   .debug_str:0000000000000e8d .LASF79
GAS LISTING /tmp/ccALhBib.s 			page 25


     /tmp/ccALhBib.s:4650   .debug_str:0000000000000191 .LASF80
     /tmp/ccALhBib.s:4674   .debug_str:0000000000000270 .LASF93
     /tmp/ccALhBib.s:4898   .debug_str:0000000000000aa8 .LASF94
     /tmp/ccALhBib.s:4832   .debug_str:000000000000082c .LASF81
     /tmp/ccALhBib.s:4724   .debug_str:000000000000041a .LASF82
     /tmp/ccALhBib.s:4710   .debug_str:00000000000003c2 .LASF84
     /tmp/ccALhBib.s:4822   .debug_str:00000000000007d7 .LASF85
     /tmp/ccALhBib.s:4838   .debug_str:0000000000000873 .LASF86
     /tmp/ccALhBib.s:4694   .debug_str:000000000000031c .LASF87
     /tmp/ccALhBib.s:4952   .debug_str:0000000000000e1e .LASF88
     /tmp/ccALhBib.s:4942   .debug_str:0000000000000da7 .LASF89
     /tmp/ccALhBib.s:4868   .debug_str:0000000000000973 .LASF92
     /tmp/ccALhBib.s:4946   .debug_str:0000000000000dcc .LASF95
     /tmp/ccALhBib.s:4678   .debug_str:000000000000028e .LASF96
     /tmp/ccALhBib.s:4908   .debug_str:0000000000000bc7 .LASF97
     /tmp/ccALhBib.s:4956   .debug_str:0000000000000e43 .LASF177
     /tmp/ccALhBib.s:4746   .debug_str:0000000000000523 .LASF100
     /tmp/ccALhBib.s:4976   .debug_str:0000000000000eed .LASF101
     /tmp/ccALhBib.s:4934   .debug_str:0000000000000cfc .LASF103
     /tmp/ccALhBib.s:4656   .debug_str:00000000000001d0 .LASF104
     /tmp/ccALhBib.s:4930   .debug_str:0000000000000cc3 .LASF105
     /tmp/ccALhBib.s:4916   .debug_str:0000000000000c2a .LASF106
     /tmp/ccALhBib.s:4786   .debug_str:00000000000006b6 .LASF107
     /tmp/ccALhBib.s:4820   .debug_str:00000000000007cd .LASF108
     /tmp/ccALhBib.s:4692   .debug_str:0000000000000317 .LASF109
     /tmp/ccALhBib.s:4764   .debug_str:00000000000005cb .LASF110
     /tmp/ccALhBib.s:4630   .debug_str:00000000000000a2 .LASF111
     /tmp/ccALhBib.s:4640   .debug_str:0000000000000104 .LASF112
     /tmp/ccALhBib.s:4628   .debug_str:000000000000008a .LASF113
     /tmp/ccALhBib.s:4672   .debug_str:0000000000000257 .LASF114
     /tmp/ccALhBib.s:4784   .debug_str:000000000000069d .LASF115
     /tmp/ccALhBib.s:4880   .debug_str:0000000000000a19 .LASF116
     /tmp/ccALhBib.s:4798   .debug_str:0000000000000725 .LASF117
     /tmp/ccALhBib.s:4794   .debug_str:0000000000000709 .LASF118
     /tmp/ccALhBib.s:4876   .debug_str:00000000000009dc .LASF119
     /tmp/ccALhBib.s:4704   .debug_str:0000000000000389 .LASF120
     /tmp/ccALhBib.s:4690   .debug_str:000000000000030d .LASF145
     /tmp/ccALhBib.s:4836   .debug_str:000000000000085c .LASF146
     /tmp/ccALhBib.s:4720   .debug_str:0000000000000405 .LASF121
     /tmp/ccALhBib.s:4744   .debug_str:0000000000000506 .LASF122
     /tmp/ccALhBib.s:4770   .debug_str:00000000000005f7 .LASF123
     /tmp/ccALhBib.s:4790   .debug_str:00000000000006d8 .LASF124
     /tmp/ccALhBib.s:4854   .debug_str:00000000000008ff .LASF125
     /tmp/ccALhBib.s:4728   .debug_str:0000000000000434 .LASF126
     /tmp/ccALhBib.s:4840   .debug_str:000000000000087a .LASF127
     /tmp/ccALhBib.s:4736   .debug_str:000000000000048c .LASF128
     /tmp/ccALhBib.s:4944   .debug_str:0000000000000dc3 .LASF129
     /tmp/ccALhBib.s:4948   .debug_str:0000000000000de9 .LASF130
     /tmp/ccALhBib.s:4812   .debug_str:0000000000000781 .LASF131
     /tmp/ccALhBib.s:4924   .debug_str:0000000000000c58 .LASF132
     /tmp/ccALhBib.s:4974   .debug_str:0000000000000ee5 .LASF133
     /tmp/ccALhBib.s:4824   .debug_str:00000000000007dc .LASF134
     /tmp/ccALhBib.s:4896   .debug_str:0000000000000a9c .LASF135
     /tmp/ccALhBib.s:4830   .debug_str:000000000000080e .LASF136
     /tmp/ccALhBib.s:4648   .debug_str:0000000000000176 .LASF137
     /tmp/ccALhBib.s:4620   .debug_str:000000000000002d .LASF138
     /tmp/ccALhBib.s:4878   .debug_str:00000000000009ef .LASF139
GAS LISTING /tmp/ccALhBib.s 			page 26


     /tmp/ccALhBib.s:4758   .debug_str:0000000000000585 .LASF140
     /tmp/ccALhBib.s:4778   .debug_str:0000000000000651 .LASF141
     /tmp/ccALhBib.s:4834   .debug_str:0000000000000831 .LASF142
     /tmp/ccALhBib.s:4912   .debug_str:0000000000000bdc .LASF143
     /tmp/ccALhBib.s:4914   .debug_str:0000000000000c01 .LASF144
     /tmp/ccALhBib.s:4702   .debug_str:0000000000000360 .LASF147
     /tmp/ccALhBib.s:4940   .debug_str:0000000000000d78 .LASF148
     /tmp/ccALhBib.s:4850   .debug_str:00000000000008b2 .LASF149
     /tmp/ccALhBib.s:4928   .debug_str:0000000000000c93 .LASF150
     /tmp/ccALhBib.s:4618   .debug_str:0000000000000000 .LASF151
     /tmp/ccALhBib.s:4776   .debug_str:0000000000000625 .LASF152
     /tmp/ccALhBib.s:4688   .debug_str:00000000000002e1 .LASF153
     /tmp/ccALhBib.s:4642   .debug_str:000000000000011c .LASF154
     /tmp/ccALhBib.s:4884   .debug_str:0000000000000a2a .LASF155
     /tmp/ccALhBib.s:4950   .debug_str:0000000000000e03 .LASF178
     /tmp/ccALhBib.s:4894   .debug_str:0000000000000a81 .LASF179
     /tmp/ccALhBib.s:4936   .debug_str:0000000000000d1d .LASF156
     /tmp/ccALhBib.s:599    .text:0000000000000314 .LFB80
     /tmp/ccALhBib.s:625    .text:0000000000000348 .LFE80
     /tmp/ccALhBib.s:615    .text:0000000000000338 .LVL66
     /tmp/ccALhBib.s:4646   .debug_str:000000000000014c .LASF157
     /tmp/ccALhBib.s:9      .text:0000000000000000 .LFB79
     /tmp/ccALhBib.s:62     .text:0000000000000048 .LFE79
     /tmp/ccALhBib.s:4742   .debug_str:00000000000004f7 .LASF158
     /tmp/ccALhBib.s:4808   .debug_str:0000000000000771 .LASF159
     /tmp/ccALhBib.s:38     .text:000000000000002c .LBB60
     /tmp/ccALhBib.s:49     .text:000000000000003c .LBE60
     /tmp/ccALhBib.s:4072   .debug_loc:0000000000000000 .LLST0
     /tmp/ccALhBib.s:50     .text:000000000000003c .LBB63
     /tmp/ccALhBib.s:58     .text:0000000000000044 .LBE63
     /tmp/ccALhBib.s:4081   .debug_loc:000000000000002c .LLST1
     /tmp/ccALhBib.s:4718   .debug_str:0000000000000400 .LASF160
     /tmp/ccALhBib.s:4638   .debug_str:00000000000000fc .LASF163
     /tmp/ccALhBib.s:4740   .debug_str:00000000000004c6 .LASF161
     /tmp/ccALhBib.s:4970   .debug_str:0000000000000ebd .LASF162
     /tmp/ccALhBib.s:4752   .debug_str:0000000000000551 .LASF164
     /tmp/ccALhBib.s:4748   .debug_str:000000000000053b .LASF165
     /tmp/ccALhBib.s:4806   .debug_str:0000000000000768 .LASF166
     /tmp/ccALhBib.s:4686   .debug_str:00000000000002bc .LASF167
     /tmp/ccALhBib.s:4652   .debug_str:00000000000001b1 .LASF168
     /tmp/ccALhBib.s:379    .text:00000000000001d8 .LFB55
     /tmp/ccALhBib.s:594    .text:0000000000000314 .LFE55
     /tmp/ccALhBib.s:4090   .debug_loc:0000000000000058 .LLST23
     /tmp/ccALhBib.s:4112   .debug_loc:00000000000000b7 .LLST24
     /tmp/ccALhBib.s:4123   .debug_loc:00000000000000ed .LLST25
     /tmp/ccALhBib.s:404    .text:0000000000000204 .LBB129
     /tmp/ccALhBib.s:412    .text:000000000000020c .LBE129
     /tmp/ccALhBib.s:4134   .debug_loc:0000000000000123 .LLST26
     /tmp/ccALhBib.s:4142   .debug_loc:0000000000000147 .LLST27
     /tmp/ccALhBib.s:414    .text:000000000000020c .LBB131
     /tmp/ccALhBib.s:425    .text:000000000000021c .LBE131
     /tmp/ccALhBib.s:4149   .debug_loc:000000000000016a .LLST28
     /tmp/ccALhBib.s:421    .text:0000000000000218 .LVL39
     /tmp/ccALhBib.s:426    .text:000000000000021c .LBB133
     /tmp/ccALhBib.s:433    .text:0000000000000224 .LBE133
     /tmp/ccALhBib.s:4157   .debug_loc:000000000000018e .LLST29
     /tmp/ccALhBib.s:4164   .debug_loc:00000000000001b1 .LLST30
GAS LISTING /tmp/ccALhBib.s 			page 27


     /tmp/ccALhBib.s:4171   .debug_loc:00000000000001d4 .LLST31
     /tmp/ccALhBib.s:435    .text:0000000000000224 .LBB135
     /tmp/ccALhBib.s:4584   .debug_ranges:0000000000000000 .Ldebug_ranges0
     /tmp/ccALhBib.s:4178   .debug_loc:00000000000001f7 .LLST32
     /tmp/ccALhBib.s:4189   .debug_loc:000000000000022d .LLST33
     /tmp/ccALhBib.s:4204   .debug_loc:0000000000000275 .LLST34
     /tmp/ccALhBib.s:4219   .debug_loc:00000000000002be .LLST35
     /tmp/ccALhBib.s:4242   .debug_loc:000000000000032d .LLST36
     /tmp/ccALhBib.s:4253   .debug_loc:0000000000000363 .LLST37
     /tmp/ccALhBib.s:437    .text:0000000000000224 .LBB137
     /tmp/ccALhBib.s:444    .text:0000000000000230 .LBE137
     /tmp/ccALhBib.s:4269   .debug_loc:00000000000003ad .LLST38
     /tmp/ccALhBib.s:442    .text:0000000000000230 .LVL42
     /tmp/ccALhBib.s:445    .text:0000000000000230 .LBB139
     /tmp/ccALhBib.s:452    .text:0000000000000238 .LBE139
     /tmp/ccALhBib.s:4277   .debug_loc:00000000000003d1 .LLST39
     /tmp/ccALhBib.s:4285   .debug_loc:00000000000003f5 .LLST40
     /tmp/ccALhBib.s:4292   .debug_loc:0000000000000418 .LLST41
     /tmp/ccALhBib.s:511    .text:00000000000002a0 .LBB141
     /tmp/ccALhBib.s:544    .text:00000000000002d4 .LBE141
     /tmp/ccALhBib.s:4299   .debug_loc:000000000000043b .LLST42
     /tmp/ccALhBib.s:4306   .debug_loc:000000000000045e .LLST43
     /tmp/ccALhBib.s:4315   .debug_loc:000000000000048a .LLST44
     /tmp/ccALhBib.s:513    .text:00000000000002a0 .LBB143
     /tmp/ccALhBib.s:521    .text:00000000000002ac .LBE143
     /tmp/ccALhBib.s:4322   .debug_loc:00000000000004ad .LLST45
     /tmp/ccALhBib.s:519    .text:00000000000002ac .LVL54
     /tmp/ccALhBib.s:526    .text:00000000000002b8 .LBB145
     /tmp/ccALhBib.s:533    .text:00000000000002c0 .LBE145
     /tmp/ccALhBib.s:4330   .debug_loc:00000000000004d1 .LLST46
     /tmp/ccALhBib.s:4337   .debug_loc:00000000000004f4 .LLST47
     /tmp/ccALhBib.s:4344   .debug_loc:0000000000000517 .LLST48
     /tmp/ccALhBib.s:562    .text:00000000000002ec .LVL60
     /tmp/ccALhBib.s:228    .text:000000000000011c .LFB54
     /tmp/ccALhBib.s:373    .text:00000000000001d8 .LFE54
     /tmp/ccALhBib.s:4700   .debug_str:000000000000035a .LASF169
     /tmp/ccALhBib.s:4351   .debug_loc:000000000000053a .LLST13
     /tmp/ccALhBib.s:233    .text:000000000000011c .LBB92
     /tmp/ccALhBib.s:4358   .debug_loc:000000000000055d .LLST14
     /tmp/ccALhBib.s:270    .text:0000000000000154 .LBB96
     /tmp/ccALhBib.s:4373   .debug_loc:00000000000005a5 .LLST15
     /tmp/ccALhBib.s:4388   .debug_loc:00000000000005ed .LLST16
     /tmp/ccALhBib.s:4396   .debug_loc:0000000000000611 .LLST17
     /tmp/ccALhBib.s:276    .text:000000000000015c .LBB98
     /tmp/ccALhBib.s:283    .text:0000000000000164 .LBE98
     /tmp/ccALhBib.s:4407   .debug_loc:0000000000000647 .LLST18
     /tmp/ccALhBib.s:280    .text:0000000000000164 .LVL23
     /tmp/ccALhBib.s:290    .text:0000000000000168 .LBB101
     /tmp/ccALhBib.s:298    .text:000000000000016c .LBE101
     /tmp/ccALhBib.s:4414   .debug_loc:000000000000066a .LLST19
     /tmp/ccALhBib.s:4422   .debug_loc:000000000000068e .LLST20
     /tmp/ccALhBib.s:305    .text:0000000000000178 .LBB103
     /tmp/ccALhBib.s:314    .text:0000000000000184 .LBE103
     /tmp/ccALhBib.s:4429   .debug_loc:00000000000006b1 .LLST21
     /tmp/ccALhBib.s:312    .text:0000000000000184 .LVL27
     /tmp/ccALhBib.s:316    .text:0000000000000184 .LBB105
     /tmp/ccALhBib.s:327    .text:0000000000000194 .LBE105
GAS LISTING /tmp/ccALhBib.s 			page 28


     /tmp/ccALhBib.s:4436   .debug_loc:00000000000006d4 .LLST22
     /tmp/ccALhBib.s:303    .text:0000000000000178 .LVL26
     /tmp/ccALhBib.s:148    .text:00000000000000b0 .LFB53
     /tmp/ccALhBib.s:222    .text:000000000000011c .LFE53
     /tmp/ccALhBib.s:4445   .debug_loc:0000000000000700 .LLST6
     /tmp/ccALhBib.s:165    .text:00000000000000c8 .LBB72
     /tmp/ccALhBib.s:4467   .debug_loc:000000000000075f .LLST7
     /tmp/ccALhBib.s:4482   .debug_loc:00000000000007a8 .LLST8
     /tmp/ccALhBib.s:167    .text:00000000000000c8 .LBB74
     /tmp/ccALhBib.s:175    .text:00000000000000d4 .LBE74
     /tmp/ccALhBib.s:4497   .debug_loc:00000000000007f0 .LLST9
     /tmp/ccALhBib.s:173    .text:00000000000000d4 .LVL14
     /tmp/ccALhBib.s:176    .text:00000000000000d4 .LBB76
     /tmp/ccALhBib.s:183    .text:00000000000000dc .LBE76
     /tmp/ccALhBib.s:4505   .debug_loc:0000000000000814 .LLST10
     /tmp/ccALhBib.s:4513   .debug_loc:0000000000000838 .LLST11
     /tmp/ccALhBib.s:4520   .debug_loc:000000000000085b .LLST12
     /tmp/ccALhBib.s:68     .text:0000000000000048 .LFB52
     /tmp/ccALhBib.s:142    .text:00000000000000b0 .LFE52
     /tmp/ccALhBib.s:83     .text:000000000000005c .LBB66
     /tmp/ccALhBib.s:4527   .debug_loc:000000000000087e .LLST2
     /tmp/ccALhBib.s:4542   .debug_loc:00000000000008c6 .LLST3
     /tmp/ccALhBib.s:4553   .debug_loc:00000000000008fc .LLST4
     /tmp/ccALhBib.s:100    .text:000000000000007c .LBB68
     /tmp/ccALhBib.s:107    .text:0000000000000084 .LBE68
     /tmp/ccALhBib.s:4564   .debug_loc:0000000000000932 .LLST5
     /tmp/ccALhBib.s:104    .text:0000000000000084 .LVL7
     /tmp/ccALhBib.s:4658   .debug_str:00000000000001df .LASF170
     /tmp/ccALhBib.s:37     .text:000000000000002c .LVL1
     /tmp/ccALhBib.s:46     .text:000000000000003c .LVL2
     /tmp/ccALhBib.s:55     .text:0000000000000044 .LVL3
     /tmp/ccALhBib.s:382    .text:00000000000001d8 .LVL35
     /tmp/ccALhBib.s:419    .text:0000000000000210 .LVL38
     /tmp/ccALhBib.s:575    .text:00000000000002fc .LVL62
     /tmp/ccALhBib.s:582    .text:0000000000000308 .LVL64
     /tmp/ccALhBib.s:402    .text:0000000000000204 .LVL36
     /tmp/ccALhBib.s:578    .text:0000000000000300 .LVL63
     /tmp/ccALhBib.s:431    .text:0000000000000224 .LVL41
     /tmp/ccALhBib.s:572    .text:00000000000002f8 .LVL61
     /tmp/ccALhBib.s:410    .text:000000000000020c .LVL37
     /tmp/ccALhBib.s:423    .text:000000000000021c .LVL40
     /tmp/ccALhBib.s:555    .text:00000000000002e4 .LVL59
     /tmp/ccALhBib.s:450    .text:0000000000000238 .LVL43
     /tmp/ccALhBib.s:517    .text:00000000000002a4 .LVL53
     /tmp/ccALhBib.s:547    .text:00000000000002d8 .LVL58
     /tmp/ccALhBib.s:457    .text:0000000000000244 .LVL44
     /tmp/ccALhBib.s:483    .text:000000000000026c .LVL48
     /tmp/ccALhBib.s:495    .text:0000000000000284 .LVL49
     /tmp/ccALhBib.s:503    .text:0000000000000298 .LVL50
     /tmp/ccALhBib.s:589    .text:0000000000000310 .LVL65
     /tmp/ccALhBib.s:460    .text:0000000000000248 .LVL45
     /tmp/ccALhBib.s:468    .text:0000000000000254 .LVL47
     /tmp/ccALhBib.s:465    .text:0000000000000250 .LVL46
     /tmp/ccALhBib.s:507    .text:000000000000029c .LVL51
     /tmp/ccALhBib.s:510    .text:00000000000002a0 .LVL52
     /tmp/ccALhBib.s:542    .text:00000000000002d4 .LVL57
     /tmp/ccALhBib.s:531    .text:00000000000002c0 .LVL56
GAS LISTING /tmp/ccALhBib.s 			page 29


     /tmp/ccALhBib.s:525    .text:00000000000002b8 .LVL55
     /tmp/ccALhBib.s:256    .text:0000000000000140 .LVL20
     /tmp/ccALhBib.s:365    .text:00000000000001cc .LVL33
     /tmp/ccALhBib.s:232    .text:000000000000011c .LVL19
     /tmp/ccALhBib.s:369    .text:00000000000001d4 .LVL34
     /tmp/ccALhBib.s:268    .text:0000000000000154 .LVL21
     /tmp/ccALhBib.s:337    .text:00000000000001a0 .LVL29
     /tmp/ccALhBib.s:353    .text:00000000000001c0 .LVL32
     /tmp/ccALhBib.s:344    .text:00000000000001ac .LVL30
     /tmp/ccALhBib.s:349    .text:00000000000001b8 .LVL31
     /tmp/ccALhBib.s:275    .text:000000000000015c .LVL22
     /tmp/ccALhBib.s:289    .text:0000000000000168 .LVL24
     /tmp/ccALhBib.s:296    .text:000000000000016c .LVL25
     /tmp/ccALhBib.s:324    .text:0000000000000194 .LVL28
     /tmp/ccALhBib.s:151    .text:00000000000000b0 .LVL11
     /tmp/ccALhBib.s:171    .text:00000000000000cc .LVL13
     /tmp/ccALhBib.s:205    .text:0000000000000100 .LVL17
     /tmp/ccALhBib.s:209    .text:0000000000000108 .LVL18
     /tmp/ccALhBib.s:164    .text:00000000000000c8 .LVL12
     /tmp/ccALhBib.s:192    .text:00000000000000f4 .LVL16
     /tmp/ccALhBib.s:181    .text:00000000000000dc .LVL15
     /tmp/ccALhBib.s:82     .text:000000000000005c .LVL4
     /tmp/ccALhBib.s:123    .text:000000000000009c .LVL8
     /tmp/ccALhBib.s:135    .text:00000000000000ac .LVL10
     /tmp/ccALhBib.s:91     .text:000000000000006c .LVL5
     /tmp/ccALhBib.s:131    .text:00000000000000a8 .LVL9
     /tmp/ccALhBib.s:99     .text:000000000000007c .LVL6
     /tmp/ccALhBib.s:649    .debug_info:0000000000000000 .Ldebug_info0
     /tmp/ccALhBib.s:109    .text:0000000000000084 .LBE66
     /tmp/ccALhBib.s:126    .text:000000000000009c .LBB71
     /tmp/ccALhBib.s:137    .text:00000000000000ac .LBE71
     /tmp/ccALhBib.s:195    .text:00000000000000f4 .LBE72
     /tmp/ccALhBib.s:212    .text:0000000000000108 .LBB79
     /tmp/ccALhBib.s:220    .text:000000000000011c .LBE79
     /tmp/ccALhBib.s:240    .text:0000000000000128 .LBE92
     /tmp/ccALhBib.s:252    .text:000000000000013c .LBB95
     /tmp/ccALhBib.s:258    .text:0000000000000140 .LBE95
     /tmp/ccALhBib.s:285    .text:0000000000000164 .LBE96
     /tmp/ccALhBib.s:338    .text:00000000000001a0 .LBB107
     /tmp/ccALhBib.s:356    .text:00000000000001c0 .LBE107
     /tmp/ccALhBib.s:558    .text:00000000000002e4 .LBE135
     /tmp/ccALhBib.s:585    .text:0000000000000308 .LBB148
     /tmp/ccALhBib.s:592    .text:0000000000000314 .LBE148

UNDEFINED SYMBOLS
_ZN15MemoryAllocator4freeEPv
_ZN15MemoryAllocator8allocateEm
_ZN3TCB7runningE
_ZN3TCB8dispatchEv
