GAS LISTING /tmp/cc1XRdp6.s 			page 1


   1              		.file	"scheduler.cpp"
   2              		.option pic
   3              		.option norelax
   4              		.text
   5              	.Ltext0:
   6              		.align	2
   8              	_Z41__static_initialization_and_destruction_0ii:
   9              	.LFB79:
  10              		.file 1 "src/scheduler.cpp"
   1:src/scheduler.cpp **** //
   2:src/scheduler.cpp **** // Created by os on 9/9/22.
   3:src/scheduler.cpp **** //
   4:src/scheduler.cpp **** 
   5:src/scheduler.cpp **** #include "../h/scheduler.hpp"
   6:src/scheduler.cpp **** //#include "../h/list.hpp"
   7:src/scheduler.cpp **** 
   8:src/scheduler.cpp **** List<TCB> Scheduler::readyQueue;
   9:src/scheduler.cpp **** List<Scheduler::sleepNode> Scheduler::sleepQueue;
  10:src/scheduler.cpp **** 
  11:src/scheduler.cpp **** TCB* Scheduler::get() {
  12:src/scheduler.cpp ****     //return readyQueue.takeFirst();
  13:src/scheduler.cpp ****     TCB* ret = readyQueue.takeFirst();
  14:src/scheduler.cpp ****     //readyQueue.printStatus();
  15:src/scheduler.cpp ****     return ret;
  16:src/scheduler.cpp **** }
  17:src/scheduler.cpp **** 
  18:src/scheduler.cpp **** void Scheduler::put(TCB* tcb) {
  19:src/scheduler.cpp ****     //return readyQueue.putLast(tcb);
  20:src/scheduler.cpp ****     readyQueue.putLast(tcb);
  21:src/scheduler.cpp ****     //putc('a');
  22:src/scheduler.cpp ****     //readyQueue.printStatus();
  23:src/scheduler.cpp **** }
  24:src/scheduler.cpp **** 
  25:src/scheduler.cpp **** void Scheduler::timerInterrupt() {
  26:src/scheduler.cpp ****     //__putc('a');
  27:src/scheduler.cpp ****     sleepNode *first = sleepQueue.getFirst();
  28:src/scheduler.cpp ****     if (!first) return;
  29:src/scheduler.cpp ****     first->time--;
  30:src/scheduler.cpp ****     while(first) {
  31:src/scheduler.cpp ****         if (first->time != 0) break;
  32:src/scheduler.cpp ****         sleepQueue.takeFirst();
  33:src/scheduler.cpp ****         first->thread->setBlocked(false);
  34:src/scheduler.cpp ****         Scheduler::put(first->thread);
  35:src/scheduler.cpp ****         delete first;
  36:src/scheduler.cpp ****         first = sleepQueue.getFirst();
  37:src/scheduler.cpp ****     }
  38:src/scheduler.cpp **** }
  39:src/scheduler.cpp **** 
  40:src/scheduler.cpp **** void Scheduler::timeSleep(time_t time) {
  41:src/scheduler.cpp ****     TCB* old = TCB::running;
  42:src/scheduler.cpp ****     old->setBlocked(true);
  43:src/scheduler.cpp ****     sleepNode* sn = new sleepNode(time, old);
  44:src/scheduler.cpp ****     sleepQueue.putSorted(sn);
  45:src/scheduler.cpp ****     TCB::dispatch();
  46:src/scheduler.cpp **** }
  11              		.loc 1 46 1
  12              		.cfi_startproc
GAS LISTING /tmp/cc1XRdp6.s 			page 2


  13              	.LVL0:
  14 0000 130101FF 		addi	sp,sp,-16
  15              		.cfi_def_cfa_offset 16
  16 0004 23348100 		sd	s0,8(sp)
  17              		.cfi_offset 8, -8
  18 0008 13040101 		addi	s0,sp,16
  19              		.cfi_def_cfa 8, 0
  20              		.loc 1 46 1 is_stmt 0
  21 000c 93071000 		li	a5,1
  22 0010 6308F500 		beq	a0,a5,.L4
  23              	.L1:
  24 0014 03348100 		ld	s0,8(sp)
  25              		.cfi_remember_state
  26              		.cfi_restore 8
  27              		.cfi_def_cfa 2, 16
  28 0018 13010101 		addi	sp,sp,16
  29              		.cfi_def_cfa_offset 0
  30 001c 67800000 		jr	ra
  31              	.L4:
  32              		.cfi_restore_state
  33              		.loc 1 46 1 discriminator 1
  34 0020 B7070100 		li	a5,65536
  35 0024 9387F7FF 		addi	a5,a5,-1
  36 0028 E396F5FE 		bne	a1,a5,.L1
  37              	.LVL1:
  38              	.LBB60:
  39              	.LBB61:
  40              	.LBB62:
  41              		.file 2 "src/../h/list.hpp"
   1:src/../h/list.hpp **** //
   2:src/../h/list.hpp **** // Created by os on 9/6/22.
   3:src/../h/list.hpp **** //
   4:src/../h/list.hpp **** 
   5:src/../h/list.hpp **** #ifndef OSMIUM_LIST_H
   6:src/../h/list.hpp **** #define OSMIUM_LIST_H
   7:src/../h/list.hpp **** 
   8:src/../h/list.hpp **** #include "../lib/console.h"
   9:src/../h/list.hpp **** //#include "../h/print.hpp"
  10:src/../h/list.hpp **** 
  11:src/../h/list.hpp **** #include "__print.hpp"
  12:src/../h/list.hpp **** #include "memory_allocator.hpp"
  13:src/../h/list.hpp **** 
  14:src/../h/list.hpp **** template <typename T>
  15:src/../h/list.hpp **** class List {
  16:src/../h/list.hpp **** private:
  17:src/../h/list.hpp ****     struct Node {
  18:src/../h/list.hpp ****         T *data;
  19:src/../h/list.hpp ****         Node *next;
  20:src/../h/list.hpp **** 
  21:src/../h/list.hpp ****         Node(T *data, Node *next) : data(data), next(next) {}
  22:src/../h/list.hpp **** 
  23:src/../h/list.hpp ****         void* operator new(size_t size) {
  24:src/../h/list.hpp ****             return MemoryAllocator::allocate(size);
  25:src/../h/list.hpp ****         }
  26:src/../h/list.hpp **** 
  27:src/../h/list.hpp ****         void* operator new[](size_t size) {
  28:src/../h/list.hpp ****             return MemoryAllocator::allocate(size);
GAS LISTING /tmp/cc1XRdp6.s 			page 3


  29:src/../h/list.hpp ****         }
  30:src/../h/list.hpp **** 
  31:src/../h/list.hpp ****         void operator delete(void* ptr) {
  32:src/../h/list.hpp ****             MemoryAllocator::free(ptr);
  33:src/../h/list.hpp ****         }
  34:src/../h/list.hpp **** 
  35:src/../h/list.hpp ****         void operator delete[](void* ptr) {
  36:src/../h/list.hpp ****             MemoryAllocator::free(ptr);
  37:src/../h/list.hpp ****         }
  38:src/../h/list.hpp ****     };
  39:src/../h/list.hpp **** 
  40:src/../h/list.hpp ****     Node *head, *tail;
  41:src/../h/list.hpp **** public:
  42:src/../h/list.hpp ****     List() : head(0), tail(0) {}
  42              		.loc 2 42 29
  43 002c 97070000 		lla	a5,.LANCHOR0
  43      93870700 
  44 0034 23B00700 		sd	zero,0(a5)
  45 0038 23B40700 		sd	zero,8(a5)
  46              	.LVL2:
  47              	.LBE62:
  48              	.LBE61:
  49              	.LBE60:
  50              	.LBB63:
  51              	.LBB64:
  52              	.LBB65:
  53 003c 23B80700 		sd	zero,16(a5)
  54 0040 23BC0700 		sd	zero,24(a5)
  55              	.LVL3:
  56              	.LBE65:
  57              	.LBE64:
  58              	.LBE63:
  59              		.loc 1 46 1
  60 0044 6FF01FFD 		j	.L1
  61              		.cfi_endproc
  62              	.LFE79:
  64              		.align	2
  65              		.globl	_ZN9Scheduler3getEv
  67              	_ZN9Scheduler3getEv:
  68              	.LFB52:
  11:src/scheduler.cpp ****     //return readyQueue.takeFirst();
  69              		.loc 1 11 23 is_stmt 1
  70              		.cfi_startproc
  71 0048 130101FE 		addi	sp,sp,-32
  72              		.cfi_def_cfa_offset 32
  73 004c 233C1100 		sd	ra,24(sp)
  74 0050 23388100 		sd	s0,16(sp)
  75 0054 23349100 		sd	s1,8(sp)
  76              		.cfi_offset 1, -8
  77              		.cfi_offset 8, -16
  78              		.cfi_offset 9, -24
  79 0058 13040102 		addi	s0,sp,32
  80              		.cfi_def_cfa 8, 0
  13:src/scheduler.cpp ****     //readyQueue.printStatus();
  81              		.loc 1 13 5
  82              	.LVL4:
  83              	.LBB66:
GAS LISTING /tmp/cc1XRdp6.s 			page 4


  84              	.LBB67:
  43:src/../h/list.hpp ****     List(const List<T> &) = delete;
  44:src/../h/list.hpp ****     //List(List<T> &&) = delete;
  45:src/../h/list.hpp ****     List<T> &operator=(const List<T> &) = delete;
  46:src/../h/list.hpp **** 
  47:src/../h/list.hpp ****     void putFirst(T *data) {
  48:src/../h/list.hpp ****         Node *newNode = new Node(data, head);
  49:src/../h/list.hpp ****         head = newNode;
  50:src/../h/list.hpp ****         if (!tail) tail = head;
  51:src/../h/list.hpp ****     }
  52:src/../h/list.hpp **** 
  53:src/../h/list.hpp ****     void putLast(T *data) {
  54:src/../h/list.hpp ****         /*__putc('i');
  55:src/../h/list.hpp ****         __putc('l');
  56:src/../h/list.hpp ****         __putc('\n');*/
  57:src/../h/list.hpp ****         Node *newNode = new Node(data, 0);
  58:src/../h/list.hpp ****         if (!tail) head = tail = newNode;
  59:src/../h/list.hpp ****         else {
  60:src/../h/list.hpp ****             tail->next = newNode;
  61:src/../h/list.hpp ****             tail = newNode;
  62:src/../h/list.hpp ****         }
  63:src/../h/list.hpp ****         //printStatus();
  64:src/../h/list.hpp ****     }
  65:src/../h/list.hpp **** 
  66:src/../h/list.hpp ****     void putSorted(T* data) {
  67:src/../h/list.hpp ****         Node *newNode = new Node(data, 0);
  68:src/../h/list.hpp ****         if (!head) { head = tail = newNode; return; }
  69:src/../h/list.hpp ****         Node* curr = head, *prev = nullptr;
  70:src/../h/list.hpp ****         uint64 nodeTime = *(uint64*)data;
  71:src/../h/list.hpp ****         uint64 currTime = *(uint64*)(curr->data);
  72:src/../h/list.hpp ****         if (nodeTime < currTime) { *(uint64*)(curr->data) -= nodeTime; putFirst(data); return; }
  73:src/../h/list.hpp ****         while (curr) {
  74:src/../h/list.hpp ****             if (*(uint64*)data >= *(uint64*)(curr->data)) {
  75:src/../h/list.hpp ****                 *(uint64*)data -= *(uint64*)curr->data;
  76:src/../h/list.hpp ****                 break;
  77:src/../h/list.hpp ****             }
  78:src/../h/list.hpp ****             prev = curr;
  79:src/../h/list.hpp ****             curr = curr->next;
  80:src/../h/list.hpp ****             *(uint64*)data -= *(uint64*)curr->data;
  81:src/../h/list.hpp ****         }
  82:src/../h/list.hpp ****         if (curr) {
  83:src/../h/list.hpp ****             newNode->next = curr->next;
  84:src/../h/list.hpp ****             curr->next = newNode;
  85:src/../h/list.hpp ****             if (!curr->next) tail = newNode;
  86:src/../h/list.hpp ****         }
  87:src/../h/list.hpp ****         else if (prev) {
  88:src/../h/list.hpp ****             prev->next = newNode;
  89:src/../h/list.hpp ****             tail = newNode;
  90:src/../h/list.hpp ****         }
  91:src/../h/list.hpp ****         else head = tail = newNode;
  92:src/../h/list.hpp ****     }
  93:src/../h/list.hpp **** 
  94:src/../h/list.hpp ****     T* takeFirst() {
  95:src/../h/list.hpp ****         /*__putc('o');
  96:src/../h/list.hpp ****         __putc('f');
  97:src/../h/list.hpp ****         __putc('\n');*/
  98:src/../h/list.hpp ****         if (!head) return 0;
GAS LISTING /tmp/cc1XRdp6.s 			page 5


  85              		.loc 2 98 14 is_stmt 0
  86 005c 17050000 		ld	a0,.LANCHOR0
  86      03350500 
  87              		.loc 2 98 9
  88 0064 63020504 		beqz	a0,.L8
  99:src/../h/list.hpp **** 
 100:src/../h/list.hpp ****         T* ret = head->data;
  89              		.loc 2 100 12
  90 0068 83340500 		ld	s1,0(a0)
  91              	.LVL5:
 101:src/../h/list.hpp ****         Node* old = head;
 102:src/../h/list.hpp ****         head = head->next;
  92              		.loc 2 102 22
  93 006c 83378500 		ld	a5,8(a0)
  94              		.loc 2 102 9
  95 0070 17070000 		sd	a5,.LANCHOR0,a4
  95      2330F700 
 103:src/../h/list.hpp ****         if (!head) tail = 0;
  96              		.loc 2 103 9
  97 0078 63820702 		beqz	a5,.L10
  98              	.L7:
  99              	.LVL6:
 100              	.LBB68:
 101              	.LBB69:
  32:src/../h/list.hpp ****         }
 102              		.loc 2 32 34
 103 007c 97000000 		call	_ZN15MemoryAllocator4freeEPv@plt
 103      E7800000 
 104              	.LVL7:
 105              	.L5:
 106              	.LBE69:
 107              	.LBE68:
 108              	.LBE67:
 109              	.LBE66:
  16:src/scheduler.cpp **** 
 110              		.loc 1 16 1
 111 0084 13850400 		mv	a0,s1
 112 0088 83308101 		ld	ra,24(sp)
 113              		.cfi_remember_state
 114              		.cfi_restore 1
 115 008c 03340101 		ld	s0,16(sp)
 116              		.cfi_restore 8
 117              		.cfi_def_cfa 2, 32
 118 0090 83348100 		ld	s1,8(sp)
 119              		.cfi_restore 9
 120 0094 13010102 		addi	sp,sp,32
 121              		.cfi_def_cfa_offset 0
 122 0098 67800000 		jr	ra
 123              	.LVL8:
 124              	.L10:
 125              		.cfi_restore_state
 126              	.LBB71:
 127              	.LBB70:
 128              		.loc 2 103 20
 129 009c 97070000 		sd	zero,.LANCHOR0+8,a5
 129      23B00700 
 130 00a4 6FF09FFD 		j	.L7
GAS LISTING /tmp/cc1XRdp6.s 			page 6


 131              	.LVL9:
 132              	.L8:
  98:src/../h/list.hpp **** 
 133              		.loc 2 98 27
 134 00a8 93040500 		mv	s1,a0
 135              	.LVL10:
 136              	.LBE70:
 137              	.LBE71:
  15:src/scheduler.cpp **** }
 138              		.loc 1 15 5 is_stmt 1
  15:src/scheduler.cpp **** }
 139              		.loc 1 15 12 is_stmt 0
 140 00ac 6FF09FFD 		j	.L5
 141              		.cfi_endproc
 142              	.LFE52:
 144              		.align	2
 145              		.globl	_ZN9Scheduler3putEP3TCB
 147              	_ZN9Scheduler3putEP3TCB:
 148              	.LFB53:
  18:src/scheduler.cpp ****     //return readyQueue.putLast(tcb);
 149              		.loc 1 18 31 is_stmt 1
 150              		.cfi_startproc
 151              	.LVL11:
 152 00b0 130101FE 		addi	sp,sp,-32
 153              		.cfi_def_cfa_offset 32
 154 00b4 233C1100 		sd	ra,24(sp)
 155 00b8 23388100 		sd	s0,16(sp)
 156 00bc 23349100 		sd	s1,8(sp)
 157              		.cfi_offset 1, -8
 158              		.cfi_offset 8, -16
 159              		.cfi_offset 9, -24
 160 00c0 13040102 		addi	s0,sp,32
 161              		.cfi_def_cfa 8, 0
 162 00c4 93040500 		mv	s1,a0
  20:src/scheduler.cpp ****     //putc('a');
 163              		.loc 1 20 5
 164              	.LVL12:
 165              	.LBB72:
 166              	.LBB73:
 167              	.LBB74:
 168              	.LBB75:
  24:src/../h/list.hpp ****         }
 169              		.loc 2 24 45 is_stmt 0
 170 00c8 13050001 		li	a0,16
 171              	.LVL13:
 172 00cc 97000000 		call	_ZN15MemoryAllocator8allocateEm@plt
 172      E7800000 
 173              	.LVL14:
 174              	.LBE75:
 175              	.LBE74:
 176              	.LBB76:
 177              	.LBB77:
  21:src/../h/list.hpp **** 
 178              		.loc 2 21 58
 179 00d4 23309500 		sd	s1,0(a0)
 180 00d8 23340500 		sd	zero,8(a0)
 181              	.LVL15:
GAS LISTING /tmp/cc1XRdp6.s 			page 7


 182              	.LBE77:
 183              	.LBE76:
  58:src/../h/list.hpp ****         else {
 184              		.loc 2 58 14
 185 00dc 97070000 		ld	a5,.LANCHOR0+8
 185      83B70700 
  58:src/../h/list.hpp ****         else {
 186              		.loc 2 58 9
 187 00e4 63820702 		beqz	a5,.L15
  60:src/../h/list.hpp ****             tail = newNode;
 188              		.loc 2 60 13
 189 00e8 23B4A700 		sd	a0,8(a5)
  61:src/../h/list.hpp ****         }
 190              		.loc 2 61 13
 191 00ec 97070000 		sd	a0,.LANCHOR0+8,a5
 191      23B0A700 
 192              	.LVL16:
 193              	.L11:
 194              	.LBE73:
 195              	.LBE72:
  23:src/scheduler.cpp **** 
 196              		.loc 1 23 1
 197 00f4 83308101 		ld	ra,24(sp)
 198              		.cfi_remember_state
 199              		.cfi_restore 1
 200 00f8 03340101 		ld	s0,16(sp)
 201              		.cfi_restore 8
 202              		.cfi_def_cfa 2, 32
 203 00fc 83348100 		ld	s1,8(sp)
 204              		.cfi_restore 9
 205              	.LVL17:
 206 0100 13010102 		addi	sp,sp,32
 207              		.cfi_def_cfa_offset 0
 208 0104 67800000 		jr	ra
 209              	.LVL18:
 210              	.L15:
 211              		.cfi_restore_state
 212              	.LBB79:
 213              	.LBB78:
  58:src/../h/list.hpp ****         else {
 214              		.loc 2 58 20
 215 0108 97070000 		lla	a5,.LANCHOR0
 215      93870700 
 216 0110 23B4A700 		sd	a0,8(a5)
 217 0114 23B0A700 		sd	a0,0(a5)
 218 0118 6FF0DFFD 		j	.L11
 219              	.LBE78:
 220              	.LBE79:
 221              		.cfi_endproc
 222              	.LFE53:
 224              		.align	2
 225              		.globl	_ZN9Scheduler14timerInterruptEv
 227              	_ZN9Scheduler14timerInterruptEv:
 228              	.LFB54:
  25:src/scheduler.cpp ****     //__putc('a');
 229              		.loc 1 25 34 is_stmt 1
 230              		.cfi_startproc
GAS LISTING /tmp/cc1XRdp6.s 			page 8


  27:src/scheduler.cpp ****     if (!first) return;
 231              		.loc 1 27 5
 232              	.LVL19:
 233              	.LBB92:
 234              	.LBB93:
 104:src/../h/list.hpp ****         delete old;
 105:src/../h/list.hpp ****         //printStatus();
 106:src/../h/list.hpp **** 
 107:src/../h/list.hpp ****         return ret;
 108:src/../h/list.hpp ****     }
 109:src/../h/list.hpp **** 
 110:src/../h/list.hpp ****     T* takeLast() {
 111:src/../h/list.hpp ****         if (!head) return 0;
 112:src/../h/list.hpp **** 
 113:src/../h/list.hpp ****         Node* curr = head, *prev = 0;
 114:src/../h/list.hpp ****         while (curr->next) prev = curr, curr = curr->next;
 115:src/../h/list.hpp **** 
 116:src/../h/list.hpp ****         if(prev) prev->next = 0;
 117:src/../h/list.hpp ****         else head = 0;
 118:src/../h/list.hpp ****         tail = prev;
 119:src/../h/list.hpp ****         T* ret = curr->data;
 120:src/../h/list.hpp **** 
 121:src/../h/list.hpp ****         return ret;
 122:src/../h/list.hpp ****     }
 123:src/../h/list.hpp **** 
 124:src/../h/list.hpp ****     T* getFirst() {
 125:src/../h/list.hpp ****         if(!head) return 0;
 235              		.loc 2 125 13 is_stmt 0
 236 011c 97070000 		ld	a5,.LANCHOR0+16
 236      83B70700 
 237              		.loc 2 125 9
 238 0124 6388070A 		beqz	a5,.L22
 239              	.LBE93:
 240              	.LBE92:
  25:src/scheduler.cpp ****     //__putc('a');
 241              		.loc 1 25 34
 242 0128 130101FE 		addi	sp,sp,-32
 243              		.cfi_def_cfa_offset 32
 244 012c 233C1100 		sd	ra,24(sp)
 245 0130 23388100 		sd	s0,16(sp)
 246 0134 23349100 		sd	s1,8(sp)
 247              		.cfi_offset 1, -8
 248              		.cfi_offset 8, -16
 249              		.cfi_offset 9, -24
 250 0138 13040102 		addi	s0,sp,32
 251              		.cfi_def_cfa 8, 0
 252              	.LBB95:
 253              	.LBB94:
 126:src/../h/list.hpp ****         return head->data;
 254              		.loc 2 126 22
 255 013c 83B40700 		ld	s1,0(a5)
 256              	.LVL20:
 257              	.LBE94:
 258              	.LBE95:
  28:src/scheduler.cpp ****     first->time--;
 259              		.loc 1 28 5 is_stmt 1
 260 0140 63800408 		beqz	s1,.L16
GAS LISTING /tmp/cc1XRdp6.s 			page 9


  29:src/scheduler.cpp ****     while(first) {
 261              		.loc 1 29 5
  29:src/scheduler.cpp ****     while(first) {
 262              		.loc 1 29 12 is_stmt 0
 263 0144 83B70400 		ld	a5,0(s1)
  29:src/scheduler.cpp ****     while(first) {
 264              		.loc 1 29 16
 265 0148 9387F7FF 		addi	a5,a5,-1
 266 014c 23B0F400 		sd	a5,0(s1)
 267 0150 6F004004 		j	.L20
 268              	.LVL21:
 269              	.L25:
 270              	.LBB96:
 271              	.LBB97:
 103:src/../h/list.hpp ****         delete old;
 272              		.loc 2 103 20
 273 0154 97070000 		sd	zero,.LANCHOR0+24,a5
 273      23B00700 
 274              	.L19:
 275              	.LVL22:
 276              	.LBB98:
 277              	.LBB99:
  32:src/../h/list.hpp ****         }
 278              		.loc 2 32 34
 279 015c 97000000 		call	_ZN15MemoryAllocator4freeEPv@plt
 279      E7800000 
 280              	.LVL23:
 281              	.L18:
 282              	.LBE99:
 283              	.LBE98:
 284              	.LBE97:
 285              	.LBE96:
  33:src/scheduler.cpp ****         Scheduler::put(first->thread);
 286              		.loc 1 33 9 is_stmt 1
  33:src/scheduler.cpp ****         Scheduler::put(first->thread);
 287              		.loc 1 33 16 is_stmt 0
 288 0164 83B78400 		ld	a5,8(s1)
 289              	.LVL24:
 290              	.LBB101:
 291              	.LBB102:
 292              		.file 3 "src/../h/tcb.hpp"
   1:src/../h/tcb.hpp **** //
   2:src/../h/tcb.hpp **** // Created by os on 9/9/22.
   3:src/../h/tcb.hpp **** //
   4:src/../h/tcb.hpp **** 
   5:src/../h/tcb.hpp **** #ifndef OSMIUM_TCB_HPP
   6:src/../h/tcb.hpp **** #define OSMIUM_TCB_HPP
   7:src/../h/tcb.hpp **** 
   8:src/../h/tcb.hpp **** #include "../lib/hw.h"
   9:src/../h/tcb.hpp **** //#include "../h/scheduler.hpp"
  10:src/../h/tcb.hpp **** #include "riscv.hpp"
  11:src/../h/tcb.hpp **** #include "memory_allocator.hpp"
  12:src/../h/tcb.hpp **** 
  13:src/../h/tcb.hpp **** class Scheduler;
  14:src/../h/tcb.hpp **** 
  15:src/../h/tcb.hpp **** 
  16:src/../h/tcb.hpp **** class TCB {
GAS LISTING /tmp/cc1XRdp6.s 			page 10


  17:src/../h/tcb.hpp **** public:
  18:src/../h/tcb.hpp ****     using Body = void (*)(void*);
  19:src/../h/tcb.hpp **** 
  20:src/../h/tcb.hpp ****     static TCB* createTCB(Body body, void* args);
  21:src/../h/tcb.hpp **** 
  22:src/../h/tcb.hpp ****     static TCB* createDeactivatedTCB(Body body, void* args);
  23:src/../h/tcb.hpp **** 
  24:src/../h/tcb.hpp ****     static TCB* createSupervisorTCB(Body body, void* args);
  25:src/../h/tcb.hpp **** 
  26:src/../h/tcb.hpp ****     bool isFinished() const { return finished; }
  27:src/../h/tcb.hpp **** 
  28:src/../h/tcb.hpp ****     void setFinished(bool val) { finished = val; }
  29:src/../h/tcb.hpp **** 
  30:src/../h/tcb.hpp ****     bool isBlocked() const { return blocked; }
  31:src/../h/tcb.hpp **** 
  32:src/../h/tcb.hpp ****     void setBlocked(bool val) { blocked = val; }
 293              		.loc 3 32 33 is_stmt 1
 294              		.loc 3 32 41 is_stmt 0
 295 0168 A38C0700 		sb	zero,25(a5)
 296              	.LVL25:
 297              	.LBE102:
 298              	.LBE101:
  34:src/scheduler.cpp ****         delete first;
 299              		.loc 1 34 9 is_stmt 1
  34:src/scheduler.cpp ****         delete first;
 300              		.loc 1 34 23 is_stmt 0
 301 016c 03B58400 		ld	a0,8(s1)
 302 0170 97000000 		call	_ZN9Scheduler3putEP3TCB
 302      E7800000 
 303              	.LVL26:
  35:src/scheduler.cpp ****         first = sleepQueue.getFirst();
 304              		.loc 1 35 9 is_stmt 1
 305              	.LBB103:
 306              	.LBB104:
 307              		.file 4 "src/../h/scheduler.hpp"
   1:src/../h/scheduler.hpp **** //
   2:src/../h/scheduler.hpp **** // Created by os on 9/9/22.
   3:src/../h/scheduler.hpp **** //
   4:src/../h/scheduler.hpp **** 
   5:src/../h/scheduler.hpp **** #ifndef OSMIUM_SCHEDULER_HPP
   6:src/../h/scheduler.hpp **** #define OSMIUM_SCHEDULER_HPP
   7:src/../h/scheduler.hpp **** 
   8:src/../h/scheduler.hpp **** #include "syscall_c.h"
   9:src/../h/scheduler.hpp **** #include "list.hpp"
  10:src/../h/scheduler.hpp **** 
  11:src/../h/scheduler.hpp **** #include "tcb.hpp"
  12:src/../h/scheduler.hpp **** 
  13:src/../h/scheduler.hpp **** class Scheduler {
  14:src/../h/scheduler.hpp **** private:
  15:src/../h/scheduler.hpp ****     static List<TCB> readyQueue;
  16:src/../h/scheduler.hpp **** 
  17:src/../h/scheduler.hpp ****     struct sleepNode {
  18:src/../h/scheduler.hpp ****         time_t time;
  19:src/../h/scheduler.hpp ****         TCB* thread;
  20:src/../h/scheduler.hpp **** 
  21:src/../h/scheduler.hpp ****         sleepNode(time_t time, TCB* thread) : time(time), thread(thread) {}
  22:src/../h/scheduler.hpp **** 
GAS LISTING /tmp/cc1XRdp6.s 			page 11


  23:src/../h/scheduler.hpp ****         void* operator new(size_t size) {
  24:src/../h/scheduler.hpp ****             return MemoryAllocator::allocate(size);
  25:src/../h/scheduler.hpp ****         }
  26:src/../h/scheduler.hpp **** 
  27:src/../h/scheduler.hpp ****         void* operator new[](size_t size) {
  28:src/../h/scheduler.hpp ****             return MemoryAllocator::allocate(size);
  29:src/../h/scheduler.hpp ****         }
  30:src/../h/scheduler.hpp **** 
  31:src/../h/scheduler.hpp ****         void operator delete(void* ptr) {
  32:src/../h/scheduler.hpp ****             MemoryAllocator::free(ptr);
 308              		.loc 4 32 13
 309              		.loc 4 32 34 is_stmt 0
 310 0178 13850400 		mv	a0,s1
 311 017c 97000000 		call	_ZN15MemoryAllocator4freeEPv@plt
 311      E7800000 
 312              	.LVL27:
 313              	.LBE104:
 314              	.LBE103:
  36:src/scheduler.cpp ****     }
 315              		.loc 1 36 9 is_stmt 1
 316              	.LBB105:
 317              	.LBB106:
 125:src/../h/list.hpp ****         return head->data;
 318              		.loc 2 125 13 is_stmt 0
 319 0184 97070000 		ld	a5,.LANCHOR0+16
 319      83B70700 
 125:src/../h/list.hpp ****         return head->data;
 320              		.loc 2 125 9
 321 018c 638A0702 		beqz	a5,.L16
 322              		.loc 2 126 22
 323 0190 83B40700 		ld	s1,0(a5)
 324              	.LVL28:
 325              	.L20:
 326              	.LBE106:
 327              	.LBE105:
  30:src/scheduler.cpp ****         if (first->time != 0) break;
 328              		.loc 1 30 5 is_stmt 1
  30:src/scheduler.cpp ****         if (first->time != 0) break;
 329              		.loc 1 30 11
 330 0194 63860402 		beqz	s1,.L16
  31:src/scheduler.cpp ****         sleepQueue.takeFirst();
 331              		.loc 1 31 9
  31:src/scheduler.cpp ****         sleepQueue.takeFirst();
 332              		.loc 1 31 20 is_stmt 0
 333 0198 83B70400 		ld	a5,0(s1)
  31:src/scheduler.cpp ****         sleepQueue.takeFirst();
 334              		.loc 1 31 9
 335 019c 63920702 		bnez	a5,.L16
  32:src/scheduler.cpp ****         first->thread->setBlocked(false);
 336              		.loc 1 32 9 is_stmt 1
 337              	.LVL29:
 338              	.LBB107:
 339              	.LBB100:
  98:src/../h/list.hpp **** 
 340              		.loc 2 98 14 is_stmt 0
 341 01a0 17050000 		ld	a0,.LANCHOR0+16
 341      03350500 
GAS LISTING /tmp/cc1XRdp6.s 			page 12


  98:src/../h/list.hpp **** 
 342              		.loc 2 98 9
 343 01a8 E30E05FA 		beqz	a0,.L18
 344              	.LVL30:
 102:src/../h/list.hpp ****         if (!head) tail = 0;
 345              		.loc 2 102 22
 346 01ac 83378500 		ld	a5,8(a0)
 102:src/../h/list.hpp ****         if (!head) tail = 0;
 347              		.loc 2 102 9
 348 01b0 17070000 		sd	a5,.LANCHOR0+16,a4
 348      2330F700 
 349              	.LVL31:
 103:src/../h/list.hpp ****         delete old;
 350              		.loc 2 103 9
 351 01b8 E39207FA 		bnez	a5,.L19
 352 01bc 6FF09FF9 		j	.L25
 353              	.LVL32:
 354              	.L16:
 355              	.LBE100:
 356              	.LBE107:
  38:src/scheduler.cpp **** 
 357              		.loc 1 38 1
 358 01c0 83308101 		ld	ra,24(sp)
 359              		.cfi_restore 1
 360 01c4 03340101 		ld	s0,16(sp)
 361              		.cfi_restore 8
 362              		.cfi_def_cfa 2, 32
 363 01c8 83348100 		ld	s1,8(sp)
 364              		.cfi_restore 9
 365              	.LVL33:
 366 01cc 13010102 		addi	sp,sp,32
 367              		.cfi_def_cfa_offset 0
 368 01d0 67800000 		jr	ra
 369              	.LVL34:
 370              	.L22:
 371 01d4 67800000 		ret
 372              		.cfi_endproc
 373              	.LFE54:
 375              		.align	2
 376              		.globl	_ZN9Scheduler9timeSleepEm
 378              	_ZN9Scheduler9timeSleepEm:
 379              	.LFB55:
  40:src/scheduler.cpp ****     TCB* old = TCB::running;
 380              		.loc 1 40 40 is_stmt 1
 381              		.cfi_startproc
 382              	.LVL35:
 383 01d8 130101FD 		addi	sp,sp,-48
 384              		.cfi_def_cfa_offset 48
 385 01dc 23341102 		sd	ra,40(sp)
 386 01e0 23308102 		sd	s0,32(sp)
 387 01e4 233C9100 		sd	s1,24(sp)
 388 01e8 23382101 		sd	s2,16(sp)
 389 01ec 23343101 		sd	s3,8(sp)
 390              		.cfi_offset 1, -8
 391              		.cfi_offset 8, -16
 392              		.cfi_offset 9, -24
 393              		.cfi_offset 18, -32
GAS LISTING /tmp/cc1XRdp6.s 			page 13


 394              		.cfi_offset 19, -40
 395 01f0 13040103 		addi	s0,sp,48
 396              		.cfi_def_cfa 8, 0
 397 01f4 13090500 		mv	s2,a0
  41:src/scheduler.cpp ****     old->setBlocked(true);
 398              		.loc 1 41 5
  41:src/scheduler.cpp ****     old->setBlocked(true);
 399              		.loc 1 41 10 is_stmt 0
 400 01f8 97070000 		la	a5,_ZN3TCB7runningE
 400      83B70700 
 401 0200 83B90700 		ld	s3,0(a5)
 402              	.LVL36:
  42:src/scheduler.cpp ****     sleepNode* sn = new sleepNode(time, old);
 403              		.loc 1 42 5 is_stmt 1
 404              	.LBB129:
 405              	.LBB130:
 406              		.loc 3 32 33
 407              		.loc 3 32 41 is_stmt 0
 408 0204 93071000 		li	a5,1
 409 0208 A38CF900 		sb	a5,25(s3)
 410              	.LVL37:
 411              	.LBE130:
 412              	.LBE129:
  43:src/scheduler.cpp ****     sleepQueue.putSorted(sn);
 413              		.loc 1 43 5 is_stmt 1
 414              	.LBB131:
 415              	.LBB132:
  24:src/../h/scheduler.hpp ****         }
 416              		.loc 4 24 13
  24:src/../h/scheduler.hpp ****         }
 417              		.loc 4 24 45 is_stmt 0
 418 020c 13050001 		li	a0,16
 419              	.LVL38:
 420 0210 97000000 		call	_ZN15MemoryAllocator8allocateEm@plt
 420      E7800000 
 421              	.LVL39:
 422 0218 93040500 		mv	s1,a0
 423              	.LVL40:
 424              	.LBE132:
 425              	.LBE131:
 426              	.LBB133:
 427              	.LBB134:
  21:src/../h/scheduler.hpp **** 
 428              		.loc 4 21 72
 429 021c 23302501 		sd	s2,0(a0)
 430 0220 23343501 		sd	s3,8(a0)
 431              	.LVL41:
 432              	.LBE134:
 433              	.LBE133:
  44:src/scheduler.cpp ****     TCB::dispatch();
 434              		.loc 1 44 5 is_stmt 1
 435              	.LBB135:
 436              	.LBB136:
 437              	.LBB137:
 438              	.LBB138:
  24:src/../h/list.hpp ****         }
 439              		.loc 2 24 45 is_stmt 0
GAS LISTING /tmp/cc1XRdp6.s 			page 14


 440 0224 13050001 		li	a0,16
 441 0228 97000000 		call	_ZN15MemoryAllocator8allocateEm@plt
 441      E7800000 
 442              	.LVL42:
 443              	.LBE138:
 444              	.LBE137:
 445              	.LBB139:
 446              	.LBB140:
  21:src/../h/list.hpp **** 
 447              		.loc 2 21 58
 448 0230 23309500 		sd	s1,0(a0)
 449 0234 23340500 		sd	zero,8(a0)
 450              	.LVL43:
 451              	.LBE140:
 452              	.LBE139:
  68:src/../h/list.hpp ****         Node* curr = head, *prev = nullptr;
 453              		.loc 2 68 14
 454 0238 97070000 		ld	a5,.LANCHOR0+16
 454      83B70700 
  68:src/../h/list.hpp ****         Node* curr = head, *prev = nullptr;
 455              		.loc 2 68 9
 456 0240 63860704 		beqz	a5,.L37
 457              	.LVL44:
  70:src/../h/list.hpp ****         uint64 currTime = *(uint64*)(curr->data);
 458              		.loc 2 70 16
 459 0244 03B60400 		ld	a2,0(s1)
 460              	.LVL45:
  71:src/../h/list.hpp ****         if (nodeTime < currTime) { *(uint64*)(curr->data) -= nodeTime; putFirst(data); return; }
 461              		.loc 2 71 44
 462 0248 83B60700 		ld	a3,0(a5)
  71:src/../h/list.hpp ****         if (nodeTime < currTime) { *(uint64*)(curr->data) -= nodeTime; putFirst(data); return; }
 463              		.loc 2 71 16
 464 024c 03B70600 		ld	a4,0(a3)
 465              	.LVL46:
  72:src/../h/list.hpp ****         while (curr) {
 466              		.loc 2 72 9
 467 0250 6368E604 		bltu	a2,a4,.L38
  69:src/../h/list.hpp ****         uint64 nodeTime = *(uint64*)data;
 468              		.loc 2 69 29
 469 0254 13060000 		li	a2,0
 470              	.LVL47:
 471              	.L29:
  73:src/../h/list.hpp ****             if (*(uint64*)data >= *(uint64*)(curr->data)) {
 472              		.loc 2 73 9 is_stmt 1
 473 0258 63880708 		beqz	a5,.L31
  74:src/../h/list.hpp ****                 *(uint64*)data -= *(uint64*)curr->data;
 474              		.loc 2 74 32 is_stmt 0
 475 025c 03B70400 		ld	a4,0(s1)
  74:src/../h/list.hpp ****                 *(uint64*)data -= *(uint64*)curr->data;
 476              		.loc 2 74 52
 477 0260 83B60700 		ld	a3,0(a5)
  74:src/../h/list.hpp ****                 *(uint64*)data -= *(uint64*)curr->data;
 478              		.loc 2 74 32
 479 0264 83B60600 		ld	a3,0(a3)
  74:src/../h/list.hpp ****                 *(uint64*)data -= *(uint64*)curr->data;
 480              		.loc 2 74 13
 481 0268 637CD706 		bgeu	a4,a3,.L39
GAS LISTING /tmp/cc1XRdp6.s 			page 15


 482              	.LVL48:
  79:src/../h/list.hpp ****             *(uint64*)data -= *(uint64*)curr->data;
 483              		.loc 2 79 13
 484 026c 83B68700 		ld	a3,8(a5)
 485              	.LVL49:
  80:src/../h/list.hpp ****         }
 486              		.loc 2 80 47
 487 0270 03B60600 		ld	a2,0(a3)
  80:src/../h/list.hpp ****         }
 488              		.loc 2 80 28
 489 0274 03360600 		ld	a2,0(a2)
 490 0278 3307C740 		sub	a4,a4,a2
  80:src/../h/list.hpp ****         }
 491              		.loc 2 80 13
 492 027c 23B0E400 		sd	a4,0(s1)
  78:src/../h/list.hpp ****             curr = curr->next;
 493              		.loc 2 78 13
 494 0280 13860700 		mv	a2,a5
  79:src/../h/list.hpp ****             *(uint64*)data -= *(uint64*)curr->data;
 495              		.loc 2 79 13
 496 0284 93870600 		mv	a5,a3
 497              	.LVL50:
  73:src/../h/list.hpp ****             if (*(uint64*)data >= *(uint64*)(curr->data)) {
 498              		.loc 2 73 9
 499 0288 6FF01FFD 		j	.L29
 500              	.LVL51:
 501              	.L37:
  68:src/../h/list.hpp ****         Node* curr = head, *prev = nullptr;
 502              		.loc 2 68 22
 503 028c 97070000 		lla	a5,.LANCHOR0
 503      93870700 
 504 0294 23BCA700 		sd	a0,24(a5)
 505 0298 23B8A700 		sd	a0,16(a5)
  68:src/../h/list.hpp ****         Node* curr = head, *prev = nullptr;
 506              		.loc 2 68 45
 507 029c 6F000006 		j	.L28
 508              	.LVL52:
 509              	.L38:
  72:src/../h/list.hpp ****         while (curr) {
 510              		.loc 2 72 59
 511 02a0 3307C740 		sub	a4,a4,a2
 512              	.LVL53:
  72:src/../h/list.hpp ****         while (curr) {
 513              		.loc 2 72 36
 514 02a4 23B0E600 		sd	a4,0(a3)
 515              	.LVL54:
 516              	.LBB141:
 517              	.LBB142:
 518              	.LBB143:
 519              	.LBB144:
  24:src/../h/list.hpp ****         }
 520              		.loc 2 24 45
 521 02a8 13050001 		li	a0,16
 522              	.LVL55:
 523 02ac 97000000 		call	_ZN15MemoryAllocator8allocateEm@plt
 523      E7800000 
 524              	.LVL56:
GAS LISTING /tmp/cc1XRdp6.s 			page 16


 525              	.LBE144:
 526              	.LBE143:
  48:src/../h/list.hpp ****         head = newNode;
 527              		.loc 2 48 25
 528 02b4 97070000 		lla	a5,.LANCHOR0
 528      93870700 
 529 02bc 03B70701 		ld	a4,16(a5)
 530              	.LVL57:
 531              	.LBB145:
 532              	.LBB146:
  21:src/../h/list.hpp **** 
 533              		.loc 2 21 58
 534 02c0 23309500 		sd	s1,0(a0)
 535 02c4 2334E500 		sd	a4,8(a0)
 536              	.LVL58:
 537              	.LBE146:
 538              	.LBE145:
  49:src/../h/list.hpp ****         if (!tail) tail = head;
 539              		.loc 2 49 9
 540 02c8 23B8A700 		sd	a0,16(a5)
  50:src/../h/list.hpp ****     }
 541              		.loc 2 50 14
 542 02cc 83B78701 		ld	a5,24(a5)
  50:src/../h/list.hpp ****     }
 543              		.loc 2 50 9
 544 02d0 63960702 		bnez	a5,.L28
  50:src/../h/list.hpp ****     }
 545              		.loc 2 50 20
 546 02d4 97070000 		sd	a0,.LANCHOR0+24,a5
 546      23B0A700 
 547              	.LVL59:
 548              	.LBE142:
 549              	.LBE141:
  72:src/../h/list.hpp ****         while (curr) {
 550              		.loc 2 72 88
 551 02dc 6F000002 		j	.L28
 552              	.LVL60:
 553              	.L39:
  75:src/../h/list.hpp ****                 break;
 554              		.loc 2 75 32
 555 02e0 3307D740 		sub	a4,a4,a3
  75:src/../h/list.hpp ****                 break;
 556              		.loc 2 75 17
 557 02e4 23B0E400 		sd	a4,0(s1)
 558              	.L31:
  82:src/../h/list.hpp ****             newNode->next = curr->next;
 559              		.loc 2 82 9
 560 02e8 63820704 		beqz	a5,.L33
  83:src/../h/list.hpp ****             curr->next = newNode;
 561              		.loc 2 83 35
 562 02ec 03B78700 		ld	a4,8(a5)
  83:src/../h/list.hpp ****             curr->next = newNode;
 563              		.loc 2 83 13
 564 02f0 2334E500 		sd	a4,8(a0)
  84:src/../h/list.hpp ****             if (!curr->next) tail = newNode;
 565              		.loc 2 84 13
 566 02f4 23B4A700 		sd	a0,8(a5)
GAS LISTING /tmp/cc1XRdp6.s 			page 17


  85:src/../h/list.hpp ****         }
 567              		.loc 2 85 13
 568 02f8 63040502 		beqz	a0,.L40
 569              	.LVL61:
 570              	.L28:
 571              	.LBE136:
 572              	.LBE135:
  45:src/scheduler.cpp **** }
 573              		.loc 1 45 5 is_stmt 1
  45:src/scheduler.cpp **** }
 574              		.loc 1 45 18 is_stmt 0
 575 02fc 97000000 		call	_ZN3TCB8dispatchEv@plt
 575      E7800000 
 576              	.LVL62:
 577              		.loc 1 46 1
 578 0304 83308102 		ld	ra,40(sp)
 579              		.cfi_remember_state
 580              		.cfi_restore 1
 581 0308 03340102 		ld	s0,32(sp)
 582              		.cfi_restore 8
 583              		.cfi_def_cfa 2, 48
 584 030c 83348101 		ld	s1,24(sp)
 585              		.cfi_restore 9
 586              	.LVL63:
 587 0310 03390101 		ld	s2,16(sp)
 588              		.cfi_restore 18
 589              	.LVL64:
 590 0314 83398100 		ld	s3,8(sp)
 591              		.cfi_restore 19
 592              	.LVL65:
 593 0318 13010103 		addi	sp,sp,48
 594              		.cfi_def_cfa_offset 0
 595 031c 67800000 		jr	ra
 596              	.LVL66:
 597              	.L40:
 598              		.cfi_restore_state
 599              	.LBB148:
 600              	.LBB147:
  85:src/../h/list.hpp ****         }
 601              		.loc 2 85 30
 602 0320 97070000 		sd	a0,.LANCHOR0+24,a5
 602      23B0A700 
 603              	.LVL67:
 604 0328 6FF05FFD 		j	.L28
 605              	.LVL68:
 606              	.L33:
  87:src/../h/list.hpp ****             prev->next = newNode;
 607              		.loc 2 87 14
 608 032c 630A0600 		beqz	a2,.L34
  88:src/../h/list.hpp ****             tail = newNode;
 609              		.loc 2 88 13
 610 0330 2334A600 		sd	a0,8(a2)
  89:src/../h/list.hpp ****         }
 611              		.loc 2 89 13
 612 0334 97070000 		sd	a0,.LANCHOR0+24,a5
 612      23B0A700 
 613              	.LVL69:
GAS LISTING /tmp/cc1XRdp6.s 			page 18


 614 033c 6FF01FFC 		j	.L28
 615              	.LVL70:
 616              	.L34:
  91:src/../h/list.hpp ****     }
 617              		.loc 2 91 14
 618 0340 97070000 		lla	a5,.LANCHOR0
 618      93870700 
 619              	.LVL71:
 620 0348 23BCA700 		sd	a0,24(a5)
 621 034c 23B8A700 		sd	a0,16(a5)
 622 0350 6FF0DFFA 		j	.L28
 623              	.LBE147:
 624              	.LBE148:
 625              		.cfi_endproc
 626              	.LFE55:
 628              		.align	2
 630              	_GLOBAL__sub_I__ZN9Scheduler10readyQueueE:
 631              	.LFB80:
 632              		.loc 1 46 1 is_stmt 1
 633              		.cfi_startproc
 634 0354 130101FF 		addi	sp,sp,-16
 635              		.cfi_def_cfa_offset 16
 636 0358 23341100 		sd	ra,8(sp)
 637 035c 23308100 		sd	s0,0(sp)
 638              		.cfi_offset 1, -8
 639              		.cfi_offset 8, -16
 640 0360 13040101 		addi	s0,sp,16
 641              		.cfi_def_cfa 8, 0
 642              		.loc 1 46 1 is_stmt 0
 643 0364 B7050100 		li	a1,65536
 644 0368 9385F5FF 		addi	a1,a1,-1
 645 036c 13051000 		li	a0,1
 646 0370 97000000 		call	_Z41__static_initialization_and_destruction_0ii
 646      E7800000 
 647              	.LVL72:
 648 0378 83308100 		ld	ra,8(sp)
 649              		.cfi_restore 1
 650 037c 03340100 		ld	s0,0(sp)
 651              		.cfi_restore 8
 652              		.cfi_def_cfa 2, 16
 653 0380 13010101 		addi	sp,sp,16
 654              		.cfi_def_cfa_offset 0
 655 0384 67800000 		jr	ra
 656              		.cfi_endproc
 657              	.LFE80:
 659              		.section	.init_array,"aw"
 660              		.align	3
 661 0000 00000000 		.dword	_GLOBAL__sub_I__ZN9Scheduler10readyQueueE
 661      00000000 
 662              		.globl	_ZN9Scheduler10sleepQueueE
 663              		.globl	_ZN9Scheduler10readyQueueE
 664              		.bss
 665              		.align	3
 666              		.set	.LANCHOR0,. + 0
 669              	_ZN9Scheduler10readyQueueE:
 670 0000 00000000 		.zero	16
 670      00000000 
GAS LISTING /tmp/cc1XRdp6.s 			page 19


 670      00000000 
 670      00000000 
 673              	_ZN9Scheduler10sleepQueueE:
 674 0010 00000000 		.zero	16
 674      00000000 
 674      00000000 
 674      00000000 
 675              		.text
 676              	.Letext0:
 677              		.file 5 "src/../h/../lib/hw.h"
 678              		.file 6 "src/../h/memory_allocator.hpp"
 679              		.file 7 "src/../h/syscall_c.h"
GAS LISTING /tmp/cc1XRdp6.s 			page 20


DEFINED SYMBOLS
                            *ABS*:0000000000000000 scheduler.cpp
     /tmp/cc1XRdp6.s:8      .text:0000000000000000 _Z41__static_initialization_and_destruction_0ii
     /tmp/cc1XRdp6.s:12     .text:0000000000000000 .L0 
     /tmp/cc1XRdp6.s:14     .text:0000000000000000 .L0 
     /tmp/cc1XRdp6.s:15     .text:0000000000000004 .L0 
     /tmp/cc1XRdp6.s:17     .text:0000000000000008 .L0 
     /tmp/cc1XRdp6.s:19     .text:000000000000000c .L0 
     /tmp/cc1XRdp6.s:21     .text:000000000000000c .L0 
     /tmp/cc1XRdp6.s:25     .text:0000000000000018 .L0 
     /tmp/cc1XRdp6.s:26     .text:0000000000000018 .L0 
     /tmp/cc1XRdp6.s:27     .text:0000000000000018 .L0 
     /tmp/cc1XRdp6.s:29     .text:000000000000001c .L0 
     /tmp/cc1XRdp6.s:32     .text:0000000000000020 .L0 
     /tmp/cc1XRdp6.s:34     .text:0000000000000020 .L0 
     /tmp/cc1XRdp6.s:43     .text:000000000000002c .L0 
     /tmp/cc1XRdp6.s:60     .text:0000000000000044 .L0 
     /tmp/cc1XRdp6.s:61     .text:0000000000000048 .L0 
     /tmp/cc1XRdp6.s:67     .text:0000000000000048 _ZN9Scheduler3getEv
     /tmp/cc1XRdp6.s:70     .text:0000000000000048 .L0 
     /tmp/cc1XRdp6.s:71     .text:0000000000000048 .L0 
     /tmp/cc1XRdp6.s:72     .text:000000000000004c .L0 
     /tmp/cc1XRdp6.s:76     .text:0000000000000058 .L0 
     /tmp/cc1XRdp6.s:77     .text:0000000000000058 .L0 
     /tmp/cc1XRdp6.s:78     .text:0000000000000058 .L0 
     /tmp/cc1XRdp6.s:80     .text:000000000000005c .L0 
     /tmp/cc1XRdp6.s:85     .text:000000000000005c .L0 
     /tmp/cc1XRdp6.s:86     .text:000000000000005c .L0 
     /tmp/cc1XRdp6.s:88     .text:0000000000000064 .L0 
     /tmp/cc1XRdp6.s:90     .text:0000000000000068 .L0 
     /tmp/cc1XRdp6.s:93     .text:000000000000006c .L0 
     /tmp/cc1XRdp6.s:95     .text:0000000000000070 .L0 
     /tmp/cc1XRdp6.s:97     .text:0000000000000078 .L0 
     /tmp/cc1XRdp6.s:103    .text:000000000000007c .L0 
     /tmp/cc1XRdp6.s:111    .text:0000000000000084 .L0 
     /tmp/cc1XRdp6.s:113    .text:000000000000008c .L0 
     /tmp/cc1XRdp6.s:114    .text:000000000000008c .L0 
     /tmp/cc1XRdp6.s:116    .text:0000000000000090 .L0 
     /tmp/cc1XRdp6.s:117    .text:0000000000000090 .L0 
     /tmp/cc1XRdp6.s:119    .text:0000000000000094 .L0 
     /tmp/cc1XRdp6.s:121    .text:0000000000000098 .L0 
     /tmp/cc1XRdp6.s:125    .text:000000000000009c .L0 
     /tmp/cc1XRdp6.s:129    .text:000000000000009c .L0 
     /tmp/cc1XRdp6.s:134    .text:00000000000000a8 .L0 
     /tmp/cc1XRdp6.s:139    .text:00000000000000ac .L0 
     /tmp/cc1XRdp6.s:140    .text:00000000000000ac .L0 
     /tmp/cc1XRdp6.s:141    .text:00000000000000b0 .L0 
     /tmp/cc1XRdp6.s:147    .text:00000000000000b0 _ZN9Scheduler3putEP3TCB
     /tmp/cc1XRdp6.s:150    .text:00000000000000b0 .L0 
     /tmp/cc1XRdp6.s:152    .text:00000000000000b0 .L0 
     /tmp/cc1XRdp6.s:153    .text:00000000000000b4 .L0 
     /tmp/cc1XRdp6.s:157    .text:00000000000000c0 .L0 
     /tmp/cc1XRdp6.s:158    .text:00000000000000c0 .L0 
     /tmp/cc1XRdp6.s:159    .text:00000000000000c0 .L0 
     /tmp/cc1XRdp6.s:161    .text:00000000000000c4 .L0 
     /tmp/cc1XRdp6.s:169    .text:00000000000000c8 .L0 
     /tmp/cc1XRdp6.s:170    .text:00000000000000c8 .L0 
GAS LISTING /tmp/cc1XRdp6.s 			page 21


     /tmp/cc1XRdp6.s:179    .text:00000000000000d4 .L0 
     /tmp/cc1XRdp6.s:185    .text:00000000000000dc .L0 
     /tmp/cc1XRdp6.s:187    .text:00000000000000e4 .L0 
     /tmp/cc1XRdp6.s:189    .text:00000000000000e8 .L0 
     /tmp/cc1XRdp6.s:191    .text:00000000000000ec .L0 
     /tmp/cc1XRdp6.s:197    .text:00000000000000f4 .L0 
     /tmp/cc1XRdp6.s:198    .text:00000000000000f8 .L0 
     /tmp/cc1XRdp6.s:199    .text:00000000000000f8 .L0 
     /tmp/cc1XRdp6.s:201    .text:00000000000000fc .L0 
     /tmp/cc1XRdp6.s:202    .text:00000000000000fc .L0 
     /tmp/cc1XRdp6.s:204    .text:0000000000000100 .L0 
     /tmp/cc1XRdp6.s:207    .text:0000000000000104 .L0 
     /tmp/cc1XRdp6.s:211    .text:0000000000000108 .L0 
     /tmp/cc1XRdp6.s:215    .text:0000000000000108 .L0 
     /tmp/cc1XRdp6.s:221    .text:000000000000011c .L0 
     /tmp/cc1XRdp6.s:227    .text:000000000000011c _ZN9Scheduler14timerInterruptEv
     /tmp/cc1XRdp6.s:230    .text:000000000000011c .L0 
     /tmp/cc1XRdp6.s:231    .text:000000000000011c .L0 
     /tmp/cc1XRdp6.s:235    .text:000000000000011c .L0 
     /tmp/cc1XRdp6.s:236    .text:000000000000011c .L0 
     /tmp/cc1XRdp6.s:238    .text:0000000000000124 .L0 
     /tmp/cc1XRdp6.s:242    .text:0000000000000128 .L0 
     /tmp/cc1XRdp6.s:243    .text:000000000000012c .L0 
     /tmp/cc1XRdp6.s:247    .text:0000000000000138 .L0 
     /tmp/cc1XRdp6.s:248    .text:0000000000000138 .L0 
     /tmp/cc1XRdp6.s:249    .text:0000000000000138 .L0 
     /tmp/cc1XRdp6.s:251    .text:000000000000013c .L0 
     /tmp/cc1XRdp6.s:255    .text:000000000000013c .L0 
     /tmp/cc1XRdp6.s:260    .text:0000000000000140 .L0 
     /tmp/cc1XRdp6.s:262    .text:0000000000000144 .L0 
     /tmp/cc1XRdp6.s:263    .text:0000000000000144 .L0 
     /tmp/cc1XRdp6.s:265    .text:0000000000000148 .L0 
     /tmp/cc1XRdp6.s:273    .text:0000000000000154 .L0 
     /tmp/cc1XRdp6.s:279    .text:000000000000015c .L0 
     /tmp/cc1XRdp6.s:287    .text:0000000000000164 .L0 
     /tmp/cc1XRdp6.s:288    .text:0000000000000164 .L0 
     /tmp/cc1XRdp6.s:294    .text:0000000000000168 .L0 
     /tmp/cc1XRdp6.s:295    .text:0000000000000168 .L0 
     /tmp/cc1XRdp6.s:300    .text:000000000000016c .L0 
     /tmp/cc1XRdp6.s:301    .text:000000000000016c .L0 
     /tmp/cc1XRdp6.s:308    .text:0000000000000178 .L0 
     /tmp/cc1XRdp6.s:309    .text:0000000000000178 .L0 
     /tmp/cc1XRdp6.s:310    .text:0000000000000178 .L0 
     /tmp/cc1XRdp6.s:318    .text:0000000000000184 .L0 
     /tmp/cc1XRdp6.s:319    .text:0000000000000184 .L0 
     /tmp/cc1XRdp6.s:321    .text:000000000000018c .L0 
     /tmp/cc1XRdp6.s:323    .text:0000000000000190 .L0 
     /tmp/cc1XRdp6.s:329    .text:0000000000000194 .L0 
     /tmp/cc1XRdp6.s:330    .text:0000000000000194 .L0 
     /tmp/cc1XRdp6.s:332    .text:0000000000000198 .L0 
     /tmp/cc1XRdp6.s:333    .text:0000000000000198 .L0 
     /tmp/cc1XRdp6.s:335    .text:000000000000019c .L0 
     /tmp/cc1XRdp6.s:340    .text:00000000000001a0 .L0 
     /tmp/cc1XRdp6.s:341    .text:00000000000001a0 .L0 
     /tmp/cc1XRdp6.s:343    .text:00000000000001a8 .L0 
     /tmp/cc1XRdp6.s:346    .text:00000000000001ac .L0 
     /tmp/cc1XRdp6.s:348    .text:00000000000001b0 .L0 
GAS LISTING /tmp/cc1XRdp6.s 			page 22


     /tmp/cc1XRdp6.s:351    .text:00000000000001b8 .L0 
     /tmp/cc1XRdp6.s:358    .text:00000000000001c0 .L0 
     /tmp/cc1XRdp6.s:359    .text:00000000000001c4 .L0 
     /tmp/cc1XRdp6.s:361    .text:00000000000001c8 .L0 
     /tmp/cc1XRdp6.s:362    .text:00000000000001c8 .L0 
     /tmp/cc1XRdp6.s:364    .text:00000000000001cc .L0 
     /tmp/cc1XRdp6.s:367    .text:00000000000001d0 .L0 
     /tmp/cc1XRdp6.s:372    .text:00000000000001d8 .L0 
     /tmp/cc1XRdp6.s:378    .text:00000000000001d8 _ZN9Scheduler9timeSleepEm
     /tmp/cc1XRdp6.s:381    .text:00000000000001d8 .L0 
     /tmp/cc1XRdp6.s:383    .text:00000000000001d8 .L0 
     /tmp/cc1XRdp6.s:384    .text:00000000000001dc .L0 
     /tmp/cc1XRdp6.s:390    .text:00000000000001f0 .L0 
     /tmp/cc1XRdp6.s:391    .text:00000000000001f0 .L0 
     /tmp/cc1XRdp6.s:392    .text:00000000000001f0 .L0 
     /tmp/cc1XRdp6.s:393    .text:00000000000001f0 .L0 
     /tmp/cc1XRdp6.s:394    .text:00000000000001f0 .L0 
     /tmp/cc1XRdp6.s:396    .text:00000000000001f4 .L0 
     /tmp/cc1XRdp6.s:399    .text:00000000000001f8 .L0 
     /tmp/cc1XRdp6.s:400    .text:00000000000001f8 .L0 
     /tmp/cc1XRdp6.s:406    .text:0000000000000204 .L0 
     /tmp/cc1XRdp6.s:407    .text:0000000000000204 .L0 
     /tmp/cc1XRdp6.s:408    .text:0000000000000204 .L0 
     /tmp/cc1XRdp6.s:416    .text:000000000000020c .L0 
     /tmp/cc1XRdp6.s:417    .text:000000000000020c .L0 
     /tmp/cc1XRdp6.s:418    .text:000000000000020c .L0 
     /tmp/cc1XRdp6.s:429    .text:000000000000021c .L0 
     /tmp/cc1XRdp6.s:439    .text:0000000000000224 .L0 
     /tmp/cc1XRdp6.s:440    .text:0000000000000224 .L0 
     /tmp/cc1XRdp6.s:448    .text:0000000000000230 .L0 
     /tmp/cc1XRdp6.s:454    .text:0000000000000238 .L0 
     /tmp/cc1XRdp6.s:456    .text:0000000000000240 .L0 
     /tmp/cc1XRdp6.s:459    .text:0000000000000244 .L0 
     /tmp/cc1XRdp6.s:462    .text:0000000000000248 .L0 
     /tmp/cc1XRdp6.s:464    .text:000000000000024c .L0 
     /tmp/cc1XRdp6.s:467    .text:0000000000000250 .L0 
     /tmp/cc1XRdp6.s:469    .text:0000000000000254 .L0 
     /tmp/cc1XRdp6.s:473    .text:0000000000000258 .L0 
     /tmp/cc1XRdp6.s:475    .text:000000000000025c .L0 
     /tmp/cc1XRdp6.s:477    .text:0000000000000260 .L0 
     /tmp/cc1XRdp6.s:479    .text:0000000000000264 .L0 
     /tmp/cc1XRdp6.s:481    .text:0000000000000268 .L0 
     /tmp/cc1XRdp6.s:484    .text:000000000000026c .L0 
     /tmp/cc1XRdp6.s:487    .text:0000000000000270 .L0 
     /tmp/cc1XRdp6.s:489    .text:0000000000000274 .L0 
     /tmp/cc1XRdp6.s:492    .text:000000000000027c .L0 
     /tmp/cc1XRdp6.s:494    .text:0000000000000280 .L0 
     /tmp/cc1XRdp6.s:496    .text:0000000000000284 .L0 
     /tmp/cc1XRdp6.s:499    .text:0000000000000288 .L0 
     /tmp/cc1XRdp6.s:503    .text:000000000000028c .L0 
     /tmp/cc1XRdp6.s:507    .text:000000000000029c .L0 
     /tmp/cc1XRdp6.s:511    .text:00000000000002a0 .L0 
     /tmp/cc1XRdp6.s:514    .text:00000000000002a4 .L0 
     /tmp/cc1XRdp6.s:521    .text:00000000000002a8 .L0 
     /tmp/cc1XRdp6.s:528    .text:00000000000002b4 .L0 
     /tmp/cc1XRdp6.s:534    .text:00000000000002c0 .L0 
     /tmp/cc1XRdp6.s:540    .text:00000000000002c8 .L0 
GAS LISTING /tmp/cc1XRdp6.s 			page 23


     /tmp/cc1XRdp6.s:542    .text:00000000000002cc .L0 
     /tmp/cc1XRdp6.s:544    .text:00000000000002d0 .L0 
     /tmp/cc1XRdp6.s:546    .text:00000000000002d4 .L0 
     /tmp/cc1XRdp6.s:551    .text:00000000000002dc .L0 
     /tmp/cc1XRdp6.s:555    .text:00000000000002e0 .L0 
     /tmp/cc1XRdp6.s:557    .text:00000000000002e4 .L0 
     /tmp/cc1XRdp6.s:560    .text:00000000000002e8 .L0 
     /tmp/cc1XRdp6.s:562    .text:00000000000002ec .L0 
     /tmp/cc1XRdp6.s:564    .text:00000000000002f0 .L0 
     /tmp/cc1XRdp6.s:566    .text:00000000000002f4 .L0 
     /tmp/cc1XRdp6.s:568    .text:00000000000002f8 .L0 
     /tmp/cc1XRdp6.s:574    .text:00000000000002fc .L0 
     /tmp/cc1XRdp6.s:575    .text:00000000000002fc .L0 
     /tmp/cc1XRdp6.s:578    .text:0000000000000304 .L0 
     /tmp/cc1XRdp6.s:579    .text:0000000000000308 .L0 
     /tmp/cc1XRdp6.s:580    .text:0000000000000308 .L0 
     /tmp/cc1XRdp6.s:582    .text:000000000000030c .L0 
     /tmp/cc1XRdp6.s:583    .text:000000000000030c .L0 
     /tmp/cc1XRdp6.s:585    .text:0000000000000310 .L0 
     /tmp/cc1XRdp6.s:588    .text:0000000000000314 .L0 
     /tmp/cc1XRdp6.s:591    .text:0000000000000318 .L0 
     /tmp/cc1XRdp6.s:594    .text:000000000000031c .L0 
     /tmp/cc1XRdp6.s:598    .text:0000000000000320 .L0 
     /tmp/cc1XRdp6.s:602    .text:0000000000000320 .L0 
     /tmp/cc1XRdp6.s:608    .text:000000000000032c .L0 
     /tmp/cc1XRdp6.s:610    .text:0000000000000330 .L0 
     /tmp/cc1XRdp6.s:612    .text:0000000000000334 .L0 
     /tmp/cc1XRdp6.s:618    .text:0000000000000340 .L0 
     /tmp/cc1XRdp6.s:625    .text:0000000000000354 .L0 
     /tmp/cc1XRdp6.s:630    .text:0000000000000354 _GLOBAL__sub_I__ZN9Scheduler10readyQueueE
     /tmp/cc1XRdp6.s:633    .text:0000000000000354 .L0 
     /tmp/cc1XRdp6.s:634    .text:0000000000000354 .L0 
     /tmp/cc1XRdp6.s:635    .text:0000000000000358 .L0 
     /tmp/cc1XRdp6.s:638    .text:0000000000000360 .L0 
     /tmp/cc1XRdp6.s:639    .text:0000000000000360 .L0 
     /tmp/cc1XRdp6.s:641    .text:0000000000000364 .L0 
     /tmp/cc1XRdp6.s:643    .text:0000000000000364 .L0 
     /tmp/cc1XRdp6.s:649    .text:000000000000037c .L0 
     /tmp/cc1XRdp6.s:651    .text:0000000000000380 .L0 
     /tmp/cc1XRdp6.s:652    .text:0000000000000380 .L0 
     /tmp/cc1XRdp6.s:654    .text:0000000000000384 .L0 
     /tmp/cc1XRdp6.s:656    .text:0000000000000388 .L0 
     /tmp/cc1XRdp6.s:673    .bss:0000000000000010 _ZN9Scheduler10sleepQueueE
     /tmp/cc1XRdp6.s:669    .bss:0000000000000000 _ZN9Scheduler10readyQueueE
     /tmp/cc1XRdp6.s:666    .bss:0000000000000000 .LANCHOR0
     /tmp/cc1XRdp6.s:680    .text:0000000000000388 .L0 
     /tmp/cc1XRdp6.s:43     .text:000000000000002c .L0 
     /tmp/cc1XRdp6.s:86     .text:000000000000005c .L0 
     /tmp/cc1XRdp6.s:95     .text:0000000000000070 .L0 
     /tmp/cc1XRdp6.s:129    .text:000000000000009c .L0 
     /tmp/cc1XRdp6.s:185    .text:00000000000000dc .L0 
     /tmp/cc1XRdp6.s:191    .text:00000000000000ec .L0 
     /tmp/cc1XRdp6.s:215    .text:0000000000000108 .L0 
     /tmp/cc1XRdp6.s:236    .text:000000000000011c .L0 
     /tmp/cc1XRdp6.s:273    .text:0000000000000154 .L0 
     /tmp/cc1XRdp6.s:319    .text:0000000000000184 .L0 
     /tmp/cc1XRdp6.s:341    .text:00000000000001a0 .L0 
GAS LISTING /tmp/cc1XRdp6.s 			page 24


     /tmp/cc1XRdp6.s:348    .text:00000000000001b0 .L0 
     /tmp/cc1XRdp6.s:400    .text:00000000000001f8 .L0 
     /tmp/cc1XRdp6.s:454    .text:0000000000000238 .L0 
     /tmp/cc1XRdp6.s:503    .text:000000000000028c .L0 
     /tmp/cc1XRdp6.s:528    .text:00000000000002b4 .L0 
     /tmp/cc1XRdp6.s:546    .text:00000000000002d4 .L0 
     /tmp/cc1XRdp6.s:602    .text:0000000000000320 .L0 
     /tmp/cc1XRdp6.s:612    .text:0000000000000334 .L0 
     /tmp/cc1XRdp6.s:618    .text:0000000000000340 .L0 
     /tmp/cc1XRdp6.s:31     .text:0000000000000020 .L4
     /tmp/cc1XRdp6.s:23     .text:0000000000000014 .L1
     /tmp/cc1XRdp6.s:132    .text:00000000000000a8 .L8
     /tmp/cc1XRdp6.s:124    .text:000000000000009c .L10
     /tmp/cc1XRdp6.s:98     .text:000000000000007c .L7
     /tmp/cc1XRdp6.s:105    .text:0000000000000084 .L5
     /tmp/cc1XRdp6.s:210    .text:0000000000000108 .L15
     /tmp/cc1XRdp6.s:193    .text:00000000000000f4 .L11
     /tmp/cc1XRdp6.s:370    .text:00000000000001d4 .L22
     /tmp/cc1XRdp6.s:354    .text:00000000000001c0 .L16
     /tmp/cc1XRdp6.s:325    .text:0000000000000194 .L20
     /tmp/cc1XRdp6.s:281    .text:0000000000000164 .L18
     /tmp/cc1XRdp6.s:274    .text:000000000000015c .L19
     /tmp/cc1XRdp6.s:269    .text:0000000000000154 .L25
     /tmp/cc1XRdp6.s:501    .text:000000000000028c .L37
     /tmp/cc1XRdp6.s:509    .text:00000000000002a0 .L38
     /tmp/cc1XRdp6.s:558    .text:00000000000002e8 .L31
     /tmp/cc1XRdp6.s:553    .text:00000000000002e0 .L39
     /tmp/cc1XRdp6.s:471    .text:0000000000000258 .L29
     /tmp/cc1XRdp6.s:570    .text:00000000000002fc .L28
     /tmp/cc1XRdp6.s:606    .text:000000000000032c .L33
     /tmp/cc1XRdp6.s:597    .text:0000000000000320 .L40
     /tmp/cc1XRdp6.s:616    .text:0000000000000340 .L34
     /tmp/cc1XRdp6.s:2910   .debug_abbrev:0000000000000000 .Ldebug_abbrev0
     /tmp/cc1XRdp6.s:4986   .debug_str:0000000000000ae7 .LASF171
     /tmp/cc1XRdp6.s:4910   .debug_str:00000000000007fc .LASF172
     /tmp/cc1XRdp6.s:4952   .debug_str:0000000000000990 .LASF173
     /tmp/cc1XRdp6.s:5      .text:0000000000000000 .Ltext0
     /tmp/cc1XRdp6.s:676    .text:0000000000000388 .Letext0
     /tmp/cc1XRdp6.s:4698   .debug_line:0000000000000000 .Ldebug_line0
     /tmp/cc1XRdp6.s:4832   .debug_str:0000000000000544 .LASF0
     /tmp/cc1XRdp6.s:4850   .debug_str:00000000000005e4 .LASF1
     /tmp/cc1XRdp6.s:4926   .debug_str:000000000000088d .LASF2
     /tmp/cc1XRdp6.s:4938   .debug_str:0000000000000909 .LASF4
     /tmp/cc1XRdp6.s:4836   .debug_str:0000000000000556 .LASF3
     /tmp/cc1XRdp6.s:4718   .debug_str:00000000000000f5 .LASF5
     /tmp/cc1XRdp6.s:4908   .debug_str:00000000000007f5 .LASF6
     /tmp/cc1XRdp6.s:4900   .debug_str:00000000000007ba .LASF7
     /tmp/cc1XRdp6.s:4842   .debug_str:00000000000005af .LASF8
     /tmp/cc1XRdp6.s:4808   .debug_str:0000000000000424 .LASF9
     /tmp/cc1XRdp6.s:4816   .debug_str:000000000000047e .LASF10
     /tmp/cc1XRdp6.s:4750   .debug_str:0000000000000243 .LASF11
     /tmp/cc1XRdp6.s:4798   .debug_str:00000000000003f1 .LASF12
     /tmp/cc1XRdp6.s:4762   .debug_str:0000000000000299 .LASF13
     /tmp/cc1XRdp6.s:4748   .debug_str:0000000000000233 .LASF14
     /tmp/cc1XRdp6.s:4964   .debug_str:0000000000000a1e .LASF15
     /tmp/cc1XRdp6.s:4788   .debug_str:00000000000003a0 .LASF16
     /tmp/cc1XRdp6.s:4956   .debug_str:00000000000009c6 .LASF17
GAS LISTING /tmp/cc1XRdp6.s 			page 25


     /tmp/cc1XRdp6.s:4970   .debug_str:0000000000000a63 .LASF83
     /tmp/cc1XRdp6.s:5042   .debug_str:0000000000000e5c .LASF18
     /tmp/cc1XRdp6.s:4988   .debug_str:0000000000000bab .LASF20
     /tmp/cc1XRdp6.s:4892   .debug_str:000000000000077c .LASF174
     /tmp/cc1XRdp6.s:4874   .debug_str:00000000000006f4 .LASF19
     /tmp/cc1XRdp6.s:4946   .debug_str:0000000000000945 .LASF21
     /tmp/cc1XRdp6.s:4848   .debug_str:00000000000005d0 .LASF22
     /tmp/cc1XRdp6.s:5050   .debug_str:0000000000000e96 .LASF23
     /tmp/cc1XRdp6.s:4972   .debug_str:0000000000000a6b .LASF26
     /tmp/cc1XRdp6.s:4878   .debug_str:000000000000070e .LASF28
     /tmp/cc1XRdp6.s:4736   .debug_str:00000000000001c4 .LASF24
     /tmp/cc1XRdp6.s:5004   .debug_str:0000000000000c41 .LASF25
     /tmp/cc1XRdp6.s:4930   .debug_str:00000000000008a8 .LASF27
     /tmp/cc1XRdp6.s:4746   .debug_str:000000000000021e .LASF29
     /tmp/cc1XRdp6.s:4974   .debug_str:0000000000000a76 .LASF30
     /tmp/cc1XRdp6.s:4794   .debug_str:00000000000003cc .LASF31
     /tmp/cc1XRdp6.s:4854   .debug_str:00000000000005ff .LASF32
     /tmp/cc1XRdp6.s:5014   .debug_str:0000000000000ce3 .LASF33
     /tmp/cc1XRdp6.s:4984   .debug_str:0000000000000adf .LASF175
     /tmp/cc1XRdp6.s:4778   .debug_str:000000000000033d .LASF34
     /tmp/cc1XRdp6.s:4758   .debug_str:000000000000027b .LASF36
     /tmp/cc1XRdp6.s:4780   .debug_str:0000000000000346 .LASF35
     /tmp/cc1XRdp6.s:4934   .debug_str:00000000000008e0 .LASF37
     /tmp/cc1XRdp6.s:4862   .debug_str:000000000000067c .LASF98
     /tmp/cc1XRdp6.s:4820   .debug_str:00000000000004a7 .LASF102
     /tmp/cc1XRdp6.s:4884   .debug_str:000000000000074a .LASF38
     /tmp/cc1XRdp6.s:5008   .debug_str:0000000000000c72 .LASF39
     /tmp/cc1XRdp6.s:4940   .debug_str:0000000000000910 .LASF40
     /tmp/cc1XRdp6.s:4716   .debug_str:00000000000000e9 .LASF41
     /tmp/cc1XRdp6.s:5046   .debug_str:0000000000000e80 .LASF42
     /tmp/cc1XRdp6.s:4812   .debug_str:0000000000000452 .LASF43
     /tmp/cc1XRdp6.s:4744   .debug_str:000000000000020e .LASF44
     /tmp/cc1XRdp6.s:4804   .debug_str:000000000000040e .LASF45
     /tmp/cc1XRdp6.s:4708   .debug_str:000000000000007a .LASF46
     /tmp/cc1XRdp6.s:4864   .debug_str:0000000000000690 .LASF48
     /tmp/cc1XRdp6.s:4954   .debug_str:00000000000009b3 .LASF47
     /tmp/cc1XRdp6.s:4928   .debug_str:000000000000089b .LASF49
     /tmp/cc1XRdp6.s:4704   .debug_str:000000000000005e .LASF99
     /tmp/cc1XRdp6.s:4944   .debug_str:0000000000000934 .LASF73
     /tmp/cc1XRdp6.s:4706   .debug_str:0000000000000075 .LASF50
     /tmp/cc1XRdp6.s:5040   .debug_str:0000000000000e57 .LASF51
     /tmp/cc1XRdp6.s:4948   .debug_str:000000000000096d .LASF52
     /tmp/cc1XRdp6.s:4968   .debug_str:0000000000000a5a .LASF53
     /tmp/cc1XRdp6.s:4886   .debug_str:0000000000000760 .LASF54
     /tmp/cc1XRdp6.s:4992   .debug_str:0000000000000bd2 .LASF55
     /tmp/cc1XRdp6.s:5000   .debug_str:0000000000000c34 .LASF56
     /tmp/cc1XRdp6.s:4766   .debug_str:00000000000002ae .LASF90
     /tmp/cc1XRdp6.s:4714   .debug_str:00000000000000c1 .LASF91
     /tmp/cc1XRdp6.s:4742   .debug_str:0000000000000200 .LASF57
     /tmp/cc1XRdp6.s:4856   .debug_str:000000000000060c .LASF59
     /tmp/cc1XRdp6.s:4796   .debug_str:00000000000003e2 .LASF58
     /tmp/cc1XRdp6.s:5044   .debug_str:0000000000000e66 .LASF60
     /tmp/cc1XRdp6.s:4896   .debug_str:000000000000078a .LASF61
     /tmp/cc1XRdp6.s:4982   .debug_str:0000000000000ad7 .LASF176
     /tmp/cc1XRdp6.s:4764   .debug_str:00000000000002a9 .LASF62
     /tmp/cc1XRdp6.s:4726   .debug_str:0000000000000147 .LASF63
     /tmp/cc1XRdp6.s:4752   .debug_str:0000000000000252 .LASF64
GAS LISTING /tmp/cc1XRdp6.s 			page 26


     /tmp/cc1XRdp6.s:5054   .debug_str:0000000000000edc .LASF65
     /tmp/cc1XRdp6.s:4814   .debug_str:000000000000045e .LASF66
     /tmp/cc1XRdp6.s:5002   .debug_str:0000000000000c3c .LASF67
     /tmp/cc1XRdp6.s:4838   .debug_str:0000000000000568 .LASF68
     /tmp/cc1XRdp6.s:4870   .debug_str:00000000000006d0 .LASF69
     /tmp/cc1XRdp6.s:4942   .debug_str:0000000000000915 .LASF70
     /tmp/cc1XRdp6.s:4924   .debug_str:0000000000000884 .LASF71
     /tmp/cc1XRdp6.s:4898   .debug_str:000000000000079a .LASF72
     /tmp/cc1XRdp6.s:5036   .debug_str:0000000000000e3a .LASF74
     /tmp/cc1XRdp6.s:4844   .debug_str:00000000000005c2 .LASF75
     /tmp/cc1XRdp6.s:4882   .debug_str:000000000000072a .LASF76
     /tmp/cc1XRdp6.s:4790   .debug_str:00000000000003b6 .LASF77
     /tmp/cc1XRdp6.s:5020   .debug_str:0000000000000d47 .LASF78
     /tmp/cc1XRdp6.s:5048   .debug_str:0000000000000e8d .LASF79
     /tmp/cc1XRdp6.s:4732   .debug_str:0000000000000191 .LASF80
     /tmp/cc1XRdp6.s:4756   .debug_str:0000000000000270 .LASF93
     /tmp/cc1XRdp6.s:4980   .debug_str:0000000000000aa8 .LASF94
     /tmp/cc1XRdp6.s:4914   .debug_str:000000000000082c .LASF81
     /tmp/cc1XRdp6.s:4806   .debug_str:000000000000041a .LASF82
     /tmp/cc1XRdp6.s:4792   .debug_str:00000000000003c2 .LASF84
     /tmp/cc1XRdp6.s:4904   .debug_str:00000000000007d7 .LASF85
     /tmp/cc1XRdp6.s:4920   .debug_str:0000000000000873 .LASF86
     /tmp/cc1XRdp6.s:4776   .debug_str:000000000000031c .LASF87
     /tmp/cc1XRdp6.s:5034   .debug_str:0000000000000e1e .LASF88
     /tmp/cc1XRdp6.s:5024   .debug_str:0000000000000da7 .LASF89
     /tmp/cc1XRdp6.s:4950   .debug_str:0000000000000973 .LASF92
     /tmp/cc1XRdp6.s:5028   .debug_str:0000000000000dcc .LASF95
     /tmp/cc1XRdp6.s:4760   .debug_str:000000000000028e .LASF96
     /tmp/cc1XRdp6.s:4990   .debug_str:0000000000000bc7 .LASF97
     /tmp/cc1XRdp6.s:5038   .debug_str:0000000000000e43 .LASF177
     /tmp/cc1XRdp6.s:4828   .debug_str:0000000000000523 .LASF100
     /tmp/cc1XRdp6.s:5058   .debug_str:0000000000000eed .LASF101
     /tmp/cc1XRdp6.s:5016   .debug_str:0000000000000cfc .LASF103
     /tmp/cc1XRdp6.s:4738   .debug_str:00000000000001d0 .LASF104
     /tmp/cc1XRdp6.s:5012   .debug_str:0000000000000cc3 .LASF105
     /tmp/cc1XRdp6.s:4998   .debug_str:0000000000000c2a .LASF106
     /tmp/cc1XRdp6.s:4868   .debug_str:00000000000006b6 .LASF107
     /tmp/cc1XRdp6.s:4902   .debug_str:00000000000007cd .LASF108
     /tmp/cc1XRdp6.s:4774   .debug_str:0000000000000317 .LASF109
     /tmp/cc1XRdp6.s:4846   .debug_str:00000000000005cb .LASF110
     /tmp/cc1XRdp6.s:4712   .debug_str:00000000000000a2 .LASF111
     /tmp/cc1XRdp6.s:4722   .debug_str:0000000000000104 .LASF112
     /tmp/cc1XRdp6.s:4710   .debug_str:000000000000008a .LASF113
     /tmp/cc1XRdp6.s:4754   .debug_str:0000000000000257 .LASF114
     /tmp/cc1XRdp6.s:4866   .debug_str:000000000000069d .LASF115
     /tmp/cc1XRdp6.s:4962   .debug_str:0000000000000a19 .LASF116
     /tmp/cc1XRdp6.s:4880   .debug_str:0000000000000725 .LASF117
     /tmp/cc1XRdp6.s:4876   .debug_str:0000000000000709 .LASF118
     /tmp/cc1XRdp6.s:4958   .debug_str:00000000000009dc .LASF119
     /tmp/cc1XRdp6.s:4786   .debug_str:0000000000000389 .LASF120
     /tmp/cc1XRdp6.s:4772   .debug_str:000000000000030d .LASF145
     /tmp/cc1XRdp6.s:4918   .debug_str:000000000000085c .LASF146
     /tmp/cc1XRdp6.s:4802   .debug_str:0000000000000405 .LASF121
     /tmp/cc1XRdp6.s:4826   .debug_str:0000000000000506 .LASF122
     /tmp/cc1XRdp6.s:4852   .debug_str:00000000000005f7 .LASF123
     /tmp/cc1XRdp6.s:4872   .debug_str:00000000000006d8 .LASF124
     /tmp/cc1XRdp6.s:4936   .debug_str:00000000000008ff .LASF125
GAS LISTING /tmp/cc1XRdp6.s 			page 27


     /tmp/cc1XRdp6.s:4810   .debug_str:0000000000000434 .LASF126
     /tmp/cc1XRdp6.s:4922   .debug_str:000000000000087a .LASF127
     /tmp/cc1XRdp6.s:4818   .debug_str:000000000000048c .LASF128
     /tmp/cc1XRdp6.s:5026   .debug_str:0000000000000dc3 .LASF129
     /tmp/cc1XRdp6.s:5030   .debug_str:0000000000000de9 .LASF130
     /tmp/cc1XRdp6.s:4894   .debug_str:0000000000000781 .LASF131
     /tmp/cc1XRdp6.s:5006   .debug_str:0000000000000c58 .LASF132
     /tmp/cc1XRdp6.s:5056   .debug_str:0000000000000ee5 .LASF133
     /tmp/cc1XRdp6.s:4906   .debug_str:00000000000007dc .LASF134
     /tmp/cc1XRdp6.s:4978   .debug_str:0000000000000a9c .LASF135
     /tmp/cc1XRdp6.s:4912   .debug_str:000000000000080e .LASF136
     /tmp/cc1XRdp6.s:4730   .debug_str:0000000000000176 .LASF137
     /tmp/cc1XRdp6.s:4702   .debug_str:000000000000002d .LASF138
     /tmp/cc1XRdp6.s:4960   .debug_str:00000000000009ef .LASF139
     /tmp/cc1XRdp6.s:4840   .debug_str:0000000000000585 .LASF140
     /tmp/cc1XRdp6.s:4860   .debug_str:0000000000000651 .LASF141
     /tmp/cc1XRdp6.s:4916   .debug_str:0000000000000831 .LASF142
     /tmp/cc1XRdp6.s:4994   .debug_str:0000000000000bdc .LASF143
     /tmp/cc1XRdp6.s:4996   .debug_str:0000000000000c01 .LASF144
     /tmp/cc1XRdp6.s:4784   .debug_str:0000000000000360 .LASF147
     /tmp/cc1XRdp6.s:5022   .debug_str:0000000000000d78 .LASF148
     /tmp/cc1XRdp6.s:4932   .debug_str:00000000000008b2 .LASF149
     /tmp/cc1XRdp6.s:5010   .debug_str:0000000000000c93 .LASF150
     /tmp/cc1XRdp6.s:4700   .debug_str:0000000000000000 .LASF151
     /tmp/cc1XRdp6.s:4858   .debug_str:0000000000000625 .LASF152
     /tmp/cc1XRdp6.s:4770   .debug_str:00000000000002e1 .LASF153
     /tmp/cc1XRdp6.s:4724   .debug_str:000000000000011c .LASF154
     /tmp/cc1XRdp6.s:4966   .debug_str:0000000000000a2a .LASF155
     /tmp/cc1XRdp6.s:5032   .debug_str:0000000000000e03 .LASF178
     /tmp/cc1XRdp6.s:4976   .debug_str:0000000000000a81 .LASF179
     /tmp/cc1XRdp6.s:5018   .debug_str:0000000000000d1d .LASF156
     /tmp/cc1XRdp6.s:631    .text:0000000000000354 .LFB80
     /tmp/cc1XRdp6.s:657    .text:0000000000000388 .LFE80
     /tmp/cc1XRdp6.s:647    .text:0000000000000378 .LVL72
     /tmp/cc1XRdp6.s:4728   .debug_str:000000000000014c .LASF157
     /tmp/cc1XRdp6.s:9      .text:0000000000000000 .LFB79
     /tmp/cc1XRdp6.s:62     .text:0000000000000048 .LFE79
     /tmp/cc1XRdp6.s:4824   .debug_str:00000000000004f7 .LASF158
     /tmp/cc1XRdp6.s:4890   .debug_str:0000000000000771 .LASF159
     /tmp/cc1XRdp6.s:38     .text:000000000000002c .LBB60
     /tmp/cc1XRdp6.s:49     .text:000000000000003c .LBE60
     /tmp/cc1XRdp6.s:4113   .debug_loc:0000000000000000 .LLST0
     /tmp/cc1XRdp6.s:50     .text:000000000000003c .LBB63
     /tmp/cc1XRdp6.s:58     .text:0000000000000044 .LBE63
     /tmp/cc1XRdp6.s:4122   .debug_loc:000000000000002c .LLST1
     /tmp/cc1XRdp6.s:4800   .debug_str:0000000000000400 .LASF160
     /tmp/cc1XRdp6.s:4720   .debug_str:00000000000000fc .LASF163
     /tmp/cc1XRdp6.s:4822   .debug_str:00000000000004c6 .LASF161
     /tmp/cc1XRdp6.s:5052   .debug_str:0000000000000ebd .LASF162
     /tmp/cc1XRdp6.s:4834   .debug_str:0000000000000551 .LASF164
     /tmp/cc1XRdp6.s:4830   .debug_str:000000000000053b .LASF165
     /tmp/cc1XRdp6.s:4888   .debug_str:0000000000000768 .LASF166
     /tmp/cc1XRdp6.s:4768   .debug_str:00000000000002bc .LASF167
     /tmp/cc1XRdp6.s:4734   .debug_str:00000000000001b1 .LASF168
     /tmp/cc1XRdp6.s:379    .text:00000000000001d8 .LFB55
     /tmp/cc1XRdp6.s:626    .text:0000000000000354 .LFE55
     /tmp/cc1XRdp6.s:4131   .debug_loc:0000000000000058 .LLST23
GAS LISTING /tmp/cc1XRdp6.s 			page 28


     /tmp/cc1XRdp6.s:4153   .debug_loc:00000000000000b7 .LLST24
     /tmp/cc1XRdp6.s:4164   .debug_loc:00000000000000ed .LLST25
     /tmp/cc1XRdp6.s:404    .text:0000000000000204 .LBB129
     /tmp/cc1XRdp6.s:412    .text:000000000000020c .LBE129
     /tmp/cc1XRdp6.s:4175   .debug_loc:0000000000000123 .LLST26
     /tmp/cc1XRdp6.s:4183   .debug_loc:0000000000000147 .LLST27
     /tmp/cc1XRdp6.s:414    .text:000000000000020c .LBB131
     /tmp/cc1XRdp6.s:425    .text:000000000000021c .LBE131
     /tmp/cc1XRdp6.s:4190   .debug_loc:000000000000016a .LLST28
     /tmp/cc1XRdp6.s:421    .text:0000000000000218 .LVL39
     /tmp/cc1XRdp6.s:426    .text:000000000000021c .LBB133
     /tmp/cc1XRdp6.s:433    .text:0000000000000224 .LBE133
     /tmp/cc1XRdp6.s:4198   .debug_loc:000000000000018e .LLST29
     /tmp/cc1XRdp6.s:4205   .debug_loc:00000000000001b1 .LLST30
     /tmp/cc1XRdp6.s:4212   .debug_loc:00000000000001d4 .LLST31
     /tmp/cc1XRdp6.s:435    .text:0000000000000224 .LBB135
     /tmp/cc1XRdp6.s:4666   .debug_ranges:0000000000000000 .Ldebug_ranges0
     /tmp/cc1XRdp6.s:4219   .debug_loc:00000000000001f7 .LLST32
     /tmp/cc1XRdp6.s:4230   .debug_loc:000000000000022d .LLST33
     /tmp/cc1XRdp6.s:4245   .debug_loc:0000000000000275 .LLST34
     /tmp/cc1XRdp6.s:4260   .debug_loc:00000000000002be .LLST35
     /tmp/cc1XRdp6.s:4291   .debug_loc:0000000000000353 .LLST36
     /tmp/cc1XRdp6.s:4324   .debug_loc:00000000000003ea .LLST37
     /tmp/cc1XRdp6.s:4335   .debug_loc:0000000000000420 .LLST38
     /tmp/cc1XRdp6.s:437    .text:0000000000000224 .LBB137
     /tmp/cc1XRdp6.s:444    .text:0000000000000230 .LBE137
     /tmp/cc1XRdp6.s:4351   .debug_loc:000000000000046a .LLST39
     /tmp/cc1XRdp6.s:442    .text:0000000000000230 .LVL42
     /tmp/cc1XRdp6.s:445    .text:0000000000000230 .LBB139
     /tmp/cc1XRdp6.s:452    .text:0000000000000238 .LBE139
     /tmp/cc1XRdp6.s:4359   .debug_loc:000000000000048e .LLST40
     /tmp/cc1XRdp6.s:4367   .debug_loc:00000000000004b2 .LLST41
     /tmp/cc1XRdp6.s:4374   .debug_loc:00000000000004d5 .LLST42
     /tmp/cc1XRdp6.s:516    .text:00000000000002a8 .LBB141
     /tmp/cc1XRdp6.s:549    .text:00000000000002dc .LBE141
     /tmp/cc1XRdp6.s:4381   .debug_loc:00000000000004f8 .LLST43
     /tmp/cc1XRdp6.s:4388   .debug_loc:000000000000051b .LLST44
     /tmp/cc1XRdp6.s:4397   .debug_loc:0000000000000547 .LLST45
     /tmp/cc1XRdp6.s:518    .text:00000000000002a8 .LBB143
     /tmp/cc1XRdp6.s:526    .text:00000000000002b4 .LBE143
     /tmp/cc1XRdp6.s:4404   .debug_loc:000000000000056a .LLST46
     /tmp/cc1XRdp6.s:524    .text:00000000000002b4 .LVL56
     /tmp/cc1XRdp6.s:531    .text:00000000000002c0 .LBB145
     /tmp/cc1XRdp6.s:538    .text:00000000000002c8 .LBE145
     /tmp/cc1XRdp6.s:4412   .debug_loc:000000000000058e .LLST47
     /tmp/cc1XRdp6.s:4419   .debug_loc:00000000000005b1 .LLST48
     /tmp/cc1XRdp6.s:4426   .debug_loc:00000000000005d4 .LLST49
     /tmp/cc1XRdp6.s:576    .text:0000000000000304 .LVL62
     /tmp/cc1XRdp6.s:228    .text:000000000000011c .LFB54
     /tmp/cc1XRdp6.s:373    .text:00000000000001d8 .LFE54
     /tmp/cc1XRdp6.s:4782   .debug_str:000000000000035a .LASF169
     /tmp/cc1XRdp6.s:4433   .debug_loc:00000000000005f7 .LLST13
     /tmp/cc1XRdp6.s:233    .text:000000000000011c .LBB92
     /tmp/cc1XRdp6.s:4440   .debug_loc:000000000000061a .LLST14
     /tmp/cc1XRdp6.s:270    .text:0000000000000154 .LBB96
     /tmp/cc1XRdp6.s:4455   .debug_loc:0000000000000662 .LLST15
     /tmp/cc1XRdp6.s:4470   .debug_loc:00000000000006aa .LLST16
GAS LISTING /tmp/cc1XRdp6.s 			page 29


     /tmp/cc1XRdp6.s:4478   .debug_loc:00000000000006ce .LLST17
     /tmp/cc1XRdp6.s:276    .text:000000000000015c .LBB98
     /tmp/cc1XRdp6.s:283    .text:0000000000000164 .LBE98
     /tmp/cc1XRdp6.s:4489   .debug_loc:0000000000000704 .LLST18
     /tmp/cc1XRdp6.s:280    .text:0000000000000164 .LVL23
     /tmp/cc1XRdp6.s:290    .text:0000000000000168 .LBB101
     /tmp/cc1XRdp6.s:298    .text:000000000000016c .LBE101
     /tmp/cc1XRdp6.s:4496   .debug_loc:0000000000000727 .LLST19
     /tmp/cc1XRdp6.s:4504   .debug_loc:000000000000074b .LLST20
     /tmp/cc1XRdp6.s:305    .text:0000000000000178 .LBB103
     /tmp/cc1XRdp6.s:314    .text:0000000000000184 .LBE103
     /tmp/cc1XRdp6.s:4511   .debug_loc:000000000000076e .LLST21
     /tmp/cc1XRdp6.s:312    .text:0000000000000184 .LVL27
     /tmp/cc1XRdp6.s:316    .text:0000000000000184 .LBB105
     /tmp/cc1XRdp6.s:327    .text:0000000000000194 .LBE105
     /tmp/cc1XRdp6.s:4518   .debug_loc:0000000000000791 .LLST22
     /tmp/cc1XRdp6.s:303    .text:0000000000000178 .LVL26
     /tmp/cc1XRdp6.s:148    .text:00000000000000b0 .LFB53
     /tmp/cc1XRdp6.s:222    .text:000000000000011c .LFE53
     /tmp/cc1XRdp6.s:4527   .debug_loc:00000000000007bd .LLST6
     /tmp/cc1XRdp6.s:165    .text:00000000000000c8 .LBB72
     /tmp/cc1XRdp6.s:4549   .debug_loc:000000000000081c .LLST7
     /tmp/cc1XRdp6.s:4564   .debug_loc:0000000000000865 .LLST8
     /tmp/cc1XRdp6.s:167    .text:00000000000000c8 .LBB74
     /tmp/cc1XRdp6.s:175    .text:00000000000000d4 .LBE74
     /tmp/cc1XRdp6.s:4579   .debug_loc:00000000000008ad .LLST9
     /tmp/cc1XRdp6.s:173    .text:00000000000000d4 .LVL14
     /tmp/cc1XRdp6.s:176    .text:00000000000000d4 .LBB76
     /tmp/cc1XRdp6.s:183    .text:00000000000000dc .LBE76
     /tmp/cc1XRdp6.s:4587   .debug_loc:00000000000008d1 .LLST10
     /tmp/cc1XRdp6.s:4595   .debug_loc:00000000000008f5 .LLST11
     /tmp/cc1XRdp6.s:4602   .debug_loc:0000000000000918 .LLST12
     /tmp/cc1XRdp6.s:68     .text:0000000000000048 .LFB52
     /tmp/cc1XRdp6.s:142    .text:00000000000000b0 .LFE52
     /tmp/cc1XRdp6.s:83     .text:000000000000005c .LBB66
     /tmp/cc1XRdp6.s:4609   .debug_loc:000000000000093b .LLST2
     /tmp/cc1XRdp6.s:4624   .debug_loc:0000000000000983 .LLST3
     /tmp/cc1XRdp6.s:4635   .debug_loc:00000000000009b9 .LLST4
     /tmp/cc1XRdp6.s:100    .text:000000000000007c .LBB68
     /tmp/cc1XRdp6.s:107    .text:0000000000000084 .LBE68
     /tmp/cc1XRdp6.s:4646   .debug_loc:00000000000009ef .LLST5
     /tmp/cc1XRdp6.s:104    .text:0000000000000084 .LVL7
     /tmp/cc1XRdp6.s:4740   .debug_str:00000000000001df .LASF170
     /tmp/cc1XRdp6.s:37     .text:000000000000002c .LVL1
     /tmp/cc1XRdp6.s:46     .text:000000000000003c .LVL2
     /tmp/cc1XRdp6.s:55     .text:0000000000000044 .LVL3
     /tmp/cc1XRdp6.s:382    .text:00000000000001d8 .LVL35
     /tmp/cc1XRdp6.s:419    .text:0000000000000210 .LVL38
     /tmp/cc1XRdp6.s:589    .text:0000000000000314 .LVL64
     /tmp/cc1XRdp6.s:596    .text:0000000000000320 .LVL66
     /tmp/cc1XRdp6.s:402    .text:0000000000000204 .LVL36
     /tmp/cc1XRdp6.s:592    .text:0000000000000318 .LVL65
     /tmp/cc1XRdp6.s:431    .text:0000000000000224 .LVL41
     /tmp/cc1XRdp6.s:586    .text:0000000000000310 .LVL63
     /tmp/cc1XRdp6.s:410    .text:000000000000020c .LVL37
     /tmp/cc1XRdp6.s:423    .text:000000000000021c .LVL40
     /tmp/cc1XRdp6.s:569    .text:00000000000002fc .LVL61
GAS LISTING /tmp/cc1XRdp6.s 			page 30


     /tmp/cc1XRdp6.s:450    .text:0000000000000238 .LVL43
     /tmp/cc1XRdp6.s:522    .text:00000000000002ac .LVL55
     /tmp/cc1XRdp6.s:552    .text:00000000000002e0 .LVL60
     /tmp/cc1XRdp6.s:457    .text:0000000000000244 .LVL44
     /tmp/cc1XRdp6.s:485    .text:0000000000000270 .LVL49
     /tmp/cc1XRdp6.s:500    .text:000000000000028c .LVL51
     /tmp/cc1XRdp6.s:508    .text:00000000000002a0 .LVL52
     /tmp/cc1XRdp6.s:603    .text:0000000000000328 .LVL67
     /tmp/cc1XRdp6.s:605    .text:000000000000032c .LVL68
     /tmp/cc1XRdp6.s:613    .text:000000000000033c .LVL69
     /tmp/cc1XRdp6.s:615    .text:0000000000000340 .LVL70
     /tmp/cc1XRdp6.s:619    .text:0000000000000348 .LVL71
     /tmp/cc1XRdp6.s:470    .text:0000000000000258 .LVL47
     /tmp/cc1XRdp6.s:482    .text:000000000000026c .LVL48
     /tmp/cc1XRdp6.s:497    .text:0000000000000288 .LVL50
     /tmp/cc1XRdp6.s:460    .text:0000000000000248 .LVL45
     /tmp/cc1XRdp6.s:465    .text:0000000000000250 .LVL46
     /tmp/cc1XRdp6.s:512    .text:00000000000002a4 .LVL53
     /tmp/cc1XRdp6.s:515    .text:00000000000002a8 .LVL54
     /tmp/cc1XRdp6.s:547    .text:00000000000002dc .LVL59
     /tmp/cc1XRdp6.s:536    .text:00000000000002c8 .LVL58
     /tmp/cc1XRdp6.s:530    .text:00000000000002c0 .LVL57
     /tmp/cc1XRdp6.s:256    .text:0000000000000140 .LVL20
     /tmp/cc1XRdp6.s:365    .text:00000000000001cc .LVL33
     /tmp/cc1XRdp6.s:232    .text:000000000000011c .LVL19
     /tmp/cc1XRdp6.s:369    .text:00000000000001d4 .LVL34
     /tmp/cc1XRdp6.s:268    .text:0000000000000154 .LVL21
     /tmp/cc1XRdp6.s:337    .text:00000000000001a0 .LVL29
     /tmp/cc1XRdp6.s:353    .text:00000000000001c0 .LVL32
     /tmp/cc1XRdp6.s:344    .text:00000000000001ac .LVL30
     /tmp/cc1XRdp6.s:349    .text:00000000000001b8 .LVL31
     /tmp/cc1XRdp6.s:275    .text:000000000000015c .LVL22
     /tmp/cc1XRdp6.s:289    .text:0000000000000168 .LVL24
     /tmp/cc1XRdp6.s:296    .text:000000000000016c .LVL25
     /tmp/cc1XRdp6.s:324    .text:0000000000000194 .LVL28
     /tmp/cc1XRdp6.s:151    .text:00000000000000b0 .LVL11
     /tmp/cc1XRdp6.s:171    .text:00000000000000cc .LVL13
     /tmp/cc1XRdp6.s:205    .text:0000000000000100 .LVL17
     /tmp/cc1XRdp6.s:209    .text:0000000000000108 .LVL18
     /tmp/cc1XRdp6.s:164    .text:00000000000000c8 .LVL12
     /tmp/cc1XRdp6.s:192    .text:00000000000000f4 .LVL16
     /tmp/cc1XRdp6.s:181    .text:00000000000000dc .LVL15
     /tmp/cc1XRdp6.s:82     .text:000000000000005c .LVL4
     /tmp/cc1XRdp6.s:123    .text:000000000000009c .LVL8
     /tmp/cc1XRdp6.s:135    .text:00000000000000ac .LVL10
     /tmp/cc1XRdp6.s:91     .text:000000000000006c .LVL5
     /tmp/cc1XRdp6.s:131    .text:00000000000000a8 .LVL9
     /tmp/cc1XRdp6.s:99     .text:000000000000007c .LVL6
     /tmp/cc1XRdp6.s:681    .debug_info:0000000000000000 .Ldebug_info0
     /tmp/cc1XRdp6.s:109    .text:0000000000000084 .LBE66
     /tmp/cc1XRdp6.s:126    .text:000000000000009c .LBB71
     /tmp/cc1XRdp6.s:137    .text:00000000000000ac .LBE71
     /tmp/cc1XRdp6.s:195    .text:00000000000000f4 .LBE72
     /tmp/cc1XRdp6.s:212    .text:0000000000000108 .LBB79
     /tmp/cc1XRdp6.s:220    .text:000000000000011c .LBE79
     /tmp/cc1XRdp6.s:240    .text:0000000000000128 .LBE92
     /tmp/cc1XRdp6.s:252    .text:000000000000013c .LBB95
GAS LISTING /tmp/cc1XRdp6.s 			page 31


     /tmp/cc1XRdp6.s:258    .text:0000000000000140 .LBE95
     /tmp/cc1XRdp6.s:285    .text:0000000000000164 .LBE96
     /tmp/cc1XRdp6.s:338    .text:00000000000001a0 .LBB107
     /tmp/cc1XRdp6.s:356    .text:00000000000001c0 .LBE107
     /tmp/cc1XRdp6.s:572    .text:00000000000002fc .LBE135
     /tmp/cc1XRdp6.s:599    .text:0000000000000320 .LBB148
     /tmp/cc1XRdp6.s:624    .text:0000000000000354 .LBE148

UNDEFINED SYMBOLS
_ZN15MemoryAllocator4freeEPv
_ZN15MemoryAllocator8allocateEm
_ZN3TCB7runningE
_ZN3TCB8dispatchEv
