GAS LISTING /tmp/ccy293tT.s 			page 1


   1              		.file	"scheduler.cpp"
   2              		.option pic
   3              		.option norelax
   4              		.text
   5              	.Ltext0:
   6              		.align	2
   8              	_Z41__static_initialization_and_destruction_0ii:
   9              	.LFB78:
  10              		.file 1 "src/scheduler.cpp"
   1:src/scheduler.cpp **** //
   2:src/scheduler.cpp **** // Created by os on 9/9/22.
   3:src/scheduler.cpp **** //
   4:src/scheduler.cpp **** 
   5:src/scheduler.cpp **** #include "../h/scheduler.hpp"
   6:src/scheduler.cpp **** //#include "../h/list.hpp"
   7:src/scheduler.cpp **** 
   8:src/scheduler.cpp **** List<TCB> Scheduler::readyQueue;
   9:src/scheduler.cpp **** List<Scheduler::sleepNode> Scheduler::sleepQueue;
  10:src/scheduler.cpp **** 
  11:src/scheduler.cpp **** TCB* Scheduler::get() {
  12:src/scheduler.cpp ****     //return readyQueue.takeFirst();
  13:src/scheduler.cpp ****     TCB* ret = readyQueue.takeFirst();
  14:src/scheduler.cpp ****     //readyQueue.printStatus();
  15:src/scheduler.cpp ****     return ret;
  16:src/scheduler.cpp **** }
  17:src/scheduler.cpp **** 
  18:src/scheduler.cpp **** void Scheduler::put(TCB* tcb) {
  19:src/scheduler.cpp ****     //return readyQueue.putLast(tcb);
  20:src/scheduler.cpp ****     readyQueue.putLast(tcb);
  21:src/scheduler.cpp ****     //putc('a');
  22:src/scheduler.cpp ****     //readyQueue.printStatus();
  23:src/scheduler.cpp **** }
  24:src/scheduler.cpp **** 
  25:src/scheduler.cpp **** void Scheduler::timerInterrupt() {
  26:src/scheduler.cpp ****     //__putc('a');
  27:src/scheduler.cpp ****     sleepNode *first = sleepQueue.getFirst();
  28:src/scheduler.cpp ****     if (!first) return;
  29:src/scheduler.cpp ****     first->time--;
  30:src/scheduler.cpp ****     while(first) {
  31:src/scheduler.cpp ****         if (first->time != 0) break;
  32:src/scheduler.cpp ****         sleepQueue.takeFirst();
  33:src/scheduler.cpp ****         first->thread->setBlocked(false);
  34:src/scheduler.cpp ****         Scheduler::put(first->thread);
  35:src/scheduler.cpp ****         //__print_string("wake\n");
  36:src/scheduler.cpp ****         delete first;
  37:src/scheduler.cpp ****         first = sleepQueue.getFirst();
  38:src/scheduler.cpp ****     }
  39:src/scheduler.cpp **** }
  40:src/scheduler.cpp **** 
  41:src/scheduler.cpp **** void Scheduler::timeSleep(time_t time) {
  42:src/scheduler.cpp ****     //__print_string("tck\n");
  43:src/scheduler.cpp ****     TCB* old = TCB::running;
  44:src/scheduler.cpp ****     old->setBlocked(true);
  45:src/scheduler.cpp ****     sleepNode* sn = new sleepNode(time, old);
  46:src/scheduler.cpp ****     sleepQueue.putSorted(sn);
  47:src/scheduler.cpp ****     TCB::dispatch();
  48:src/scheduler.cpp **** }
GAS LISTING /tmp/ccy293tT.s 			page 2


  11              		.loc 1 48 1
  12              		.cfi_startproc
  13              	.LVL0:
  14 0000 130101FF 		addi	sp,sp,-16
  15              		.cfi_def_cfa_offset 16
  16 0004 23348100 		sd	s0,8(sp)
  17              		.cfi_offset 8, -8
  18 0008 13040101 		addi	s0,sp,16
  19              		.cfi_def_cfa 8, 0
  20              		.loc 1 48 1 is_stmt 0
  21 000c 93071000 		li	a5,1
  22 0010 6308F500 		beq	a0,a5,.L4
  23              	.L1:
  24 0014 03348100 		ld	s0,8(sp)
  25              		.cfi_remember_state
  26              		.cfi_restore 8
  27              		.cfi_def_cfa 2, 16
  28 0018 13010101 		addi	sp,sp,16
  29              		.cfi_def_cfa_offset 0
  30 001c 67800000 		jr	ra
  31              	.L4:
  32              		.cfi_restore_state
  33              		.loc 1 48 1 discriminator 1
  34 0020 B7070100 		li	a5,65536
  35 0024 9387F7FF 		addi	a5,a5,-1
  36 0028 E396F5FE 		bne	a1,a5,.L1
  37              	.LVL1:
  38              	.LBB48:
  39              	.LBB49:
  40              	.LBB50:
  41              		.file 2 "src/../h/list.hpp"
   1:src/../h/list.hpp **** //
   2:src/../h/list.hpp **** // Created by os on 9/6/22.
   3:src/../h/list.hpp **** //
   4:src/../h/list.hpp **** 
   5:src/../h/list.hpp **** #ifndef OSMIUM_LIST_H
   6:src/../h/list.hpp **** #define OSMIUM_LIST_H
   7:src/../h/list.hpp **** 
   8:src/../h/list.hpp **** #include "../lib/console.h"
   9:src/../h/list.hpp **** 
  10:src/../h/list.hpp **** #include "__print.hpp"
  11:src/../h/list.hpp **** #include "memory_allocator.hpp"
  12:src/../h/list.hpp **** 
  13:src/../h/list.hpp **** template <typename T>
  14:src/../h/list.hpp **** class List {
  15:src/../h/list.hpp **** private:
  16:src/../h/list.hpp ****     struct Node {
  17:src/../h/list.hpp ****         T *data;
  18:src/../h/list.hpp ****         Node *next;
  19:src/../h/list.hpp **** 
  20:src/../h/list.hpp ****         Node(T *data, Node *next) : data(data), next(next) {}
  21:src/../h/list.hpp **** 
  22:src/../h/list.hpp ****         void* operator new(size_t size) {
  23:src/../h/list.hpp ****             return MemoryAllocator::allocate(size);
  24:src/../h/list.hpp ****         }
  25:src/../h/list.hpp **** 
  26:src/../h/list.hpp ****         void* operator new[](size_t size) {
GAS LISTING /tmp/ccy293tT.s 			page 3


  27:src/../h/list.hpp ****             return MemoryAllocator::allocate(size);
  28:src/../h/list.hpp ****         }
  29:src/../h/list.hpp **** 
  30:src/../h/list.hpp ****         void operator delete(void* ptr) {
  31:src/../h/list.hpp ****             MemoryAllocator::free(ptr);
  32:src/../h/list.hpp ****         }
  33:src/../h/list.hpp **** 
  34:src/../h/list.hpp ****         void operator delete[](void* ptr) {
  35:src/../h/list.hpp ****             MemoryAllocator::free(ptr);
  36:src/../h/list.hpp ****         }
  37:src/../h/list.hpp ****     };
  38:src/../h/list.hpp **** 
  39:src/../h/list.hpp ****     Node *head, *tail;
  40:src/../h/list.hpp **** public:
  41:src/../h/list.hpp ****     List() : head(0), tail(0) {}
  42              		.loc 2 41 29
  43 002c 97070000 		lla	a5,.LANCHOR0
  43      93870700 
  44 0034 23B00700 		sd	zero,0(a5)
  45 0038 23B40700 		sd	zero,8(a5)
  46              	.LVL2:
  47              	.LBE50:
  48              	.LBE49:
  49              	.LBE48:
  50              	.LBB51:
  51              	.LBB52:
  52              	.LBB53:
  53 003c 23B80700 		sd	zero,16(a5)
  54 0040 23BC0700 		sd	zero,24(a5)
  55              	.LVL3:
  56              	.LBE53:
  57              	.LBE52:
  58              	.LBE51:
  59              		.loc 1 48 1
  60 0044 6FF01FFD 		j	.L1
  61              		.cfi_endproc
  62              	.LFE78:
  64              		.align	2
  65              		.globl	_ZN9Scheduler3getEv
  67              	_ZN9Scheduler3getEv:
  68              	.LFB52:
  11:src/scheduler.cpp ****     //return readyQueue.takeFirst();
  69              		.loc 1 11 23 is_stmt 1
  70              		.cfi_startproc
  71 0048 130101FE 		addi	sp,sp,-32
  72              		.cfi_def_cfa_offset 32
  73 004c 233C1100 		sd	ra,24(sp)
  74 0050 23388100 		sd	s0,16(sp)
  75 0054 23349100 		sd	s1,8(sp)
  76              		.cfi_offset 1, -8
  77              		.cfi_offset 8, -16
  78              		.cfi_offset 9, -24
  79 0058 13040102 		addi	s0,sp,32
  80              		.cfi_def_cfa 8, 0
  13:src/scheduler.cpp ****     //readyQueue.printStatus();
  81              		.loc 1 13 5
  82              	.LVL4:
GAS LISTING /tmp/ccy293tT.s 			page 4


  83              	.LBB54:
  84              	.LBB55:
  42:src/../h/list.hpp ****     List(const List<T> &) = delete;
  43:src/../h/list.hpp ****     //List(List<T> &&) = delete;
  44:src/../h/list.hpp ****     List<T> &operator=(const List<T> &) = delete;
  45:src/../h/list.hpp **** 
  46:src/../h/list.hpp ****     void putFirst(T *data) {
  47:src/../h/list.hpp ****         Node *newNode = new Node(data, head);
  48:src/../h/list.hpp ****         head = newNode;
  49:src/../h/list.hpp ****         if (!tail) tail = head;
  50:src/../h/list.hpp ****     }
  51:src/../h/list.hpp **** 
  52:src/../h/list.hpp ****     void putLast(T *data) {
  53:src/../h/list.hpp ****         /*__putc('i');
  54:src/../h/list.hpp ****         __putc('l');
  55:src/../h/list.hpp ****         __putc('\n');*/
  56:src/../h/list.hpp ****         Node *newNode = new Node(data, 0);
  57:src/../h/list.hpp ****         if (!tail) head = tail = newNode;
  58:src/../h/list.hpp ****         else {
  59:src/../h/list.hpp ****             tail->next = newNode;
  60:src/../h/list.hpp ****             tail = newNode;
  61:src/../h/list.hpp ****         }
  62:src/../h/list.hpp ****         //printStatus();
  63:src/../h/list.hpp ****     }
  64:src/../h/list.hpp **** 
  65:src/../h/list.hpp ****     void putSorted(T* data) {
  66:src/../h/list.hpp ****         Node *newNode = new Node(data, 0);
  67:src/../h/list.hpp ****         if (!head) { head = tail = newNode; return; }
  68:src/../h/list.hpp ****         Node* curr = head, *prev = nullptr;
  69:src/../h/list.hpp ****         while (curr) {
  70:src/../h/list.hpp ****             if (*(uint64*)(newNode->data) < *(uint64*)(curr->data)) {
  71:src/../h/list.hpp ****                 break;
  72:src/../h/list.hpp ****             }
  73:src/../h/list.hpp ****             *(uint64*)(newNode->data) -= *(uint64*)(curr->data);
  74:src/../h/list.hpp ****             prev = curr;
  75:src/../h/list.hpp ****             curr = curr->next;
  76:src/../h/list.hpp ****         }
  77:src/../h/list.hpp ****         if (prev) prev->next = newNode;
  78:src/../h/list.hpp ****         else head = newNode;
  79:src/../h/list.hpp ****         if (curr) {newNode->next = curr; *(uint64*)(curr->data) -= *(uint64*)(newNode->data);}
  80:src/../h/list.hpp ****         else prev->next = newNode;
  81:src/../h/list.hpp ****     }
  82:src/../h/list.hpp **** 
  83:src/../h/list.hpp ****     T* takeFirst() {
  84:src/../h/list.hpp ****         /*__putc('o');
  85:src/../h/list.hpp ****         __putc('f');
  86:src/../h/list.hpp ****         __putc('\n');*/
  87:src/../h/list.hpp ****         if (!head) return 0;
  85              		.loc 2 87 14 is_stmt 0
  86 005c 17050000 		ld	a0,.LANCHOR0
  86      03350500 
  87              		.loc 2 87 9
  88 0064 63020504 		beqz	a0,.L8
  88:src/../h/list.hpp **** 
  89:src/../h/list.hpp ****         T* ret = head->data;
  89              		.loc 2 89 12
  90 0068 83340500 		ld	s1,0(a0)
GAS LISTING /tmp/ccy293tT.s 			page 5


  91              	.LVL5:
  90:src/../h/list.hpp ****         Node* old = head;
  91:src/../h/list.hpp ****         head = head->next;
  92              		.loc 2 91 22
  93 006c 83378500 		ld	a5,8(a0)
  94              		.loc 2 91 9
  95 0070 17070000 		sd	a5,.LANCHOR0,a4
  95      2330F700 
  92:src/../h/list.hpp ****         if (!head) tail = 0;
  96              		.loc 2 92 9
  97 0078 63820702 		beqz	a5,.L10
  98              	.L7:
  99              	.LVL6:
 100              	.LBB56:
 101              	.LBB57:
  31:src/../h/list.hpp ****         }
 102              		.loc 2 31 34
 103 007c 97000000 		call	_ZN15MemoryAllocator4freeEPv@plt
 103      E7800000 
 104              	.LVL7:
 105              	.L5:
 106              	.LBE57:
 107              	.LBE56:
 108              	.LBE55:
 109              	.LBE54:
  16:src/scheduler.cpp **** 
 110              		.loc 1 16 1
 111 0084 13850400 		mv	a0,s1
 112 0088 83308101 		ld	ra,24(sp)
 113              		.cfi_remember_state
 114              		.cfi_restore 1
 115 008c 03340101 		ld	s0,16(sp)
 116              		.cfi_restore 8
 117              		.cfi_def_cfa 2, 32
 118 0090 83348100 		ld	s1,8(sp)
 119              		.cfi_restore 9
 120 0094 13010102 		addi	sp,sp,32
 121              		.cfi_def_cfa_offset 0
 122 0098 67800000 		jr	ra
 123              	.LVL8:
 124              	.L10:
 125              		.cfi_restore_state
 126              	.LBB59:
 127              	.LBB58:
 128              		.loc 2 92 20
 129 009c 97070000 		sd	zero,.LANCHOR0+8,a5
 129      23B00700 
 130 00a4 6FF09FFD 		j	.L7
 131              	.LVL9:
 132              	.L8:
  87:src/../h/list.hpp **** 
 133              		.loc 2 87 27
 134 00a8 93040500 		mv	s1,a0
 135              	.LVL10:
 136              	.LBE58:
 137              	.LBE59:
  15:src/scheduler.cpp **** }
GAS LISTING /tmp/ccy293tT.s 			page 6


 138              		.loc 1 15 5 is_stmt 1
  15:src/scheduler.cpp **** }
 139              		.loc 1 15 12 is_stmt 0
 140 00ac 6FF09FFD 		j	.L5
 141              		.cfi_endproc
 142              	.LFE52:
 144              		.align	2
 145              		.globl	_ZN9Scheduler3putEP3TCB
 147              	_ZN9Scheduler3putEP3TCB:
 148              	.LFB53:
  18:src/scheduler.cpp ****     //return readyQueue.putLast(tcb);
 149              		.loc 1 18 31 is_stmt 1
 150              		.cfi_startproc
 151              	.LVL11:
 152 00b0 130101FE 		addi	sp,sp,-32
 153              		.cfi_def_cfa_offset 32
 154 00b4 233C1100 		sd	ra,24(sp)
 155 00b8 23388100 		sd	s0,16(sp)
 156 00bc 23349100 		sd	s1,8(sp)
 157              		.cfi_offset 1, -8
 158              		.cfi_offset 8, -16
 159              		.cfi_offset 9, -24
 160 00c0 13040102 		addi	s0,sp,32
 161              		.cfi_def_cfa 8, 0
 162 00c4 93040500 		mv	s1,a0
  20:src/scheduler.cpp ****     //putc('a');
 163              		.loc 1 20 5
 164              	.LVL12:
 165              	.LBB60:
 166              	.LBB61:
 167              	.LBB62:
 168              	.LBB63:
  23:src/../h/list.hpp ****         }
 169              		.loc 2 23 45 is_stmt 0
 170 00c8 13050001 		li	a0,16
 171              	.LVL13:
 172 00cc 97000000 		call	_ZN15MemoryAllocator8allocateEm@plt
 172      E7800000 
 173              	.LVL14:
 174              	.LBE63:
 175              	.LBE62:
 176              	.LBB64:
 177              	.LBB65:
  20:src/../h/list.hpp **** 
 178              		.loc 2 20 58
 179 00d4 23309500 		sd	s1,0(a0)
 180 00d8 23340500 		sd	zero,8(a0)
 181              	.LVL15:
 182              	.LBE65:
 183              	.LBE64:
  57:src/../h/list.hpp ****         else {
 184              		.loc 2 57 14
 185 00dc 97070000 		ld	a5,.LANCHOR0+8
 185      83B70700 
  57:src/../h/list.hpp ****         else {
 186              		.loc 2 57 9
 187 00e4 63820702 		beqz	a5,.L15
GAS LISTING /tmp/ccy293tT.s 			page 7


  59:src/../h/list.hpp ****             tail = newNode;
 188              		.loc 2 59 13
 189 00e8 23B4A700 		sd	a0,8(a5)
  60:src/../h/list.hpp ****         }
 190              		.loc 2 60 13
 191 00ec 97070000 		sd	a0,.LANCHOR0+8,a5
 191      23B0A700 
 192              	.LVL16:
 193              	.L11:
 194              	.LBE61:
 195              	.LBE60:
  23:src/scheduler.cpp **** 
 196              		.loc 1 23 1
 197 00f4 83308101 		ld	ra,24(sp)
 198              		.cfi_remember_state
 199              		.cfi_restore 1
 200 00f8 03340101 		ld	s0,16(sp)
 201              		.cfi_restore 8
 202              		.cfi_def_cfa 2, 32
 203 00fc 83348100 		ld	s1,8(sp)
 204              		.cfi_restore 9
 205              	.LVL17:
 206 0100 13010102 		addi	sp,sp,32
 207              		.cfi_def_cfa_offset 0
 208 0104 67800000 		jr	ra
 209              	.LVL18:
 210              	.L15:
 211              		.cfi_restore_state
 212              	.LBB67:
 213              	.LBB66:
  57:src/../h/list.hpp ****         else {
 214              		.loc 2 57 20
 215 0108 97070000 		lla	a5,.LANCHOR0
 215      93870700 
 216 0110 23B4A700 		sd	a0,8(a5)
 217 0114 23B0A700 		sd	a0,0(a5)
 218 0118 6FF0DFFD 		j	.L11
 219              	.LBE66:
 220              	.LBE67:
 221              		.cfi_endproc
 222              	.LFE53:
 224              		.align	2
 225              		.globl	_ZN9Scheduler14timerInterruptEv
 227              	_ZN9Scheduler14timerInterruptEv:
 228              	.LFB54:
  25:src/scheduler.cpp ****     //__putc('a');
 229              		.loc 1 25 34 is_stmt 1
 230              		.cfi_startproc
  27:src/scheduler.cpp ****     if (!first) return;
 231              		.loc 1 27 5
 232              	.LVL19:
 233              	.LBB80:
 234              	.LBB81:
  93:src/../h/list.hpp ****         delete old;
  94:src/../h/list.hpp ****         //printStatus();
  95:src/../h/list.hpp **** 
  96:src/../h/list.hpp ****         return ret;
GAS LISTING /tmp/ccy293tT.s 			page 8


  97:src/../h/list.hpp ****     }
  98:src/../h/list.hpp **** 
  99:src/../h/list.hpp ****     T* takeLast() {
 100:src/../h/list.hpp ****         if (!head) return 0;
 101:src/../h/list.hpp **** 
 102:src/../h/list.hpp ****         Node* curr = head, *prev = 0;
 103:src/../h/list.hpp ****         while (curr->next) prev = curr, curr = curr->next;
 104:src/../h/list.hpp **** 
 105:src/../h/list.hpp ****         if(prev) prev->next = 0;
 106:src/../h/list.hpp ****         else head = 0;
 107:src/../h/list.hpp ****         tail = prev;
 108:src/../h/list.hpp ****         T* ret = curr->data;
 109:src/../h/list.hpp **** 
 110:src/../h/list.hpp ****         return ret;
 111:src/../h/list.hpp ****     }
 112:src/../h/list.hpp **** 
 113:src/../h/list.hpp ****     T* getFirst() {
 114:src/../h/list.hpp ****         if(!head) return 0;
 235              		.loc 2 114 13 is_stmt 0
 236 011c 97070000 		ld	a5,.LANCHOR0+16
 236      83B70700 
 237              		.loc 2 114 9
 238 0124 6388070A 		beqz	a5,.L22
 239              	.LBE81:
 240              	.LBE80:
  25:src/scheduler.cpp ****     //__putc('a');
 241              		.loc 1 25 34
 242 0128 130101FE 		addi	sp,sp,-32
 243              		.cfi_def_cfa_offset 32
 244 012c 233C1100 		sd	ra,24(sp)
 245 0130 23388100 		sd	s0,16(sp)
 246 0134 23349100 		sd	s1,8(sp)
 247              		.cfi_offset 1, -8
 248              		.cfi_offset 8, -16
 249              		.cfi_offset 9, -24
 250 0138 13040102 		addi	s0,sp,32
 251              		.cfi_def_cfa 8, 0
 252              	.LBB83:
 253              	.LBB82:
 115:src/../h/list.hpp ****         return head->data;
 254              		.loc 2 115 22
 255 013c 83B40700 		ld	s1,0(a5)
 256              	.LVL20:
 257              	.LBE82:
 258              	.LBE83:
  28:src/scheduler.cpp ****     first->time--;
 259              		.loc 1 28 5 is_stmt 1
 260 0140 63800408 		beqz	s1,.L16
  29:src/scheduler.cpp ****     while(first) {
 261              		.loc 1 29 5
  29:src/scheduler.cpp ****     while(first) {
 262              		.loc 1 29 12 is_stmt 0
 263 0144 83B70400 		ld	a5,0(s1)
  29:src/scheduler.cpp ****     while(first) {
 264              		.loc 1 29 16
 265 0148 9387F7FF 		addi	a5,a5,-1
 266 014c 23B0F400 		sd	a5,0(s1)
GAS LISTING /tmp/ccy293tT.s 			page 9


 267 0150 6F004004 		j	.L20
 268              	.LVL21:
 269              	.L25:
 270              	.LBB84:
 271              	.LBB85:
  92:src/../h/list.hpp ****         delete old;
 272              		.loc 2 92 20
 273 0154 97070000 		sd	zero,.LANCHOR0+24,a5
 273      23B00700 
 274              	.L19:
 275              	.LVL22:
 276              	.LBB86:
 277              	.LBB87:
  31:src/../h/list.hpp ****         }
 278              		.loc 2 31 34
 279 015c 97000000 		call	_ZN15MemoryAllocator4freeEPv@plt
 279      E7800000 
 280              	.LVL23:
 281              	.L18:
 282              	.LBE87:
 283              	.LBE86:
 284              	.LBE85:
 285              	.LBE84:
  33:src/scheduler.cpp ****         Scheduler::put(first->thread);
 286              		.loc 1 33 9 is_stmt 1
  33:src/scheduler.cpp ****         Scheduler::put(first->thread);
 287              		.loc 1 33 16 is_stmt 0
 288 0164 83B78400 		ld	a5,8(s1)
 289              	.LVL24:
 290              	.LBB89:
 291              	.LBB90:
 292              		.file 3 "src/../h/tcb.hpp"
   1:src/../h/tcb.hpp **** //
   2:src/../h/tcb.hpp **** // Created by os on 9/9/22.
   3:src/../h/tcb.hpp **** //
   4:src/../h/tcb.hpp **** 
   5:src/../h/tcb.hpp **** #ifndef OSMIUM_TCB_HPP
   6:src/../h/tcb.hpp **** #define OSMIUM_TCB_HPP
   7:src/../h/tcb.hpp **** 
   8:src/../h/tcb.hpp **** #include "../lib/hw.h"
   9:src/../h/tcb.hpp **** //#include "../h/scheduler.hpp"
  10:src/../h/tcb.hpp **** #include "riscv.hpp"
  11:src/../h/tcb.hpp **** #include "memory_allocator.hpp"
  12:src/../h/tcb.hpp **** 
  13:src/../h/tcb.hpp **** class Scheduler;
  14:src/../h/tcb.hpp **** 
  15:src/../h/tcb.hpp **** 
  16:src/../h/tcb.hpp **** class TCB {
  17:src/../h/tcb.hpp **** public:
  18:src/../h/tcb.hpp ****     using Body = void (*)(void*);
  19:src/../h/tcb.hpp **** 
  20:src/../h/tcb.hpp ****     static TCB* createTCB(Body body, void* args);
  21:src/../h/tcb.hpp **** 
  22:src/../h/tcb.hpp ****     static TCB* createDeactivatedTCB(Body body, void* args);
  23:src/../h/tcb.hpp **** 
  24:src/../h/tcb.hpp ****     static TCB* createSupervisorTCB(Body body, void* args);
  25:src/../h/tcb.hpp **** 
GAS LISTING /tmp/ccy293tT.s 			page 10


  26:src/../h/tcb.hpp ****     bool isFinished() const { return finished; }
  27:src/../h/tcb.hpp **** 
  28:src/../h/tcb.hpp ****     void setFinished(bool val) { finished = val; }
  29:src/../h/tcb.hpp **** 
  30:src/../h/tcb.hpp ****     bool isBlocked() const { return blocked; }
  31:src/../h/tcb.hpp **** 
  32:src/../h/tcb.hpp ****     void setBlocked(bool val) { blocked = val; }
 293              		.loc 3 32 33 is_stmt 1
 294              		.loc 3 32 41 is_stmt 0
 295 0168 A38C0700 		sb	zero,25(a5)
 296              	.LVL25:
 297              	.LBE90:
 298              	.LBE89:
  34:src/scheduler.cpp ****         //__print_string("wake\n");
 299              		.loc 1 34 9 is_stmt 1
  34:src/scheduler.cpp ****         //__print_string("wake\n");
 300              		.loc 1 34 23 is_stmt 0
 301 016c 03B58400 		ld	a0,8(s1)
 302 0170 97000000 		call	_ZN9Scheduler3putEP3TCB
 302      E7800000 
 303              	.LVL26:
  36:src/scheduler.cpp ****         first = sleepQueue.getFirst();
 304              		.loc 1 36 9 is_stmt 1
 305              	.LBB91:
 306              	.LBB92:
 307              		.file 4 "src/../h/scheduler.hpp"
   1:src/../h/scheduler.hpp **** //
   2:src/../h/scheduler.hpp **** // Created by os on 9/9/22.
   3:src/../h/scheduler.hpp **** //
   4:src/../h/scheduler.hpp **** 
   5:src/../h/scheduler.hpp **** #ifndef OSMIUM_SCHEDULER_HPP
   6:src/../h/scheduler.hpp **** #define OSMIUM_SCHEDULER_HPP
   7:src/../h/scheduler.hpp **** 
   8:src/../h/scheduler.hpp **** #include "syscall_c.h"
   9:src/../h/scheduler.hpp **** #include "list.hpp"
  10:src/../h/scheduler.hpp **** 
  11:src/../h/scheduler.hpp **** #include "tcb.hpp"
  12:src/../h/scheduler.hpp **** 
  13:src/../h/scheduler.hpp **** class Scheduler {
  14:src/../h/scheduler.hpp **** private:
  15:src/../h/scheduler.hpp ****     static List<TCB> readyQueue;
  16:src/../h/scheduler.hpp **** 
  17:src/../h/scheduler.hpp ****     struct sleepNode {
  18:src/../h/scheduler.hpp ****         time_t time;
  19:src/../h/scheduler.hpp ****         TCB* thread;
  20:src/../h/scheduler.hpp **** 
  21:src/../h/scheduler.hpp ****         sleepNode(time_t time, TCB* thread) : time(time), thread(thread) {}
  22:src/../h/scheduler.hpp **** 
  23:src/../h/scheduler.hpp ****         void* operator new(size_t size) {
  24:src/../h/scheduler.hpp ****             return MemoryAllocator::allocate(size);
  25:src/../h/scheduler.hpp ****         }
  26:src/../h/scheduler.hpp **** 
  27:src/../h/scheduler.hpp ****         void* operator new[](size_t size) {
  28:src/../h/scheduler.hpp ****             return MemoryAllocator::allocate(size);
  29:src/../h/scheduler.hpp ****         }
  30:src/../h/scheduler.hpp **** 
  31:src/../h/scheduler.hpp ****         void operator delete(void* ptr) {
GAS LISTING /tmp/ccy293tT.s 			page 11


  32:src/../h/scheduler.hpp ****             MemoryAllocator::free(ptr);
 308              		.loc 4 32 13
 309              		.loc 4 32 34 is_stmt 0
 310 0178 13850400 		mv	a0,s1
 311 017c 97000000 		call	_ZN15MemoryAllocator4freeEPv@plt
 311      E7800000 
 312              	.LVL27:
 313              	.LBE92:
 314              	.LBE91:
  37:src/scheduler.cpp ****     }
 315              		.loc 1 37 9 is_stmt 1
 316              	.LBB93:
 317              	.LBB94:
 114:src/../h/list.hpp ****         return head->data;
 318              		.loc 2 114 13 is_stmt 0
 319 0184 97070000 		ld	a5,.LANCHOR0+16
 319      83B70700 
 114:src/../h/list.hpp ****         return head->data;
 320              		.loc 2 114 9
 321 018c 638A0702 		beqz	a5,.L16
 322              		.loc 2 115 22
 323 0190 83B40700 		ld	s1,0(a5)
 324              	.LVL28:
 325              	.L20:
 326              	.LBE94:
 327              	.LBE93:
  30:src/scheduler.cpp ****         if (first->time != 0) break;
 328              		.loc 1 30 5 is_stmt 1
  30:src/scheduler.cpp ****         if (first->time != 0) break;
 329              		.loc 1 30 11
 330 0194 63860402 		beqz	s1,.L16
  31:src/scheduler.cpp ****         sleepQueue.takeFirst();
 331              		.loc 1 31 9
  31:src/scheduler.cpp ****         sleepQueue.takeFirst();
 332              		.loc 1 31 20 is_stmt 0
 333 0198 83B70400 		ld	a5,0(s1)
  31:src/scheduler.cpp ****         sleepQueue.takeFirst();
 334              		.loc 1 31 9
 335 019c 63920702 		bnez	a5,.L16
  32:src/scheduler.cpp ****         first->thread->setBlocked(false);
 336              		.loc 1 32 9 is_stmt 1
 337              	.LVL29:
 338              	.LBB95:
 339              	.LBB88:
  87:src/../h/list.hpp **** 
 340              		.loc 2 87 14 is_stmt 0
 341 01a0 17050000 		ld	a0,.LANCHOR0+16
 341      03350500 
  87:src/../h/list.hpp **** 
 342              		.loc 2 87 9
 343 01a8 E30E05FA 		beqz	a0,.L18
 344              	.LVL30:
  91:src/../h/list.hpp ****         if (!head) tail = 0;
 345              		.loc 2 91 22
 346 01ac 83378500 		ld	a5,8(a0)
  91:src/../h/list.hpp ****         if (!head) tail = 0;
 347              		.loc 2 91 9
GAS LISTING /tmp/ccy293tT.s 			page 12


 348 01b0 17070000 		sd	a5,.LANCHOR0+16,a4
 348      2330F700 
 349              	.LVL31:
  92:src/../h/list.hpp ****         delete old;
 350              		.loc 2 92 9
 351 01b8 E39207FA 		bnez	a5,.L19
 352 01bc 6FF09FF9 		j	.L25
 353              	.LVL32:
 354              	.L16:
 355              	.LBE88:
 356              	.LBE95:
  39:src/scheduler.cpp **** 
 357              		.loc 1 39 1
 358 01c0 83308101 		ld	ra,24(sp)
 359              		.cfi_restore 1
 360 01c4 03340101 		ld	s0,16(sp)
 361              		.cfi_restore 8
 362              		.cfi_def_cfa 2, 32
 363 01c8 83348100 		ld	s1,8(sp)
 364              		.cfi_restore 9
 365              	.LVL33:
 366 01cc 13010102 		addi	sp,sp,32
 367              		.cfi_def_cfa_offset 0
 368 01d0 67800000 		jr	ra
 369              	.LVL34:
 370              	.L22:
 371 01d4 67800000 		ret
 372              		.cfi_endproc
 373              	.LFE54:
 375              		.align	2
 376              		.globl	_ZN9Scheduler9timeSleepEm
 378              	_ZN9Scheduler9timeSleepEm:
 379              	.LFB55:
  41:src/scheduler.cpp ****     //__print_string("tck\n");
 380              		.loc 1 41 40 is_stmt 1
 381              		.cfi_startproc
 382              	.LVL35:
 383 01d8 130101FD 		addi	sp,sp,-48
 384              		.cfi_def_cfa_offset 48
 385 01dc 23341102 		sd	ra,40(sp)
 386 01e0 23308102 		sd	s0,32(sp)
 387 01e4 233C9100 		sd	s1,24(sp)
 388 01e8 23382101 		sd	s2,16(sp)
 389 01ec 23343101 		sd	s3,8(sp)
 390              		.cfi_offset 1, -8
 391              		.cfi_offset 8, -16
 392              		.cfi_offset 9, -24
 393              		.cfi_offset 18, -32
 394              		.cfi_offset 19, -40
 395 01f0 13040103 		addi	s0,sp,48
 396              		.cfi_def_cfa 8, 0
 397 01f4 13090500 		mv	s2,a0
  43:src/scheduler.cpp ****     old->setBlocked(true);
 398              		.loc 1 43 5
  43:src/scheduler.cpp ****     old->setBlocked(true);
 399              		.loc 1 43 10 is_stmt 0
 400 01f8 97070000 		la	a5,_ZN3TCB7runningE
GAS LISTING /tmp/ccy293tT.s 			page 13


 400      83B70700 
 401 0200 83B90700 		ld	s3,0(a5)
 402              	.LVL36:
  44:src/scheduler.cpp ****     sleepNode* sn = new sleepNode(time, old);
 403              		.loc 1 44 5 is_stmt 1
 404              	.LBB110:
 405              	.LBB111:
 406              		.loc 3 32 33
 407              		.loc 3 32 41 is_stmt 0
 408 0204 93071000 		li	a5,1
 409 0208 A38CF900 		sb	a5,25(s3)
 410              	.LVL37:
 411              	.LBE111:
 412              	.LBE110:
  45:src/scheduler.cpp ****     sleepQueue.putSorted(sn);
 413              		.loc 1 45 5 is_stmt 1
 414              	.LBB112:
 415              	.LBB113:
  24:src/../h/scheduler.hpp ****         }
 416              		.loc 4 24 13
  24:src/../h/scheduler.hpp ****         }
 417              		.loc 4 24 45 is_stmt 0
 418 020c 13050001 		li	a0,16
 419              	.LVL38:
 420 0210 97000000 		call	_ZN15MemoryAllocator8allocateEm@plt
 420      E7800000 
 421              	.LVL39:
 422 0218 93040500 		mv	s1,a0
 423              	.LVL40:
 424              	.LBE113:
 425              	.LBE112:
 426              	.LBB114:
 427              	.LBB115:
  21:src/../h/scheduler.hpp **** 
 428              		.loc 4 21 72
 429 021c 23302501 		sd	s2,0(a0)
 430 0220 23343501 		sd	s3,8(a0)
 431              	.LVL41:
 432              	.LBE115:
 433              	.LBE114:
  46:src/scheduler.cpp ****     TCB::dispatch();
 434              		.loc 1 46 5 is_stmt 1
 435              	.LBB116:
 436              	.LBB117:
 437              	.LBB118:
 438              	.LBB119:
  23:src/../h/list.hpp ****         }
 439              		.loc 2 23 45 is_stmt 0
 440 0224 13050001 		li	a0,16
 441 0228 97000000 		call	_ZN15MemoryAllocator8allocateEm@plt
 441      E7800000 
 442              	.LVL42:
 443              	.LBE119:
 444              	.LBE118:
 445              	.LBB120:
 446              	.LBB121:
  20:src/../h/list.hpp **** 
GAS LISTING /tmp/ccy293tT.s 			page 14


 447              		.loc 2 20 58
 448 0230 23309500 		sd	s1,0(a0)
 449 0234 23340500 		sd	zero,8(a0)
 450              	.LVL43:
 451              	.LBE121:
 452              	.LBE120:
  67:src/../h/list.hpp ****         Node* curr = head, *prev = nullptr;
 453              		.loc 2 67 14
 454 0238 97070000 		ld	a5,.LANCHOR0+16
 454      83B70700 
  67:src/../h/list.hpp ****         Node* curr = head, *prev = nullptr;
 455              		.loc 2 67 9
 456 0240 638A0702 		beqz	a5,.L35
  68:src/../h/list.hpp ****         while (curr) {
 457              		.loc 2 68 29
 458 0244 93060000 		li	a3,0
 459              	.L27:
 460              	.LVL44:
  69:src/../h/list.hpp ****             if (*(uint64*)(newNode->data) < *(uint64*)(curr->data)) {
 461              		.loc 2 69 9 is_stmt 1
 462 0248 63800704 		beqz	a5,.L29
  70:src/../h/list.hpp ****                 break;
 463              		.loc 2 70 37 is_stmt 0
 464 024c 03360500 		ld	a2,0(a0)
  70:src/../h/list.hpp ****                 break;
 465              		.loc 2 70 43
 466 0250 03370600 		ld	a4,0(a2)
  70:src/../h/list.hpp ****                 break;
 467              		.loc 2 70 62
 468 0254 83B50700 		ld	a1,0(a5)
  70:src/../h/list.hpp ****                 break;
 469              		.loc 2 70 43
 470 0258 83B50500 		ld	a1,0(a1)
  70:src/../h/list.hpp ****                 break;
 471              		.loc 2 70 13
 472 025c 6366B702 		bltu	a4,a1,.L29
  73:src/../h/list.hpp ****             prev = curr;
 473              		.loc 2 73 39
 474 0260 3307B740 		sub	a4,a4,a1
  73:src/../h/list.hpp ****             prev = curr;
 475              		.loc 2 73 13
 476 0264 2330E600 		sd	a4,0(a2)
 477              	.LVL45:
  74:src/../h/list.hpp ****             curr = curr->next;
 478              		.loc 2 74 13
 479 0268 93860700 		mv	a3,a5
  75:src/../h/list.hpp ****         }
 480              		.loc 2 75 13
 481 026c 83B78700 		ld	a5,8(a5)
 482              	.LVL46:
  69:src/../h/list.hpp ****             if (*(uint64*)(newNode->data) < *(uint64*)(curr->data)) {
 483              		.loc 2 69 9
 484 0270 6FF09FFD 		j	.L27
 485              	.LVL47:
 486              	.L35:
  67:src/../h/list.hpp ****         Node* curr = head, *prev = nullptr;
 487              		.loc 2 67 22
GAS LISTING /tmp/ccy293tT.s 			page 15


 488 0274 97070000 		lla	a5,.LANCHOR0
 488      93870700 
 489 027c 23BCA700 		sd	a0,24(a5)
 490 0280 23B8A700 		sd	a0,16(a5)
  67:src/../h/list.hpp ****         Node* curr = head, *prev = nullptr;
 491              		.loc 2 67 45
 492 0284 6F00C002 		j	.L28
 493              	.LVL48:
 494              	.L29:
  77:src/../h/list.hpp ****         else head = newNode;
 495              		.loc 2 77 9
 496 0288 63860604 		beqz	a3,.L30
  77:src/../h/list.hpp ****         else head = newNode;
 497              		.loc 2 77 19
 498 028c 23B4A600 		sd	a0,8(a3)
 499              	.L31:
  79:src/../h/list.hpp ****         else prev->next = newNode;
 500              		.loc 2 79 9
 501 0290 63880704 		beqz	a5,.L32
  79:src/../h/list.hpp ****         else prev->next = newNode;
 502              		.loc 2 79 20
 503 0294 2334F500 		sd	a5,8(a0)
  79:src/../h/list.hpp ****         else prev->next = newNode;
 504              		.loc 2 79 59
 505 0298 03B70700 		ld	a4,0(a5)
  79:src/../h/list.hpp ****         else prev->next = newNode;
 506              		.loc 2 79 88
 507 029c 83360500 		ld	a3,0(a0)
 508              	.LVL49:
  79:src/../h/list.hpp ****         else prev->next = newNode;
 509              		.loc 2 79 65
 510 02a0 83370700 		ld	a5,0(a4)
 511              	.LVL50:
 512 02a4 83B60600 		ld	a3,0(a3)
 513 02a8 B387D740 		sub	a5,a5,a3
  79:src/../h/list.hpp ****         else prev->next = newNode;
 514              		.loc 2 79 42
 515 02ac 2330F700 		sd	a5,0(a4)
 516              	.LVL51:
 517              	.L28:
 518              	.LBE117:
 519              	.LBE116:
  47:src/scheduler.cpp **** }
 520              		.loc 1 47 5 is_stmt 1
  47:src/scheduler.cpp **** }
 521              		.loc 1 47 18 is_stmt 0
 522 02b0 97000000 		call	_ZN3TCB8dispatchEv@plt
 522      E7800000 
 523              	.LVL52:
 524              		.loc 1 48 1
 525 02b8 83308102 		ld	ra,40(sp)
 526              		.cfi_remember_state
 527              		.cfi_restore 1
 528 02bc 03340102 		ld	s0,32(sp)
 529              		.cfi_restore 8
 530              		.cfi_def_cfa 2, 48
 531 02c0 83348101 		ld	s1,24(sp)
GAS LISTING /tmp/ccy293tT.s 			page 16


 532              		.cfi_restore 9
 533              	.LVL53:
 534 02c4 03390101 		ld	s2,16(sp)
 535              		.cfi_restore 18
 536              	.LVL54:
 537 02c8 83398100 		ld	s3,8(sp)
 538              		.cfi_restore 19
 539              	.LVL55:
 540 02cc 13010103 		addi	sp,sp,48
 541              		.cfi_def_cfa_offset 0
 542 02d0 67800000 		jr	ra
 543              	.LVL56:
 544              	.L30:
 545              		.cfi_restore_state
 546              	.LBB123:
 547              	.LBB122:
  78:src/../h/list.hpp ****         if (curr) {newNode->next = curr; *(uint64*)(curr->data) -= *(uint64*)(newNode->data);}
 548              		.loc 2 78 14
 549 02d4 17070000 		sd	a0,.LANCHOR0+16,a4
 549      2330A700 
 550 02dc 6FF05FFB 		j	.L31
 551              	.L32:
  80:src/../h/list.hpp ****     }
 552              		.loc 2 80 14
 553 02e0 23B4A600 		sd	a0,8(a3)
 554 02e4 6FF0DFFC 		j	.L28
 555              	.LBE122:
 556              	.LBE123:
 557              		.cfi_endproc
 558              	.LFE55:
 560              		.align	2
 562              	_GLOBAL__sub_I__ZN9Scheduler10readyQueueE:
 563              	.LFB79:
 564              		.loc 1 48 1 is_stmt 1
 565              		.cfi_startproc
 566 02e8 130101FF 		addi	sp,sp,-16
 567              		.cfi_def_cfa_offset 16
 568 02ec 23341100 		sd	ra,8(sp)
 569 02f0 23308100 		sd	s0,0(sp)
 570              		.cfi_offset 1, -8
 571              		.cfi_offset 8, -16
 572 02f4 13040101 		addi	s0,sp,16
 573              		.cfi_def_cfa 8, 0
 574              		.loc 1 48 1 is_stmt 0
 575 02f8 B7050100 		li	a1,65536
 576 02fc 9385F5FF 		addi	a1,a1,-1
 577 0300 13051000 		li	a0,1
 578 0304 97000000 		call	_Z41__static_initialization_and_destruction_0ii
 578      E7800000 
 579              	.LVL57:
 580 030c 83308100 		ld	ra,8(sp)
 581              		.cfi_restore 1
 582 0310 03340100 		ld	s0,0(sp)
 583              		.cfi_restore 8
 584              		.cfi_def_cfa 2, 16
 585 0314 13010101 		addi	sp,sp,16
 586              		.cfi_def_cfa_offset 0
GAS LISTING /tmp/ccy293tT.s 			page 17


 587 0318 67800000 		jr	ra
 588              		.cfi_endproc
 589              	.LFE79:
 591              		.section	.init_array,"aw"
 592              		.align	3
 593 0000 00000000 		.dword	_GLOBAL__sub_I__ZN9Scheduler10readyQueueE
 593      00000000 
 594              		.globl	_ZN9Scheduler10sleepQueueE
 595              		.globl	_ZN9Scheduler10readyQueueE
 596              		.bss
 597              		.align	3
 598              		.set	.LANCHOR0,. + 0
 601              	_ZN9Scheduler10readyQueueE:
 602 0000 00000000 		.zero	16
 602      00000000 
 602      00000000 
 602      00000000 
 605              	_ZN9Scheduler10sleepQueueE:
 606 0010 00000000 		.zero	16
 606      00000000 
 606      00000000 
 606      00000000 
 607              		.text
 608              	.Letext0:
 609              		.file 5 "src/../h/../lib/hw.h"
 610              		.file 6 "src/../h/memory_allocator.hpp"
 611              		.file 7 "src/../h/syscall_c.h"
GAS LISTING /tmp/ccy293tT.s 			page 18


DEFINED SYMBOLS
                            *ABS*:0000000000000000 scheduler.cpp
     /tmp/ccy293tT.s:8      .text:0000000000000000 _Z41__static_initialization_and_destruction_0ii
     /tmp/ccy293tT.s:12     .text:0000000000000000 .L0 
     /tmp/ccy293tT.s:14     .text:0000000000000000 .L0 
     /tmp/ccy293tT.s:15     .text:0000000000000004 .L0 
     /tmp/ccy293tT.s:17     .text:0000000000000008 .L0 
     /tmp/ccy293tT.s:19     .text:000000000000000c .L0 
     /tmp/ccy293tT.s:21     .text:000000000000000c .L0 
     /tmp/ccy293tT.s:25     .text:0000000000000018 .L0 
     /tmp/ccy293tT.s:26     .text:0000000000000018 .L0 
     /tmp/ccy293tT.s:27     .text:0000000000000018 .L0 
     /tmp/ccy293tT.s:29     .text:000000000000001c .L0 
     /tmp/ccy293tT.s:32     .text:0000000000000020 .L0 
     /tmp/ccy293tT.s:34     .text:0000000000000020 .L0 
     /tmp/ccy293tT.s:43     .text:000000000000002c .L0 
     /tmp/ccy293tT.s:60     .text:0000000000000044 .L0 
     /tmp/ccy293tT.s:61     .text:0000000000000048 .L0 
     /tmp/ccy293tT.s:67     .text:0000000000000048 _ZN9Scheduler3getEv
     /tmp/ccy293tT.s:70     .text:0000000000000048 .L0 
     /tmp/ccy293tT.s:71     .text:0000000000000048 .L0 
     /tmp/ccy293tT.s:72     .text:000000000000004c .L0 
     /tmp/ccy293tT.s:76     .text:0000000000000058 .L0 
     /tmp/ccy293tT.s:77     .text:0000000000000058 .L0 
     /tmp/ccy293tT.s:78     .text:0000000000000058 .L0 
     /tmp/ccy293tT.s:80     .text:000000000000005c .L0 
     /tmp/ccy293tT.s:85     .text:000000000000005c .L0 
     /tmp/ccy293tT.s:86     .text:000000000000005c .L0 
     /tmp/ccy293tT.s:88     .text:0000000000000064 .L0 
     /tmp/ccy293tT.s:90     .text:0000000000000068 .L0 
     /tmp/ccy293tT.s:93     .text:000000000000006c .L0 
     /tmp/ccy293tT.s:95     .text:0000000000000070 .L0 
     /tmp/ccy293tT.s:97     .text:0000000000000078 .L0 
     /tmp/ccy293tT.s:103    .text:000000000000007c .L0 
     /tmp/ccy293tT.s:111    .text:0000000000000084 .L0 
     /tmp/ccy293tT.s:113    .text:000000000000008c .L0 
     /tmp/ccy293tT.s:114    .text:000000000000008c .L0 
     /tmp/ccy293tT.s:116    .text:0000000000000090 .L0 
     /tmp/ccy293tT.s:117    .text:0000000000000090 .L0 
     /tmp/ccy293tT.s:119    .text:0000000000000094 .L0 
     /tmp/ccy293tT.s:121    .text:0000000000000098 .L0 
     /tmp/ccy293tT.s:125    .text:000000000000009c .L0 
     /tmp/ccy293tT.s:129    .text:000000000000009c .L0 
     /tmp/ccy293tT.s:134    .text:00000000000000a8 .L0 
     /tmp/ccy293tT.s:139    .text:00000000000000ac .L0 
     /tmp/ccy293tT.s:140    .text:00000000000000ac .L0 
     /tmp/ccy293tT.s:141    .text:00000000000000b0 .L0 
     /tmp/ccy293tT.s:147    .text:00000000000000b0 _ZN9Scheduler3putEP3TCB
     /tmp/ccy293tT.s:150    .text:00000000000000b0 .L0 
     /tmp/ccy293tT.s:152    .text:00000000000000b0 .L0 
     /tmp/ccy293tT.s:153    .text:00000000000000b4 .L0 
     /tmp/ccy293tT.s:157    .text:00000000000000c0 .L0 
     /tmp/ccy293tT.s:158    .text:00000000000000c0 .L0 
     /tmp/ccy293tT.s:159    .text:00000000000000c0 .L0 
     /tmp/ccy293tT.s:161    .text:00000000000000c4 .L0 
     /tmp/ccy293tT.s:169    .text:00000000000000c8 .L0 
     /tmp/ccy293tT.s:170    .text:00000000000000c8 .L0 
GAS LISTING /tmp/ccy293tT.s 			page 19


     /tmp/ccy293tT.s:179    .text:00000000000000d4 .L0 
     /tmp/ccy293tT.s:185    .text:00000000000000dc .L0 
     /tmp/ccy293tT.s:187    .text:00000000000000e4 .L0 
     /tmp/ccy293tT.s:189    .text:00000000000000e8 .L0 
     /tmp/ccy293tT.s:191    .text:00000000000000ec .L0 
     /tmp/ccy293tT.s:197    .text:00000000000000f4 .L0 
     /tmp/ccy293tT.s:198    .text:00000000000000f8 .L0 
     /tmp/ccy293tT.s:199    .text:00000000000000f8 .L0 
     /tmp/ccy293tT.s:201    .text:00000000000000fc .L0 
     /tmp/ccy293tT.s:202    .text:00000000000000fc .L0 
     /tmp/ccy293tT.s:204    .text:0000000000000100 .L0 
     /tmp/ccy293tT.s:207    .text:0000000000000104 .L0 
     /tmp/ccy293tT.s:211    .text:0000000000000108 .L0 
     /tmp/ccy293tT.s:215    .text:0000000000000108 .L0 
     /tmp/ccy293tT.s:221    .text:000000000000011c .L0 
     /tmp/ccy293tT.s:227    .text:000000000000011c _ZN9Scheduler14timerInterruptEv
     /tmp/ccy293tT.s:230    .text:000000000000011c .L0 
     /tmp/ccy293tT.s:231    .text:000000000000011c .L0 
     /tmp/ccy293tT.s:235    .text:000000000000011c .L0 
     /tmp/ccy293tT.s:236    .text:000000000000011c .L0 
     /tmp/ccy293tT.s:238    .text:0000000000000124 .L0 
     /tmp/ccy293tT.s:242    .text:0000000000000128 .L0 
     /tmp/ccy293tT.s:243    .text:000000000000012c .L0 
     /tmp/ccy293tT.s:247    .text:0000000000000138 .L0 
     /tmp/ccy293tT.s:248    .text:0000000000000138 .L0 
     /tmp/ccy293tT.s:249    .text:0000000000000138 .L0 
     /tmp/ccy293tT.s:251    .text:000000000000013c .L0 
     /tmp/ccy293tT.s:255    .text:000000000000013c .L0 
     /tmp/ccy293tT.s:260    .text:0000000000000140 .L0 
     /tmp/ccy293tT.s:262    .text:0000000000000144 .L0 
     /tmp/ccy293tT.s:263    .text:0000000000000144 .L0 
     /tmp/ccy293tT.s:265    .text:0000000000000148 .L0 
     /tmp/ccy293tT.s:273    .text:0000000000000154 .L0 
     /tmp/ccy293tT.s:279    .text:000000000000015c .L0 
     /tmp/ccy293tT.s:287    .text:0000000000000164 .L0 
     /tmp/ccy293tT.s:288    .text:0000000000000164 .L0 
     /tmp/ccy293tT.s:294    .text:0000000000000168 .L0 
     /tmp/ccy293tT.s:295    .text:0000000000000168 .L0 
     /tmp/ccy293tT.s:300    .text:000000000000016c .L0 
     /tmp/ccy293tT.s:301    .text:000000000000016c .L0 
     /tmp/ccy293tT.s:308    .text:0000000000000178 .L0 
     /tmp/ccy293tT.s:309    .text:0000000000000178 .L0 
     /tmp/ccy293tT.s:310    .text:0000000000000178 .L0 
     /tmp/ccy293tT.s:318    .text:0000000000000184 .L0 
     /tmp/ccy293tT.s:319    .text:0000000000000184 .L0 
     /tmp/ccy293tT.s:321    .text:000000000000018c .L0 
     /tmp/ccy293tT.s:323    .text:0000000000000190 .L0 
     /tmp/ccy293tT.s:329    .text:0000000000000194 .L0 
     /tmp/ccy293tT.s:330    .text:0000000000000194 .L0 
     /tmp/ccy293tT.s:332    .text:0000000000000198 .L0 
     /tmp/ccy293tT.s:333    .text:0000000000000198 .L0 
     /tmp/ccy293tT.s:335    .text:000000000000019c .L0 
     /tmp/ccy293tT.s:340    .text:00000000000001a0 .L0 
     /tmp/ccy293tT.s:341    .text:00000000000001a0 .L0 
     /tmp/ccy293tT.s:343    .text:00000000000001a8 .L0 
     /tmp/ccy293tT.s:346    .text:00000000000001ac .L0 
     /tmp/ccy293tT.s:348    .text:00000000000001b0 .L0 
GAS LISTING /tmp/ccy293tT.s 			page 20


     /tmp/ccy293tT.s:351    .text:00000000000001b8 .L0 
     /tmp/ccy293tT.s:358    .text:00000000000001c0 .L0 
     /tmp/ccy293tT.s:359    .text:00000000000001c4 .L0 
     /tmp/ccy293tT.s:361    .text:00000000000001c8 .L0 
     /tmp/ccy293tT.s:362    .text:00000000000001c8 .L0 
     /tmp/ccy293tT.s:364    .text:00000000000001cc .L0 
     /tmp/ccy293tT.s:367    .text:00000000000001d0 .L0 
     /tmp/ccy293tT.s:372    .text:00000000000001d8 .L0 
     /tmp/ccy293tT.s:378    .text:00000000000001d8 _ZN9Scheduler9timeSleepEm
     /tmp/ccy293tT.s:381    .text:00000000000001d8 .L0 
     /tmp/ccy293tT.s:383    .text:00000000000001d8 .L0 
     /tmp/ccy293tT.s:384    .text:00000000000001dc .L0 
     /tmp/ccy293tT.s:390    .text:00000000000001f0 .L0 
     /tmp/ccy293tT.s:391    .text:00000000000001f0 .L0 
     /tmp/ccy293tT.s:392    .text:00000000000001f0 .L0 
     /tmp/ccy293tT.s:393    .text:00000000000001f0 .L0 
     /tmp/ccy293tT.s:394    .text:00000000000001f0 .L0 
     /tmp/ccy293tT.s:396    .text:00000000000001f4 .L0 
     /tmp/ccy293tT.s:399    .text:00000000000001f8 .L0 
     /tmp/ccy293tT.s:400    .text:00000000000001f8 .L0 
     /tmp/ccy293tT.s:406    .text:0000000000000204 .L0 
     /tmp/ccy293tT.s:407    .text:0000000000000204 .L0 
     /tmp/ccy293tT.s:408    .text:0000000000000204 .L0 
     /tmp/ccy293tT.s:416    .text:000000000000020c .L0 
     /tmp/ccy293tT.s:417    .text:000000000000020c .L0 
     /tmp/ccy293tT.s:418    .text:000000000000020c .L0 
     /tmp/ccy293tT.s:429    .text:000000000000021c .L0 
     /tmp/ccy293tT.s:439    .text:0000000000000224 .L0 
     /tmp/ccy293tT.s:440    .text:0000000000000224 .L0 
     /tmp/ccy293tT.s:448    .text:0000000000000230 .L0 
     /tmp/ccy293tT.s:454    .text:0000000000000238 .L0 
     /tmp/ccy293tT.s:456    .text:0000000000000240 .L0 
     /tmp/ccy293tT.s:458    .text:0000000000000244 .L0 
     /tmp/ccy293tT.s:462    .text:0000000000000248 .L0 
     /tmp/ccy293tT.s:464    .text:000000000000024c .L0 
     /tmp/ccy293tT.s:466    .text:0000000000000250 .L0 
     /tmp/ccy293tT.s:468    .text:0000000000000254 .L0 
     /tmp/ccy293tT.s:470    .text:0000000000000258 .L0 
     /tmp/ccy293tT.s:472    .text:000000000000025c .L0 
     /tmp/ccy293tT.s:474    .text:0000000000000260 .L0 
     /tmp/ccy293tT.s:476    .text:0000000000000264 .L0 
     /tmp/ccy293tT.s:479    .text:0000000000000268 .L0 
     /tmp/ccy293tT.s:481    .text:000000000000026c .L0 
     /tmp/ccy293tT.s:484    .text:0000000000000270 .L0 
     /tmp/ccy293tT.s:488    .text:0000000000000274 .L0 
     /tmp/ccy293tT.s:492    .text:0000000000000284 .L0 
     /tmp/ccy293tT.s:496    .text:0000000000000288 .L0 
     /tmp/ccy293tT.s:498    .text:000000000000028c .L0 
     /tmp/ccy293tT.s:501    .text:0000000000000290 .L0 
     /tmp/ccy293tT.s:503    .text:0000000000000294 .L0 
     /tmp/ccy293tT.s:505    .text:0000000000000298 .L0 
     /tmp/ccy293tT.s:507    .text:000000000000029c .L0 
     /tmp/ccy293tT.s:510    .text:00000000000002a0 .L0 
     /tmp/ccy293tT.s:515    .text:00000000000002ac .L0 
     /tmp/ccy293tT.s:521    .text:00000000000002b0 .L0 
     /tmp/ccy293tT.s:522    .text:00000000000002b0 .L0 
     /tmp/ccy293tT.s:525    .text:00000000000002b8 .L0 
GAS LISTING /tmp/ccy293tT.s 			page 21


     /tmp/ccy293tT.s:526    .text:00000000000002bc .L0 
     /tmp/ccy293tT.s:527    .text:00000000000002bc .L0 
     /tmp/ccy293tT.s:529    .text:00000000000002c0 .L0 
     /tmp/ccy293tT.s:530    .text:00000000000002c0 .L0 
     /tmp/ccy293tT.s:532    .text:00000000000002c4 .L0 
     /tmp/ccy293tT.s:535    .text:00000000000002c8 .L0 
     /tmp/ccy293tT.s:538    .text:00000000000002cc .L0 
     /tmp/ccy293tT.s:541    .text:00000000000002d0 .L0 
     /tmp/ccy293tT.s:545    .text:00000000000002d4 .L0 
     /tmp/ccy293tT.s:549    .text:00000000000002d4 .L0 
     /tmp/ccy293tT.s:553    .text:00000000000002e0 .L0 
     /tmp/ccy293tT.s:557    .text:00000000000002e8 .L0 
     /tmp/ccy293tT.s:562    .text:00000000000002e8 _GLOBAL__sub_I__ZN9Scheduler10readyQueueE
     /tmp/ccy293tT.s:565    .text:00000000000002e8 .L0 
     /tmp/ccy293tT.s:566    .text:00000000000002e8 .L0 
     /tmp/ccy293tT.s:567    .text:00000000000002ec .L0 
     /tmp/ccy293tT.s:570    .text:00000000000002f4 .L0 
     /tmp/ccy293tT.s:571    .text:00000000000002f4 .L0 
     /tmp/ccy293tT.s:573    .text:00000000000002f8 .L0 
     /tmp/ccy293tT.s:575    .text:00000000000002f8 .L0 
     /tmp/ccy293tT.s:581    .text:0000000000000310 .L0 
     /tmp/ccy293tT.s:583    .text:0000000000000314 .L0 
     /tmp/ccy293tT.s:584    .text:0000000000000314 .L0 
     /tmp/ccy293tT.s:586    .text:0000000000000318 .L0 
     /tmp/ccy293tT.s:588    .text:000000000000031c .L0 
     /tmp/ccy293tT.s:605    .bss:0000000000000010 _ZN9Scheduler10sleepQueueE
     /tmp/ccy293tT.s:601    .bss:0000000000000000 _ZN9Scheduler10readyQueueE
     /tmp/ccy293tT.s:598    .bss:0000000000000000 .LANCHOR0
     /tmp/ccy293tT.s:612    .text:000000000000031c .L0 
     /tmp/ccy293tT.s:43     .text:000000000000002c .L0 
     /tmp/ccy293tT.s:86     .text:000000000000005c .L0 
     /tmp/ccy293tT.s:95     .text:0000000000000070 .L0 
     /tmp/ccy293tT.s:129    .text:000000000000009c .L0 
     /tmp/ccy293tT.s:185    .text:00000000000000dc .L0 
     /tmp/ccy293tT.s:191    .text:00000000000000ec .L0 
     /tmp/ccy293tT.s:215    .text:0000000000000108 .L0 
     /tmp/ccy293tT.s:236    .text:000000000000011c .L0 
     /tmp/ccy293tT.s:273    .text:0000000000000154 .L0 
     /tmp/ccy293tT.s:319    .text:0000000000000184 .L0 
     /tmp/ccy293tT.s:341    .text:00000000000001a0 .L0 
     /tmp/ccy293tT.s:348    .text:00000000000001b0 .L0 
     /tmp/ccy293tT.s:400    .text:00000000000001f8 .L0 
     /tmp/ccy293tT.s:454    .text:0000000000000238 .L0 
     /tmp/ccy293tT.s:488    .text:0000000000000274 .L0 
     /tmp/ccy293tT.s:549    .text:00000000000002d4 .L0 
     /tmp/ccy293tT.s:31     .text:0000000000000020 .L4
     /tmp/ccy293tT.s:23     .text:0000000000000014 .L1
     /tmp/ccy293tT.s:132    .text:00000000000000a8 .L8
     /tmp/ccy293tT.s:124    .text:000000000000009c .L10
     /tmp/ccy293tT.s:98     .text:000000000000007c .L7
     /tmp/ccy293tT.s:105    .text:0000000000000084 .L5
     /tmp/ccy293tT.s:210    .text:0000000000000108 .L15
     /tmp/ccy293tT.s:193    .text:00000000000000f4 .L11
     /tmp/ccy293tT.s:370    .text:00000000000001d4 .L22
     /tmp/ccy293tT.s:354    .text:00000000000001c0 .L16
     /tmp/ccy293tT.s:325    .text:0000000000000194 .L20
     /tmp/ccy293tT.s:281    .text:0000000000000164 .L18
GAS LISTING /tmp/ccy293tT.s 			page 22


     /tmp/ccy293tT.s:274    .text:000000000000015c .L19
     /tmp/ccy293tT.s:269    .text:0000000000000154 .L25
     /tmp/ccy293tT.s:486    .text:0000000000000274 .L35
     /tmp/ccy293tT.s:494    .text:0000000000000288 .L29
     /tmp/ccy293tT.s:459    .text:0000000000000248 .L27
     /tmp/ccy293tT.s:517    .text:00000000000002b0 .L28
     /tmp/ccy293tT.s:544    .text:00000000000002d4 .L30
     /tmp/ccy293tT.s:551    .text:00000000000002e0 .L32
     /tmp/ccy293tT.s:499    .text:0000000000000290 .L31
     /tmp/ccy293tT.s:2747   .debug_abbrev:0000000000000000 .Ldebug_abbrev0
     /tmp/ccy293tT.s:4724   .debug_str:0000000000000ad5 .LASF169
     /tmp/ccy293tT.s:4648   .debug_str:00000000000007ea .LASF170
     /tmp/ccy293tT.s:4690   .debug_str:000000000000097e .LASF171
     /tmp/ccy293tT.s:5      .text:0000000000000000 .Ltext0
     /tmp/ccy293tT.s:608    .text:000000000000031c .Letext0
     /tmp/ccy293tT.s:4440   .debug_line:0000000000000000 .Ldebug_line0
     /tmp/ccy293tT.s:4572   .debug_str:000000000000053b .LASF0
     /tmp/ccy293tT.s:4590   .debug_str:00000000000005db .LASF1
     /tmp/ccy293tT.s:4664   .debug_str:000000000000087b .LASF2
     /tmp/ccy293tT.s:4676   .debug_str:00000000000008f7 .LASF4
     /tmp/ccy293tT.s:4576   .debug_str:000000000000054d .LASF3
     /tmp/ccy293tT.s:4460   .debug_str:00000000000000f5 .LASF5
     /tmp/ccy293tT.s:4646   .debug_str:00000000000007e3 .LASF6
     /tmp/ccy293tT.s:4638   .debug_str:00000000000007a8 .LASF7
     /tmp/ccy293tT.s:4582   .debug_str:00000000000005a6 .LASF8
     /tmp/ccy293tT.s:4550   .debug_str:0000000000000424 .LASF9
     /tmp/ccy293tT.s:4558   .debug_str:000000000000047e .LASF10
     /tmp/ccy293tT.s:4492   .debug_str:0000000000000243 .LASF11
     /tmp/ccy293tT.s:4540   .debug_str:00000000000003f1 .LASF12
     /tmp/ccy293tT.s:4504   .debug_str:0000000000000299 .LASF13
     /tmp/ccy293tT.s:4490   .debug_str:0000000000000233 .LASF14
     /tmp/ccy293tT.s:4702   .debug_str:0000000000000a0c .LASF15
     /tmp/ccy293tT.s:4530   .debug_str:00000000000003a0 .LASF16
     /tmp/ccy293tT.s:4694   .debug_str:00000000000009b4 .LASF17
     /tmp/ccy293tT.s:4708   .debug_str:0000000000000a51 .LASF83
     /tmp/ccy293tT.s:4780   .debug_str:0000000000000e4a .LASF18
     /tmp/ccy293tT.s:4726   .debug_str:0000000000000b99 .LASF20
     /tmp/ccy293tT.s:4630   .debug_str:000000000000076a .LASF172
     /tmp/ccy293tT.s:4614   .debug_str:00000000000006eb .LASF19
     /tmp/ccy293tT.s:4684   .debug_str:0000000000000933 .LASF21
     /tmp/ccy293tT.s:4588   .debug_str:00000000000005c7 .LASF22
     /tmp/ccy293tT.s:4788   .debug_str:0000000000000e84 .LASF23
     /tmp/ccy293tT.s:4710   .debug_str:0000000000000a59 .LASF26
     /tmp/ccy293tT.s:4618   .debug_str:0000000000000705 .LASF28
     /tmp/ccy293tT.s:4478   .debug_str:00000000000001c4 .LASF24
     /tmp/ccy293tT.s:4742   .debug_str:0000000000000c2f .LASF25
     /tmp/ccy293tT.s:4668   .debug_str:0000000000000896 .LASF27
     /tmp/ccy293tT.s:4488   .debug_str:000000000000021e .LASF29
     /tmp/ccy293tT.s:4712   .debug_str:0000000000000a64 .LASF30
     /tmp/ccy293tT.s:4536   .debug_str:00000000000003cc .LASF31
     /tmp/ccy293tT.s:4594   .debug_str:00000000000005f6 .LASF32
     /tmp/ccy293tT.s:4752   .debug_str:0000000000000cd1 .LASF33
     /tmp/ccy293tT.s:4722   .debug_str:0000000000000acd .LASF173
     /tmp/ccy293tT.s:4520   .debug_str:000000000000033d .LASF34
     /tmp/ccy293tT.s:4500   .debug_str:000000000000027b .LASF36
     /tmp/ccy293tT.s:4522   .debug_str:0000000000000346 .LASF35
     /tmp/ccy293tT.s:4672   .debug_str:00000000000008ce .LASF37
GAS LISTING /tmp/ccy293tT.s 			page 23


     /tmp/ccy293tT.s:4602   .debug_str:0000000000000673 .LASF98
     /tmp/ccy293tT.s:4562   .debug_str:00000000000004a7 .LASF102
     /tmp/ccy293tT.s:4624   .debug_str:0000000000000741 .LASF38
     /tmp/ccy293tT.s:4746   .debug_str:0000000000000c60 .LASF39
     /tmp/ccy293tT.s:4678   .debug_str:00000000000008fe .LASF40
     /tmp/ccy293tT.s:4458   .debug_str:00000000000000e9 .LASF41
     /tmp/ccy293tT.s:4784   .debug_str:0000000000000e6e .LASF42
     /tmp/ccy293tT.s:4554   .debug_str:0000000000000452 .LASF43
     /tmp/ccy293tT.s:4486   .debug_str:000000000000020e .LASF44
     /tmp/ccy293tT.s:4546   .debug_str:000000000000040e .LASF45
     /tmp/ccy293tT.s:4450   .debug_str:000000000000007a .LASF46
     /tmp/ccy293tT.s:4604   .debug_str:0000000000000687 .LASF48
     /tmp/ccy293tT.s:4692   .debug_str:00000000000009a1 .LASF47
     /tmp/ccy293tT.s:4666   .debug_str:0000000000000889 .LASF49
     /tmp/ccy293tT.s:4446   .debug_str:000000000000005e .LASF99
     /tmp/ccy293tT.s:4682   .debug_str:0000000000000922 .LASF73
     /tmp/ccy293tT.s:4448   .debug_str:0000000000000075 .LASF50
     /tmp/ccy293tT.s:4778   .debug_str:0000000000000e45 .LASF51
     /tmp/ccy293tT.s:4686   .debug_str:000000000000095b .LASF52
     /tmp/ccy293tT.s:4706   .debug_str:0000000000000a48 .LASF53
     /tmp/ccy293tT.s:4626   .debug_str:0000000000000757 .LASF54
     /tmp/ccy293tT.s:4730   .debug_str:0000000000000bc0 .LASF55
     /tmp/ccy293tT.s:4738   .debug_str:0000000000000c22 .LASF56
     /tmp/ccy293tT.s:4508   .debug_str:00000000000002ae .LASF90
     /tmp/ccy293tT.s:4456   .debug_str:00000000000000c1 .LASF91
     /tmp/ccy293tT.s:4484   .debug_str:0000000000000200 .LASF57
     /tmp/ccy293tT.s:4596   .debug_str:0000000000000603 .LASF59
     /tmp/ccy293tT.s:4538   .debug_str:00000000000003e2 .LASF58
     /tmp/ccy293tT.s:4782   .debug_str:0000000000000e54 .LASF60
     /tmp/ccy293tT.s:4634   .debug_str:0000000000000778 .LASF61
     /tmp/ccy293tT.s:4720   .debug_str:0000000000000ac5 .LASF174
     /tmp/ccy293tT.s:4506   .debug_str:00000000000002a9 .LASF62
     /tmp/ccy293tT.s:4468   .debug_str:0000000000000147 .LASF63
     /tmp/ccy293tT.s:4494   .debug_str:0000000000000252 .LASF64
     /tmp/ccy293tT.s:4792   .debug_str:0000000000000eca .LASF65
     /tmp/ccy293tT.s:4556   .debug_str:000000000000045e .LASF66
     /tmp/ccy293tT.s:4740   .debug_str:0000000000000c2a .LASF67
     /tmp/ccy293tT.s:4578   .debug_str:000000000000055f .LASF68
     /tmp/ccy293tT.s:4610   .debug_str:00000000000006c7 .LASF69
     /tmp/ccy293tT.s:4680   .debug_str:0000000000000903 .LASF70
     /tmp/ccy293tT.s:4662   .debug_str:0000000000000872 .LASF71
     /tmp/ccy293tT.s:4636   .debug_str:0000000000000788 .LASF72
     /tmp/ccy293tT.s:4774   .debug_str:0000000000000e28 .LASF74
     /tmp/ccy293tT.s:4584   .debug_str:00000000000005b9 .LASF75
     /tmp/ccy293tT.s:4622   .debug_str:0000000000000721 .LASF76
     /tmp/ccy293tT.s:4532   .debug_str:00000000000003b6 .LASF77
     /tmp/ccy293tT.s:4758   .debug_str:0000000000000d35 .LASF78
     /tmp/ccy293tT.s:4786   .debug_str:0000000000000e7b .LASF79
     /tmp/ccy293tT.s:4474   .debug_str:0000000000000191 .LASF80
     /tmp/ccy293tT.s:4498   .debug_str:0000000000000270 .LASF93
     /tmp/ccy293tT.s:4718   .debug_str:0000000000000a96 .LASF94
     /tmp/ccy293tT.s:4652   .debug_str:000000000000081a .LASF81
     /tmp/ccy293tT.s:4548   .debug_str:000000000000041a .LASF82
     /tmp/ccy293tT.s:4534   .debug_str:00000000000003c2 .LASF84
     /tmp/ccy293tT.s:4642   .debug_str:00000000000007c5 .LASF85
     /tmp/ccy293tT.s:4658   .debug_str:0000000000000861 .LASF86
     /tmp/ccy293tT.s:4518   .debug_str:000000000000031c .LASF87
GAS LISTING /tmp/ccy293tT.s 			page 24


     /tmp/ccy293tT.s:4772   .debug_str:0000000000000e0c .LASF88
     /tmp/ccy293tT.s:4762   .debug_str:0000000000000d95 .LASF89
     /tmp/ccy293tT.s:4688   .debug_str:0000000000000961 .LASF92
     /tmp/ccy293tT.s:4766   .debug_str:0000000000000dba .LASF95
     /tmp/ccy293tT.s:4502   .debug_str:000000000000028e .LASF96
     /tmp/ccy293tT.s:4728   .debug_str:0000000000000bb5 .LASF97
     /tmp/ccy293tT.s:4776   .debug_str:0000000000000e31 .LASF175
     /tmp/ccy293tT.s:4570   .debug_str:0000000000000523 .LASF100
     /tmp/ccy293tT.s:4796   .debug_str:0000000000000edb .LASF101
     /tmp/ccy293tT.s:4754   .debug_str:0000000000000cea .LASF103
     /tmp/ccy293tT.s:4480   .debug_str:00000000000001d0 .LASF104
     /tmp/ccy293tT.s:4750   .debug_str:0000000000000cb1 .LASF105
     /tmp/ccy293tT.s:4736   .debug_str:0000000000000c18 .LASF106
     /tmp/ccy293tT.s:4608   .debug_str:00000000000006ad .LASF107
     /tmp/ccy293tT.s:4640   .debug_str:00000000000007bb .LASF108
     /tmp/ccy293tT.s:4516   .debug_str:0000000000000317 .LASF109
     /tmp/ccy293tT.s:4586   .debug_str:00000000000005c2 .LASF110
     /tmp/ccy293tT.s:4454   .debug_str:00000000000000a2 .LASF111
     /tmp/ccy293tT.s:4464   .debug_str:0000000000000104 .LASF112
     /tmp/ccy293tT.s:4452   .debug_str:000000000000008a .LASF113
     /tmp/ccy293tT.s:4496   .debug_str:0000000000000257 .LASF114
     /tmp/ccy293tT.s:4606   .debug_str:0000000000000694 .LASF115
     /tmp/ccy293tT.s:4700   .debug_str:0000000000000a07 .LASF116
     /tmp/ccy293tT.s:4620   .debug_str:000000000000071c .LASF117
     /tmp/ccy293tT.s:4616   .debug_str:0000000000000700 .LASF118
     /tmp/ccy293tT.s:4696   .debug_str:00000000000009ca .LASF119
     /tmp/ccy293tT.s:4528   .debug_str:0000000000000389 .LASF120
     /tmp/ccy293tT.s:4514   .debug_str:000000000000030d .LASF145
     /tmp/ccy293tT.s:4656   .debug_str:000000000000084a .LASF146
     /tmp/ccy293tT.s:4544   .debug_str:0000000000000405 .LASF121
     /tmp/ccy293tT.s:4568   .debug_str:0000000000000506 .LASF122
     /tmp/ccy293tT.s:4592   .debug_str:00000000000005ee .LASF123
     /tmp/ccy293tT.s:4612   .debug_str:00000000000006cf .LASF124
     /tmp/ccy293tT.s:4674   .debug_str:00000000000008ed .LASF125
     /tmp/ccy293tT.s:4552   .debug_str:0000000000000434 .LASF126
     /tmp/ccy293tT.s:4660   .debug_str:0000000000000868 .LASF127
     /tmp/ccy293tT.s:4560   .debug_str:000000000000048c .LASF128
     /tmp/ccy293tT.s:4764   .debug_str:0000000000000db1 .LASF129
     /tmp/ccy293tT.s:4768   .debug_str:0000000000000dd7 .LASF130
     /tmp/ccy293tT.s:4632   .debug_str:000000000000076f .LASF131
     /tmp/ccy293tT.s:4744   .debug_str:0000000000000c46 .LASF132
     /tmp/ccy293tT.s:4794   .debug_str:0000000000000ed3 .LASF133
     /tmp/ccy293tT.s:4644   .debug_str:00000000000007ca .LASF134
     /tmp/ccy293tT.s:4716   .debug_str:0000000000000a8a .LASF135
     /tmp/ccy293tT.s:4650   .debug_str:00000000000007fc .LASF136
     /tmp/ccy293tT.s:4472   .debug_str:0000000000000176 .LASF137
     /tmp/ccy293tT.s:4444   .debug_str:000000000000002d .LASF138
     /tmp/ccy293tT.s:4698   .debug_str:00000000000009dd .LASF139
     /tmp/ccy293tT.s:4580   .debug_str:000000000000057c .LASF140
     /tmp/ccy293tT.s:4600   .debug_str:0000000000000648 .LASF141
     /tmp/ccy293tT.s:4654   .debug_str:000000000000081f .LASF142
     /tmp/ccy293tT.s:4732   .debug_str:0000000000000bca .LASF143
     /tmp/ccy293tT.s:4734   .debug_str:0000000000000bef .LASF144
     /tmp/ccy293tT.s:4526   .debug_str:0000000000000360 .LASF147
     /tmp/ccy293tT.s:4760   .debug_str:0000000000000d66 .LASF148
     /tmp/ccy293tT.s:4670   .debug_str:00000000000008a0 .LASF149
     /tmp/ccy293tT.s:4748   .debug_str:0000000000000c81 .LASF150
GAS LISTING /tmp/ccy293tT.s 			page 25


     /tmp/ccy293tT.s:4442   .debug_str:0000000000000000 .LASF151
     /tmp/ccy293tT.s:4598   .debug_str:000000000000061c .LASF152
     /tmp/ccy293tT.s:4512   .debug_str:00000000000002e1 .LASF153
     /tmp/ccy293tT.s:4466   .debug_str:000000000000011c .LASF154
     /tmp/ccy293tT.s:4704   .debug_str:0000000000000a18 .LASF155
     /tmp/ccy293tT.s:4770   .debug_str:0000000000000df1 .LASF176
     /tmp/ccy293tT.s:4714   .debug_str:0000000000000a6f .LASF177
     /tmp/ccy293tT.s:4756   .debug_str:0000000000000d0b .LASF156
     /tmp/ccy293tT.s:563    .text:00000000000002e8 .LFB79
     /tmp/ccy293tT.s:589    .text:000000000000031c .LFE79
     /tmp/ccy293tT.s:579    .text:000000000000030c .LVL57
     /tmp/ccy293tT.s:4470   .debug_str:000000000000014c .LASF157
     /tmp/ccy293tT.s:9      .text:0000000000000000 .LFB78
     /tmp/ccy293tT.s:62     .text:0000000000000048 .LFE78
     /tmp/ccy293tT.s:4566   .debug_str:00000000000004f7 .LASF158
     /tmp/ccy293tT.s:4628   .debug_str:000000000000075f .LASF159
     /tmp/ccy293tT.s:38     .text:000000000000002c .LBB48
     /tmp/ccy293tT.s:49     .text:000000000000003c .LBE48
     /tmp/ccy293tT.s:3950   .debug_loc:0000000000000000 .LLST0
     /tmp/ccy293tT.s:50     .text:000000000000003c .LBB51
     /tmp/ccy293tT.s:58     .text:0000000000000044 .LBE51
     /tmp/ccy293tT.s:3959   .debug_loc:000000000000002c .LLST1
     /tmp/ccy293tT.s:4542   .debug_str:0000000000000400 .LASF160
     /tmp/ccy293tT.s:4564   .debug_str:00000000000004c6 .LASF161
     /tmp/ccy293tT.s:4790   .debug_str:0000000000000eab .LASF162
     /tmp/ccy293tT.s:4462   .debug_str:00000000000000fc .LASF163
     /tmp/ccy293tT.s:4574   .debug_str:0000000000000548 .LASF164
     /tmp/ccy293tT.s:4510   .debug_str:00000000000002bc .LASF165
     /tmp/ccy293tT.s:4476   .debug_str:00000000000001b1 .LASF166
     /tmp/ccy293tT.s:379    .text:00000000000001d8 .LFB55
     /tmp/ccy293tT.s:558    .text:00000000000002e8 .LFE55
     /tmp/ccy293tT.s:3968   .debug_loc:0000000000000058 .LLST23
     /tmp/ccy293tT.s:3990   .debug_loc:00000000000000b7 .LLST24
     /tmp/ccy293tT.s:4001   .debug_loc:00000000000000ed .LLST25
     /tmp/ccy293tT.s:404    .text:0000000000000204 .LBB110
     /tmp/ccy293tT.s:412    .text:000000000000020c .LBE110
     /tmp/ccy293tT.s:4012   .debug_loc:0000000000000123 .LLST26
     /tmp/ccy293tT.s:4020   .debug_loc:0000000000000147 .LLST27
     /tmp/ccy293tT.s:414    .text:000000000000020c .LBB112
     /tmp/ccy293tT.s:425    .text:000000000000021c .LBE112
     /tmp/ccy293tT.s:4027   .debug_loc:000000000000016a .LLST28
     /tmp/ccy293tT.s:421    .text:0000000000000218 .LVL39
     /tmp/ccy293tT.s:426    .text:000000000000021c .LBB114
     /tmp/ccy293tT.s:433    .text:0000000000000224 .LBE114
     /tmp/ccy293tT.s:4035   .debug_loc:000000000000018e .LLST29
     /tmp/ccy293tT.s:4042   .debug_loc:00000000000001b1 .LLST30
     /tmp/ccy293tT.s:4049   .debug_loc:00000000000001d4 .LLST31
     /tmp/ccy293tT.s:435    .text:0000000000000224 .LBB116
     /tmp/ccy293tT.s:4408   .debug_ranges:0000000000000000 .Ldebug_ranges0
     /tmp/ccy293tT.s:4056   .debug_loc:00000000000001f7 .LLST32
     /tmp/ccy293tT.s:4067   .debug_loc:000000000000022d .LLST33
     /tmp/ccy293tT.s:4082   .debug_loc:0000000000000275 .LLST34
     /tmp/ccy293tT.s:4093   .debug_loc:00000000000002ab .LLST35
     /tmp/ccy293tT.s:4122   .debug_loc:000000000000032f .LLST36
     /tmp/ccy293tT.s:437    .text:0000000000000224 .LBB118
     /tmp/ccy293tT.s:444    .text:0000000000000230 .LBE118
     /tmp/ccy293tT.s:4145   .debug_loc:000000000000039e .LLST37
GAS LISTING /tmp/ccy293tT.s 			page 26


     /tmp/ccy293tT.s:442    .text:0000000000000230 .LVL42
     /tmp/ccy293tT.s:445    .text:0000000000000230 .LBB120
     /tmp/ccy293tT.s:452    .text:0000000000000238 .LBE120
     /tmp/ccy293tT.s:4153   .debug_loc:00000000000003c2 .LLST38
     /tmp/ccy293tT.s:4161   .debug_loc:00000000000003e6 .LLST39
     /tmp/ccy293tT.s:4168   .debug_loc:0000000000000409 .LLST40
     /tmp/ccy293tT.s:523    .text:00000000000002b8 .LVL52
     /tmp/ccy293tT.s:228    .text:000000000000011c .LFB54
     /tmp/ccy293tT.s:373    .text:00000000000001d8 .LFE54
     /tmp/ccy293tT.s:4524   .debug_str:000000000000035a .LASF167
     /tmp/ccy293tT.s:4175   .debug_loc:000000000000042c .LLST13
     /tmp/ccy293tT.s:233    .text:000000000000011c .LBB80
     /tmp/ccy293tT.s:4182   .debug_loc:000000000000044f .LLST14
     /tmp/ccy293tT.s:270    .text:0000000000000154 .LBB84
     /tmp/ccy293tT.s:4197   .debug_loc:0000000000000497 .LLST15
     /tmp/ccy293tT.s:4212   .debug_loc:00000000000004df .LLST16
     /tmp/ccy293tT.s:4220   .debug_loc:0000000000000503 .LLST17
     /tmp/ccy293tT.s:276    .text:000000000000015c .LBB86
     /tmp/ccy293tT.s:283    .text:0000000000000164 .LBE86
     /tmp/ccy293tT.s:4231   .debug_loc:0000000000000539 .LLST18
     /tmp/ccy293tT.s:280    .text:0000000000000164 .LVL23
     /tmp/ccy293tT.s:290    .text:0000000000000168 .LBB89
     /tmp/ccy293tT.s:298    .text:000000000000016c .LBE89
     /tmp/ccy293tT.s:4238   .debug_loc:000000000000055c .LLST19
     /tmp/ccy293tT.s:4246   .debug_loc:0000000000000580 .LLST20
     /tmp/ccy293tT.s:305    .text:0000000000000178 .LBB91
     /tmp/ccy293tT.s:314    .text:0000000000000184 .LBE91
     /tmp/ccy293tT.s:4253   .debug_loc:00000000000005a3 .LLST21
     /tmp/ccy293tT.s:312    .text:0000000000000184 .LVL27
     /tmp/ccy293tT.s:316    .text:0000000000000184 .LBB93
     /tmp/ccy293tT.s:327    .text:0000000000000194 .LBE93
     /tmp/ccy293tT.s:4260   .debug_loc:00000000000005c6 .LLST22
     /tmp/ccy293tT.s:303    .text:0000000000000178 .LVL26
     /tmp/ccy293tT.s:148    .text:00000000000000b0 .LFB53
     /tmp/ccy293tT.s:222    .text:000000000000011c .LFE53
     /tmp/ccy293tT.s:4269   .debug_loc:00000000000005f2 .LLST6
     /tmp/ccy293tT.s:165    .text:00000000000000c8 .LBB60
     /tmp/ccy293tT.s:4291   .debug_loc:0000000000000651 .LLST7
     /tmp/ccy293tT.s:4306   .debug_loc:000000000000069a .LLST8
     /tmp/ccy293tT.s:167    .text:00000000000000c8 .LBB62
     /tmp/ccy293tT.s:175    .text:00000000000000d4 .LBE62
     /tmp/ccy293tT.s:4321   .debug_loc:00000000000006e2 .LLST9
     /tmp/ccy293tT.s:173    .text:00000000000000d4 .LVL14
     /tmp/ccy293tT.s:176    .text:00000000000000d4 .LBB64
     /tmp/ccy293tT.s:183    .text:00000000000000dc .LBE64
     /tmp/ccy293tT.s:4329   .debug_loc:0000000000000706 .LLST10
     /tmp/ccy293tT.s:4337   .debug_loc:000000000000072a .LLST11
     /tmp/ccy293tT.s:4344   .debug_loc:000000000000074d .LLST12
     /tmp/ccy293tT.s:68     .text:0000000000000048 .LFB52
     /tmp/ccy293tT.s:142    .text:00000000000000b0 .LFE52
     /tmp/ccy293tT.s:83     .text:000000000000005c .LBB54
     /tmp/ccy293tT.s:4351   .debug_loc:0000000000000770 .LLST2
     /tmp/ccy293tT.s:4366   .debug_loc:00000000000007b8 .LLST3
     /tmp/ccy293tT.s:4377   .debug_loc:00000000000007ee .LLST4
     /tmp/ccy293tT.s:100    .text:000000000000007c .LBB56
     /tmp/ccy293tT.s:107    .text:0000000000000084 .LBE56
     /tmp/ccy293tT.s:4388   .debug_loc:0000000000000824 .LLST5
GAS LISTING /tmp/ccy293tT.s 			page 27


     /tmp/ccy293tT.s:104    .text:0000000000000084 .LVL7
     /tmp/ccy293tT.s:4482   .debug_str:00000000000001df .LASF168
     /tmp/ccy293tT.s:37     .text:000000000000002c .LVL1
     /tmp/ccy293tT.s:46     .text:000000000000003c .LVL2
     /tmp/ccy293tT.s:55     .text:0000000000000044 .LVL3
     /tmp/ccy293tT.s:382    .text:00000000000001d8 .LVL35
     /tmp/ccy293tT.s:419    .text:0000000000000210 .LVL38
     /tmp/ccy293tT.s:536    .text:00000000000002c8 .LVL54
     /tmp/ccy293tT.s:543    .text:00000000000002d4 .LVL56
     /tmp/ccy293tT.s:402    .text:0000000000000204 .LVL36
     /tmp/ccy293tT.s:539    .text:00000000000002cc .LVL55
     /tmp/ccy293tT.s:431    .text:0000000000000224 .LVL41
     /tmp/ccy293tT.s:533    .text:00000000000002c4 .LVL53
     /tmp/ccy293tT.s:410    .text:000000000000020c .LVL37
     /tmp/ccy293tT.s:423    .text:000000000000021c .LVL40
     /tmp/ccy293tT.s:516    .text:00000000000002b0 .LVL51
     /tmp/ccy293tT.s:450    .text:0000000000000238 .LVL43
     /tmp/ccy293tT.s:460    .text:0000000000000248 .LVL44
     /tmp/ccy293tT.s:477    .text:0000000000000268 .LVL45
     /tmp/ccy293tT.s:482    .text:0000000000000270 .LVL46
     /tmp/ccy293tT.s:485    .text:0000000000000274 .LVL47
     /tmp/ccy293tT.s:493    .text:0000000000000288 .LVL48
     /tmp/ccy293tT.s:511    .text:00000000000002a4 .LVL50
     /tmp/ccy293tT.s:508    .text:00000000000002a0 .LVL49
     /tmp/ccy293tT.s:256    .text:0000000000000140 .LVL20
     /tmp/ccy293tT.s:365    .text:00000000000001cc .LVL33
     /tmp/ccy293tT.s:232    .text:000000000000011c .LVL19
     /tmp/ccy293tT.s:369    .text:00000000000001d4 .LVL34
     /tmp/ccy293tT.s:268    .text:0000000000000154 .LVL21
     /tmp/ccy293tT.s:337    .text:00000000000001a0 .LVL29
     /tmp/ccy293tT.s:353    .text:00000000000001c0 .LVL32
     /tmp/ccy293tT.s:344    .text:00000000000001ac .LVL30
     /tmp/ccy293tT.s:349    .text:00000000000001b8 .LVL31
     /tmp/ccy293tT.s:275    .text:000000000000015c .LVL22
     /tmp/ccy293tT.s:289    .text:0000000000000168 .LVL24
     /tmp/ccy293tT.s:296    .text:000000000000016c .LVL25
     /tmp/ccy293tT.s:324    .text:0000000000000194 .LVL28
     /tmp/ccy293tT.s:151    .text:00000000000000b0 .LVL11
     /tmp/ccy293tT.s:171    .text:00000000000000cc .LVL13
     /tmp/ccy293tT.s:205    .text:0000000000000100 .LVL17
     /tmp/ccy293tT.s:209    .text:0000000000000108 .LVL18
     /tmp/ccy293tT.s:164    .text:00000000000000c8 .LVL12
     /tmp/ccy293tT.s:192    .text:00000000000000f4 .LVL16
     /tmp/ccy293tT.s:181    .text:00000000000000dc .LVL15
     /tmp/ccy293tT.s:82     .text:000000000000005c .LVL4
     /tmp/ccy293tT.s:123    .text:000000000000009c .LVL8
     /tmp/ccy293tT.s:135    .text:00000000000000ac .LVL10
     /tmp/ccy293tT.s:91     .text:000000000000006c .LVL5
     /tmp/ccy293tT.s:131    .text:00000000000000a8 .LVL9
     /tmp/ccy293tT.s:99     .text:000000000000007c .LVL6
     /tmp/ccy293tT.s:613    .debug_info:0000000000000000 .Ldebug_info0
     /tmp/ccy293tT.s:109    .text:0000000000000084 .LBE54
     /tmp/ccy293tT.s:126    .text:000000000000009c .LBB59
     /tmp/ccy293tT.s:137    .text:00000000000000ac .LBE59
     /tmp/ccy293tT.s:195    .text:00000000000000f4 .LBE60
     /tmp/ccy293tT.s:212    .text:0000000000000108 .LBB67
     /tmp/ccy293tT.s:220    .text:000000000000011c .LBE67
GAS LISTING /tmp/ccy293tT.s 			page 28


     /tmp/ccy293tT.s:240    .text:0000000000000128 .LBE80
     /tmp/ccy293tT.s:252    .text:000000000000013c .LBB83
     /tmp/ccy293tT.s:258    .text:0000000000000140 .LBE83
     /tmp/ccy293tT.s:285    .text:0000000000000164 .LBE84
     /tmp/ccy293tT.s:338    .text:00000000000001a0 .LBB95
     /tmp/ccy293tT.s:356    .text:00000000000001c0 .LBE95
     /tmp/ccy293tT.s:519    .text:00000000000002b0 .LBE116
     /tmp/ccy293tT.s:546    .text:00000000000002d4 .LBB123
     /tmp/ccy293tT.s:556    .text:00000000000002e8 .LBE123

UNDEFINED SYMBOLS
_ZN15MemoryAllocator4freeEPv
_ZN15MemoryAllocator8allocateEm
_ZN3TCB7runningE
_ZN3TCB8dispatchEv
