GAS LISTING /tmp/ccqRftQ6.s 			page 1


   1              		.file	"sem.cpp"
   2              		.option pic
   3              		.option norelax
   4              		.text
   5              	.Ltext0:
   6              		.align	2
   7              		.globl	_ZN3Sem9createSemEj
   9              	_ZN3Sem9createSemEj:
  10              	.LFB58:
  11              		.file 1 "src/sem.cpp"
   1:src/sem.cpp   **** //
   2:src/sem.cpp   **** // Created by os on 9/12/22.
   3:src/sem.cpp   **** //
   4:src/sem.cpp   **** 
   5:src/sem.cpp   **** #include "../h/sem.hpp"
   6:src/sem.cpp   **** 
   7:src/sem.cpp   **** Sem* Sem::createSem(unsigned init) {
  12              		.loc 1 7 36
  13              		.cfi_startproc
  14              	.LVL0:
  15 0000 130101FE 		addi	sp,sp,-32
  16              		.cfi_def_cfa_offset 32
  17 0004 233C1100 		sd	ra,24(sp)
  18 0008 23388100 		sd	s0,16(sp)
  19 000c 23349100 		sd	s1,8(sp)
  20              		.cfi_offset 1, -8
  21              		.cfi_offset 8, -16
  22              		.cfi_offset 9, -24
  23 0010 13040102 		addi	s0,sp,32
  24              		.cfi_def_cfa 8, 0
  25 0014 93040500 		mv	s1,a0
   8:src/sem.cpp   ****     return new Sem(init);
  26              		.loc 1 8 5
  27              	.LVL1:
  28              	.LBB45:
  29              	.LBB46:
  30              		.file 2 "src/../h/sem.hpp"
   1:src/../h/sem.hpp **** //
   2:src/../h/sem.hpp **** // Created by os on 9/12/22.
   3:src/../h/sem.hpp **** //
   4:src/../h/sem.hpp **** 
   5:src/../h/sem.hpp **** #ifndef OSMIUM_SEM_HPP
   6:src/../h/sem.hpp **** #define OSMIUM_SEM_HPP
   7:src/../h/sem.hpp **** 
   8:src/../h/sem.hpp **** #include "../lib/hw.h"
   9:src/../h/sem.hpp **** #include "tcb.hpp"
  10:src/../h/sem.hpp **** #include "list.hpp"
  11:src/../h/sem.hpp **** #include "scheduler.hpp"
  12:src/../h/sem.hpp **** 
  13:src/../h/sem.hpp **** class Sem {
  14:src/../h/sem.hpp **** public:
  15:src/../h/sem.hpp ****     static Sem* createSem(unsigned init);
  16:src/../h/sem.hpp **** 
  17:src/../h/sem.hpp ****     ~Sem();
  18:src/../h/sem.hpp **** 
  19:src/../h/sem.hpp ****     int semWait();
  20:src/../h/sem.hpp **** 
GAS LISTING /tmp/ccqRftQ6.s 			page 2


  21:src/../h/sem.hpp ****     int semSignal();
  22:src/../h/sem.hpp **** 
  23:src/../h/sem.hpp ****     void* operator new(size_t size) {
  24:src/../h/sem.hpp ****         return MemoryAllocator::allocate(size);
  31              		.loc 2 24 9
  32              		.loc 2 24 41 is_stmt 0
  33 0018 13050002 		li	a0,32
  34              	.LVL2:
  35 001c 97000000 		call	_ZN15MemoryAllocator8allocateEm@plt
  35      E7800000 
  36              	.LVL3:
  37              	.LBE46:
  38              	.LBE45:
  39              	.LBB47:
  40              	.LBB48:
  41              	.LBB49:
  42              	.LBB50:
  43              		.file 3 "src/../h/list.hpp"
   1:src/../h/list.hpp **** //
   2:src/../h/list.hpp **** // Created by os on 9/6/22.
   3:src/../h/list.hpp **** //
   4:src/../h/list.hpp **** 
   5:src/../h/list.hpp **** #ifndef OSMIUM_LIST_H
   6:src/../h/list.hpp **** #define OSMIUM_LIST_H
   7:src/../h/list.hpp **** 
   8:src/../h/list.hpp **** #include "../lib/console.h"
   9:src/../h/list.hpp **** 
  10:src/../h/list.hpp **** #include "__print.hpp"
  11:src/../h/list.hpp **** #include "memory_allocator.hpp"
  12:src/../h/list.hpp **** 
  13:src/../h/list.hpp **** template <typename T>
  14:src/../h/list.hpp **** class List {
  15:src/../h/list.hpp **** private:
  16:src/../h/list.hpp ****     struct Node {
  17:src/../h/list.hpp ****         T *data;
  18:src/../h/list.hpp ****         Node *next;
  19:src/../h/list.hpp **** 
  20:src/../h/list.hpp ****         Node(T *data, Node *next) : data(data), next(next) {}
  21:src/../h/list.hpp **** 
  22:src/../h/list.hpp ****         void* operator new(size_t size) {
  23:src/../h/list.hpp ****             return MemoryAllocator::allocate(size);
  24:src/../h/list.hpp ****         }
  25:src/../h/list.hpp **** 
  26:src/../h/list.hpp ****         void* operator new[](size_t size) {
  27:src/../h/list.hpp ****             return MemoryAllocator::allocate(size);
  28:src/../h/list.hpp ****         }
  29:src/../h/list.hpp **** 
  30:src/../h/list.hpp ****         void operator delete(void* ptr) {
  31:src/../h/list.hpp ****             MemoryAllocator::free(ptr);
  32:src/../h/list.hpp ****         }
  33:src/../h/list.hpp **** 
  34:src/../h/list.hpp ****         void operator delete[](void* ptr) {
  35:src/../h/list.hpp ****             MemoryAllocator::free(ptr);
  36:src/../h/list.hpp ****         }
  37:src/../h/list.hpp ****     };
  38:src/../h/list.hpp **** 
  39:src/../h/list.hpp ****     Node *head, *tail;
GAS LISTING /tmp/ccqRftQ6.s 			page 3


  40:src/../h/list.hpp **** public:
  41:src/../h/list.hpp ****     List() : head(0), tail(0) {}
  44              		.loc 3 41 29
  45 0024 23300500 		sd	zero,0(a0)
  46 0028 23340500 		sd	zero,8(a0)
  47              	.LVL4:
  48              	.LBE50:
  49              	.LBE49:
  25:src/../h/sem.hpp ****     }
  26:src/../h/sem.hpp **** 
  27:src/../h/sem.hpp ****     void* operator new[](size_t size) {
  28:src/../h/sem.hpp ****         return MemoryAllocator::allocate(size);
  29:src/../h/sem.hpp ****     }
  30:src/../h/sem.hpp **** 
  31:src/../h/sem.hpp ****     void operator delete(void* ptr) {
  32:src/../h/sem.hpp ****         MemoryAllocator::free(ptr);
  33:src/../h/sem.hpp ****     }
  34:src/../h/sem.hpp **** 
  35:src/../h/sem.hpp ****     void operator delete[](void* ptr) {
  36:src/../h/sem.hpp ****         MemoryAllocator::free(ptr);
  37:src/../h/sem.hpp ****     }
  38:src/../h/sem.hpp **** 
  39:src/../h/sem.hpp **** private:
  40:src/../h/sem.hpp ****     Sem(unsigned init) : init(init), val(init) {}
  50              		.loc 2 40 46
  51 002c 23289500 		sw	s1,16(a0)
  52              		.loc 2 40 42
  53 0030 93940402 		slli	s1,s1,32
  54              	.LVL5:
  55 0034 93D40402 		srli	s1,s1,32
  56              		.loc 2 40 46
  57 0038 233C9500 		sd	s1,24(a0)
  58              	.LVL6:
  59              	.LBE48:
  60              	.LBE47:
   9:src/sem.cpp   **** }
  61              		.loc 1 9 1
  62 003c 83308101 		ld	ra,24(sp)
  63              		.cfi_restore 1
  64 0040 03340101 		ld	s0,16(sp)
  65              		.cfi_restore 8
  66              		.cfi_def_cfa 2, 32
  67 0044 83348100 		ld	s1,8(sp)
  68              		.cfi_restore 9
  69 0048 13010102 		addi	sp,sp,32
  70              		.cfi_def_cfa_offset 0
  71 004c 67800000 		jr	ra
  72              		.cfi_endproc
  73              	.LFE58:
  75              		.align	2
  76              		.globl	_ZN3SemD2Ev
  78              	_ZN3SemD2Ev:
  79              	.LFB60:
  10:src/sem.cpp   **** 
  11:src/sem.cpp   **** Sem::~Sem() {
  80              		.loc 1 11 1 is_stmt 1
  81              		.cfi_startproc
GAS LISTING /tmp/ccqRftQ6.s 			page 4


  82              		.cfi_personality 0x9b,DW.ref.__gxx_personality_v0
  83              		.cfi_lsda 0x1b,.LLSDA60
  84              	.LVL7:
  85 0050 130101FE 		addi	sp,sp,-32
  86              		.cfi_def_cfa_offset 32
  87 0054 233C1100 		sd	ra,24(sp)
  88 0058 23388100 		sd	s0,16(sp)
  89 005c 23349100 		sd	s1,8(sp)
  90 0060 23302101 		sd	s2,0(sp)
  91              		.cfi_offset 1, -8
  92              		.cfi_offset 8, -16
  93              		.cfi_offset 9, -24
  94              		.cfi_offset 18, -32
  95 0064 13040102 		addi	s0,sp,32
  96              		.cfi_def_cfa 8, 0
  97 0068 93040500 		mv	s1,a0
  98 006c 6F008002 		j	.L7
  99              	.LVL8:
 100              	.L10:
 101              	.LBB51:
 102              	.LBB52:
 103              	.LBB53:
  42:src/../h/list.hpp ****     List(const List<T> &) = delete;
  43:src/../h/list.hpp ****     List<T> &operator=(const List<T> &) = delete;
  44:src/../h/list.hpp **** 
  45:src/../h/list.hpp ****     void putFirst(T *data) {
  46:src/../h/list.hpp ****         Node *newNode = new Node(data, head);
  47:src/../h/list.hpp ****         head = newNode;
  48:src/../h/list.hpp ****         if (!tail) tail = head;
  49:src/../h/list.hpp ****     }
  50:src/../h/list.hpp **** 
  51:src/../h/list.hpp ****     void putLast(T *data) {
  52:src/../h/list.hpp ****         Node *newNode = new Node(data, 0);
  53:src/../h/list.hpp ****         if (!tail) head = tail = newNode;
  54:src/../h/list.hpp ****         else {
  55:src/../h/list.hpp ****             tail->next = newNode;
  56:src/../h/list.hpp ****             tail = newNode;
  57:src/../h/list.hpp ****         }
  58:src/../h/list.hpp ****     }
  59:src/../h/list.hpp **** 
  60:src/../h/list.hpp ****     void putSorted(T* data) {
  61:src/../h/list.hpp ****         Node *newNode = new Node(data, 0);
  62:src/../h/list.hpp ****         if (!head) { head = tail = newNode; return; }
  63:src/../h/list.hpp ****         Node* curr = head, *prev = nullptr;
  64:src/../h/list.hpp ****         while (curr) {
  65:src/../h/list.hpp ****             if (*(uint64*)(newNode->data) < *(uint64*)(curr->data)) {
  66:src/../h/list.hpp ****                 break;
  67:src/../h/list.hpp ****             }
  68:src/../h/list.hpp ****             *(uint64*)(newNode->data) -= *(uint64*)(curr->data);
  69:src/../h/list.hpp ****             prev = curr;
  70:src/../h/list.hpp ****             curr = curr->next;
  71:src/../h/list.hpp ****         }
  72:src/../h/list.hpp ****         if (prev) prev->next = newNode;
  73:src/../h/list.hpp ****         else head = newNode;
  74:src/../h/list.hpp ****         if (curr) {newNode->next = curr; *(uint64*)(curr->data) -= *(uint64*)(newNode->data);}
  75:src/../h/list.hpp ****         else prev->next = newNode;
  76:src/../h/list.hpp ****     }
GAS LISTING /tmp/ccqRftQ6.s 			page 5


  77:src/../h/list.hpp **** 
  78:src/../h/list.hpp ****     T* takeFirst() {
  79:src/../h/list.hpp ****         if (!head) return 0;
  80:src/../h/list.hpp **** 
  81:src/../h/list.hpp ****         T* ret = head->data;
  82:src/../h/list.hpp ****         Node* old = head;
  83:src/../h/list.hpp ****         head = head->next;
  84:src/../h/list.hpp ****         if (!head) tail = 0;
 104              		.loc 3 84 20 is_stmt 0
 105 0070 23B40400 		sd	zero,8(s1)
 106              	.L6:
 107              	.LVL9:
 108              	.LBB54:
 109              	.LBB55:
  31:src/../h/list.hpp ****         }
 110              		.loc 3 31 34
 111 0074 97000000 		call	_ZN15MemoryAllocator4freeEPv@plt
 111      E7800000 
 112              	.LVL10:
 113              	.L5:
 114              	.LBE55:
 115              	.LBE54:
 116              	.LBE53:
 117              	.LBE52:
  12:src/sem.cpp   ****     while (val < 0) {
  13:src/sem.cpp   ****         Scheduler::put(list.takeFirst());
 118              		.loc 1 13 23
 119 007c 13050900 		mv	a0,s2
 120 0080 97000000 		call	_ZN9Scheduler3putEP3TCB@plt
 120      E7800000 
 121              	.LVL11:
  14:src/sem.cpp   ****         val++;
 122              		.loc 1 14 9 is_stmt 1
 123 0088 83B78401 		ld	a5,24(s1)
 124              		.loc 1 14 12 is_stmt 0
 125 008c 93871700 		addi	a5,a5,1
 126 0090 23BCF400 		sd	a5,24(s1)
 127              	.L7:
  12:src/sem.cpp   ****     while (val < 0) {
 128              		.loc 1 12 5 is_stmt 1
  12:src/sem.cpp   ****     while (val < 0) {
 129              		.loc 1 12 16
  12:src/sem.cpp   ****     while (val < 0) {
 130              		.loc 1 12 12 is_stmt 0
 131 0094 83B78401 		ld	a5,24(s1)
  12:src/sem.cpp   ****     while (val < 0) {
 132              		.loc 1 12 16
 133 0098 63D40702 		bgez	a5,.L3
  13:src/sem.cpp   ****         val++;
 134              		.loc 1 13 9 is_stmt 1
 135              	.LVL12:
 136              	.LBB57:
 137              	.LBB56:
  79:src/../h/list.hpp **** 
 138              		.loc 3 79 14 is_stmt 0
 139 009c 03B50400 		ld	a0,0(s1)
  79:src/../h/list.hpp **** 
GAS LISTING /tmp/ccqRftQ6.s 			page 6


 140              		.loc 3 79 9
 141 00a0 630C0500 		beqz	a0,.L8
  81:src/../h/list.hpp ****         Node* old = head;
 142              		.loc 3 81 12
 143 00a4 03390500 		ld	s2,0(a0)
 144              	.LVL13:
  83:src/../h/list.hpp ****         if (!head) tail = 0;
 145              		.loc 3 83 22
 146 00a8 83378500 		ld	a5,8(a0)
  83:src/../h/list.hpp ****         if (!head) tail = 0;
 147              		.loc 3 83 9
 148 00ac 23B0F400 		sd	a5,0(s1)
 149              		.loc 3 84 9
 150 00b0 E39207FC 		bnez	a5,.L6
 151 00b4 6FF0DFFB 		j	.L10
 152              	.LVL14:
 153              	.L8:
  79:src/../h/list.hpp **** 
 154              		.loc 3 79 27
 155 00b8 13090500 		mv	s2,a0
 156 00bc 6FF01FFC 		j	.L5
 157              	.LVL15:
 158              	.L3:
 159              	.LBE56:
 160              	.LBE57:
 161              	.LBE51:
  15:src/sem.cpp   ****     }
  16:src/sem.cpp   **** }
 162              		.loc 1 16 1
 163 00c0 83308101 		ld	ra,24(sp)
 164              		.cfi_restore 1
 165 00c4 03340101 		ld	s0,16(sp)
 166              		.cfi_restore 8
 167              		.cfi_def_cfa 2, 32
 168 00c8 83348100 		ld	s1,8(sp)
 169              		.cfi_restore 9
 170              	.LVL16:
 171 00cc 03390100 		ld	s2,0(sp)
 172              		.cfi_restore 18
 173 00d0 13010102 		addi	sp,sp,32
 174              		.cfi_def_cfa_offset 0
 175 00d4 67800000 		jr	ra
 176              		.cfi_endproc
 177              	.LFE60:
 178              		.globl	__gxx_personality_v0
 179              		.section	.gcc_except_table,"a",@progbits
 180              	.LLSDA60:
 181 0000 FF       		.byte	0xff
 182 0001 FF       		.byte	0xff
 183 0002 03       		.byte	0x3
 184 0003 00       		.byte	0
 185              		.text
 187              		.globl	_ZN3SemD1Ev
 188              		.set	_ZN3SemD1Ev,_ZN3SemD2Ev
 189              		.align	2
 190              		.globl	_ZN3Sem7semWaitEv
 192              	_ZN3Sem7semWaitEv:
GAS LISTING /tmp/ccqRftQ6.s 			page 7


 193              	.LFB62:
  17:src/sem.cpp   **** 
  18:src/sem.cpp   **** int Sem::semWait() {
 194              		.loc 1 18 20 is_stmt 1
 195              		.cfi_startproc
 196              	.LVL17:
  19:src/sem.cpp   ****     if (--val < 0) {
 197              		.loc 1 19 5
 198              	.LBB58:
 199              		.loc 1 19 11 is_stmt 0
 200 00d8 83378501 		ld	a5,24(a0)
 201              		.loc 1 19 9
 202 00dc 9387F7FF 		addi	a5,a5,-1
 203              		.loc 1 19 15
 204 00e0 233CF500 		sd	a5,24(a0)
 205              		.loc 1 19 5
 206 00e4 63C60700 		bltz	a5,.L19
 207              	.LBE58:
  20:src/sem.cpp   ****         TCB *old = TCB::running;
  21:src/sem.cpp   ****         old->setBlocked(true);
  22:src/sem.cpp   ****         list.putLast(old);
  23:src/sem.cpp   ****         TCB::dispatch();
  24:src/sem.cpp   ****     }
  25:src/sem.cpp   ****     return 0;
 208              		.loc 1 25 5 is_stmt 1
  26:src/sem.cpp   **** }
 209              		.loc 1 26 1 is_stmt 0
 210 00e8 13050000 		li	a0,0
 211              	.LVL18:
 212 00ec 67800000 		ret
 213              	.LVL19:
 214              	.L19:
  18:src/sem.cpp   ****     if (--val < 0) {
 215              		.loc 1 18 20
 216 00f0 130101FE 		addi	sp,sp,-32
 217              		.cfi_def_cfa_offset 32
 218 00f4 233C1100 		sd	ra,24(sp)
 219 00f8 23388100 		sd	s0,16(sp)
 220 00fc 23349100 		sd	s1,8(sp)
 221 0100 23302101 		sd	s2,0(sp)
 222              		.cfi_offset 1, -8
 223              		.cfi_offset 8, -16
 224              		.cfi_offset 9, -24
 225              		.cfi_offset 18, -32
 226 0104 13040102 		addi	s0,sp,32
 227              		.cfi_def_cfa 8, 0
 228 0108 93040500 		mv	s1,a0
 229              	.LBB71:
 230              	.LBB59:
  20:src/sem.cpp   ****         TCB *old = TCB::running;
 231              		.loc 1 20 9 is_stmt 1
  20:src/sem.cpp   ****         TCB *old = TCB::running;
 232              		.loc 1 20 14 is_stmt 0
 233 010c 97070000 		la	a5,_ZN3TCB7runningE
 233      83B70700 
 234 0114 03B90700 		ld	s2,0(a5)
 235              	.LVL20:
GAS LISTING /tmp/ccqRftQ6.s 			page 8


  21:src/sem.cpp   ****         list.putLast(old);
 236              		.loc 1 21 9 is_stmt 1
 237              	.LBB60:
 238              	.LBB61:
 239              		.file 4 "src/../h/tcb.hpp"
   1:src/../h/tcb.hpp **** //
   2:src/../h/tcb.hpp **** // Created by os on 9/9/22.
   3:src/../h/tcb.hpp **** //
   4:src/../h/tcb.hpp **** 
   5:src/../h/tcb.hpp **** #ifndef OSMIUM_TCB_HPP
   6:src/../h/tcb.hpp **** #define OSMIUM_TCB_HPP
   7:src/../h/tcb.hpp **** 
   8:src/../h/tcb.hpp **** #include "../lib/hw.h"
   9:src/../h/tcb.hpp **** //#include "../h/scheduler.hpp"
  10:src/../h/tcb.hpp **** #include "riscv.hpp"
  11:src/../h/tcb.hpp **** #include "memory_allocator.hpp"
  12:src/../h/tcb.hpp **** 
  13:src/../h/tcb.hpp **** class Scheduler;
  14:src/../h/tcb.hpp **** 
  15:src/../h/tcb.hpp **** 
  16:src/../h/tcb.hpp **** class TCB {
  17:src/../h/tcb.hpp **** public:
  18:src/../h/tcb.hpp ****     using Body = void (*)(void*);
  19:src/../h/tcb.hpp **** 
  20:src/../h/tcb.hpp ****     static TCB* createTCB(Body body, void* args);
  21:src/../h/tcb.hpp **** 
  22:src/../h/tcb.hpp ****     static TCB* createDeactivatedTCB(Body body, void* args);
  23:src/../h/tcb.hpp **** 
  24:src/../h/tcb.hpp ****     static TCB* createSupervisorTCB(Body body, void* args);
  25:src/../h/tcb.hpp **** 
  26:src/../h/tcb.hpp ****     bool isFinished() const { bool ret = finished; return ret; }
  27:src/../h/tcb.hpp **** 
  28:src/../h/tcb.hpp ****     void setFinished(bool val) { finished = val; }
  29:src/../h/tcb.hpp **** 
  30:src/../h/tcb.hpp ****     bool isBlocked() const { return blocked; }
  31:src/../h/tcb.hpp **** 
  32:src/../h/tcb.hpp ****     void setBlocked(bool val) { blocked = val; }
 240              		.loc 4 32 33
 241              		.loc 4 32 41 is_stmt 0
 242 0118 93071000 		li	a5,1
 243 011c A30CF900 		sb	a5,25(s2)
 244              	.LVL21:
 245              	.LBE61:
 246              	.LBE60:
  22:src/sem.cpp   ****         TCB::dispatch();
 247              		.loc 1 22 9 is_stmt 1
 248              	.LBB62:
 249              	.LBB63:
 250              	.LBB64:
 251              	.LBB65:
  23:src/../h/list.hpp ****         }
 252              		.loc 3 23 45 is_stmt 0
 253 0120 13050001 		li	a0,16
 254              	.LVL22:
 255 0124 97000000 		call	_ZN15MemoryAllocator8allocateEm@plt
 255      E7800000 
 256              	.LVL23:
GAS LISTING /tmp/ccqRftQ6.s 			page 9


 257              	.LBE65:
 258              	.LBE64:
 259              	.LBB66:
 260              	.LBB67:
  20:src/../h/list.hpp **** 
 261              		.loc 3 20 58
 262 012c 23302501 		sd	s2,0(a0)
 263 0130 23340500 		sd	zero,8(a0)
 264              	.LVL24:
 265              	.LBE67:
 266              	.LBE66:
  53:src/../h/list.hpp ****         else {
 267              		.loc 3 53 14
 268 0134 83B78400 		ld	a5,8(s1)
  53:src/../h/list.hpp ****         else {
 269              		.loc 3 53 9
 270 0138 63880702 		beqz	a5,.L20
  55:src/../h/list.hpp ****             tail = newNode;
 271              		.loc 3 55 13
 272 013c 23B4A700 		sd	a0,8(a5)
  56:src/../h/list.hpp ****         }
 273              		.loc 3 56 13
 274 0140 23B4A400 		sd	a0,8(s1)
 275              	.L14:
 276              	.LVL25:
 277              	.LBE63:
 278              	.LBE62:
  23:src/sem.cpp   ****     }
 279              		.loc 1 23 9 is_stmt 1
  23:src/sem.cpp   ****     }
 280              		.loc 1 23 22 is_stmt 0
 281 0144 97000000 		call	_ZN3TCB8dispatchEv@plt
 281      E7800000 
 282              	.LVL26:
 283              	.LBE59:
 284              	.LBE71:
  25:src/sem.cpp   **** }
 285              		.loc 1 25 5 is_stmt 1
 286              		.loc 1 26 1 is_stmt 0
 287 014c 13050000 		li	a0,0
 288 0150 83308101 		ld	ra,24(sp)
 289              		.cfi_remember_state
 290              		.cfi_restore 1
 291 0154 03340101 		ld	s0,16(sp)
 292              		.cfi_restore 8
 293              		.cfi_def_cfa 2, 32
 294 0158 83348100 		ld	s1,8(sp)
 295              		.cfi_restore 9
 296              	.LVL27:
 297 015c 03390100 		ld	s2,0(sp)
 298              		.cfi_restore 18
 299              	.LVL28:
 300 0160 13010102 		addi	sp,sp,32
 301              		.cfi_def_cfa_offset 0
 302 0164 67800000 		jr	ra
 303              	.LVL29:
 304              	.L20:
GAS LISTING /tmp/ccqRftQ6.s 			page 10


 305              		.cfi_restore_state
 306              	.LBB72:
 307              	.LBB70:
 308              	.LBB69:
 309              	.LBB68:
  53:src/../h/list.hpp ****         else {
 310              		.loc 3 53 20
 311 0168 23B4A400 		sd	a0,8(s1)
 312 016c 23B0A400 		sd	a0,0(s1)
 313 0170 6FF05FFD 		j	.L14
 314              	.LBE68:
 315              	.LBE69:
 316              	.LBE70:
 317              	.LBE72:
 318              		.cfi_endproc
 319              	.LFE62:
 321              		.align	2
 322              		.globl	_ZN3Sem9semSignalEv
 324              	_ZN3Sem9semSignalEv:
 325              	.LFB63:
  27:src/sem.cpp   **** 
  28:src/sem.cpp   **** int Sem::semSignal() {
 326              		.loc 1 28 22 is_stmt 1
 327              		.cfi_startproc
 328              	.LVL30:
  29:src/sem.cpp   ****     if (++val <= 0) {
 329              		.loc 1 29 5
 330              	.LBB73:
 331              		.loc 1 29 11 is_stmt 0
 332 0174 03378501 		ld	a4,24(a0)
 333              		.loc 1 29 9
 334 0178 13071700 		addi	a4,a4,1
 335              		.loc 1 29 15
 336 017c 233CE500 		sd	a4,24(a0)
 337              		.loc 1 29 5
 338 0180 6356E000 		blez	a4,.L30
 339              	.LBE73:
  30:src/sem.cpp   ****         TCB* ready = list.takeFirst();
  31:src/sem.cpp   ****         ready->setBlocked(false);
  32:src/sem.cpp   ****         Scheduler::put(ready);
  33:src/sem.cpp   ****     }
  34:src/sem.cpp   ****     return 0;
 340              		.loc 1 34 5 is_stmt 1
  35:src/sem.cpp   **** }...
 341              		.loc 1 35 1 is_stmt 0
 342 0184 13050000 		li	a0,0
 343              	.LVL31:
 344 0188 67800000 		ret
 345              	.LVL32:
 346              	.L30:
  28:src/sem.cpp   **** int Sem::semSignal() {
 347              		.loc 1 28 22
 348 018c 130101FE 		addi	sp,sp,-32
 349              		.cfi_def_cfa_offset 32
 350 0190 233C1100 		sd	ra,24(sp)
 351 0194 23388100 		sd	s0,16(sp)
 352 0198 23349100 		sd	s1,8(sp)
GAS LISTING /tmp/ccqRftQ6.s 			page 11


 353              		.cfi_offset 1, -8
 354              		.cfi_offset 8, -16
 355              		.cfi_offset 9, -24
 356 019c 13040102 		addi	s0,sp,32
 357              		.cfi_def_cfa 8, 0
 358 01a0 93070500 		mv	a5,a0
 359              	.LBB84:
 360              	.LBB74:
  30:src/sem.cpp   ****         TCB* ready = list.takeFirst();
 361              		.loc 1 30 9 is_stmt 1
 362              	.LVL33:
 363              	.LBB75:
 364              	.LBB76:
  79:src/../h/list.hpp **** 
 365              		.loc 3 79 14 is_stmt 0
 366 01a4 03350500 		ld	a0,0(a0)
 367              	.LVL34:
  79:src/../h/list.hpp **** 
 368              		.loc 3 79 9
 369 01a8 63060504 		beqz	a0,.L25
  81:src/../h/list.hpp ****         Node* old = head;
 370              		.loc 3 81 12
 371 01ac 83340500 		ld	s1,0(a0)
 372              	.LVL35:
  83:src/../h/list.hpp ****         if (!head) tail = 0;
 373              		.loc 3 83 22
 374 01b0 03378500 		ld	a4,8(a0)
  83:src/../h/list.hpp ****         if (!head) tail = 0;
 375              		.loc 3 83 9
 376 01b4 23B0E700 		sd	a4,0(a5)
 377              		.loc 3 84 9
 378 01b8 630A0702 		beqz	a4,.L31
 379              	.L24:
 380              	.LVL36:
 381              	.LBB77:
 382              	.LBB78:
  31:src/../h/list.hpp ****         }
 383              		.loc 3 31 34
 384 01bc 97000000 		call	_ZN15MemoryAllocator4freeEPv@plt
 384      E7800000 
 385              	.LVL37:
 386              	.L23:
 387              	.LBE78:
 388              	.LBE77:
 389              	.LBE76:
 390              	.LBE75:
  31:src/sem.cpp   ****         ready->setBlocked(false);
 391              		.loc 1 31 9 is_stmt 1
 392              	.LBB80:
 393              	.LBB81:
 394              		.loc 4 32 33
 395              		.loc 4 32 41 is_stmt 0
 396 01c4 A38C0400 		sb	zero,25(s1)
 397              	.LVL38:
 398              	.LBE81:
 399              	.LBE80:
  32:src/sem.cpp   ****         Scheduler::put(ready);
GAS LISTING /tmp/ccqRftQ6.s 			page 12


 400              		.loc 1 32 9 is_stmt 1
  32:src/sem.cpp   ****         Scheduler::put(ready);
 401              		.loc 1 32 23 is_stmt 0
 402 01c8 13850400 		mv	a0,s1
 403 01cc 97000000 		call	_ZN9Scheduler3putEP3TCB@plt
 403      E7800000 
 404              	.LVL39:
 405              	.LBE74:
 406              	.LBE84:
  34:src/sem.cpp   ****     return 0;
 407              		.loc 1 34 5 is_stmt 1
 408              		.loc 1 35 1 is_stmt 0
 409 01d4 13050000 		li	a0,0
 410 01d8 83308101 		ld	ra,24(sp)
 411              		.cfi_remember_state
 412              		.cfi_restore 1
 413 01dc 03340101 		ld	s0,16(sp)
 414              		.cfi_restore 8
 415              		.cfi_def_cfa 2, 32
 416 01e0 83348100 		ld	s1,8(sp)
 417              		.cfi_restore 9
 418              	.LVL40:
 419 01e4 13010102 		addi	sp,sp,32
 420              		.cfi_def_cfa_offset 0
 421 01e8 67800000 		jr	ra
 422              	.LVL41:
 423              	.L31:
 424              		.cfi_restore_state
 425              	.LBB85:
 426              	.LBB83:
 427              	.LBB82:
 428              	.LBB79:
 429              		.loc 3 84 20
 430 01ec 23B40700 		sd	zero,8(a5)
 431 01f0 6FF0DFFC 		j	.L24
 432              	.LVL42:
 433              	.L25:
  79:src/../h/list.hpp **** 
 434              		.loc 3 79 27
 435 01f4 93040500 		mv	s1,a0
 436 01f8 6FF0DFFC 		j	.L23
 437              	.LBE79:
 438              	.LBE82:
 439              	.LBE83:
 440              	.LBE85:
 441              		.cfi_endproc
 442              	.LFE63:
 444              	.Letext0:
 445              		.file 5 "src/../h/../lib/hw.h"
 446              		.file 6 "src/../h/memory_allocator.hpp"
 447              		.file 7 "src/../h/scheduler.hpp"
 448              		.file 8 "src/../h/syscall_c.h"
 3940              		.align	3
 3943              	DW.ref.__gxx_personality_v0:
 3944 0000 00000000 		.dword	__gxx_personality_v0
 3944      00000000 
 3945              		.ident	"GCC: (Ubuntu 9.4.0-1ubuntu1~20.04) 9.4.0"
GAS LISTING /tmp/ccqRftQ6.s 			page 13


 3946              		.section	.note.GNU-stack,"",@progbits
GAS LISTING /tmp/ccqRftQ6.s 			page 14

