GAS LISTING /tmp/ccTfLuYp.s 			page 1


   1              		.file	"semaphore.cpp"
   2              		.option pic
   3              		.option norelax
   4              		.text
   5              	.Ltext0:
   6              		.align	2
   7              		.globl	_ZN9Semaphore4waitEv
   9              	_ZN9Semaphore4waitEv:
  10              	.LFB2:
  11              		.file 1 "src/semaphore.cpp"
   1:src/semaphore.cpp **** //
   2:src/semaphore.cpp **** // Created by os on 9/9/22.
   3:src/semaphore.cpp **** //
   4:src/semaphore.cpp **** 
   5:src/semaphore.cpp **** #include "../h/syscall_cpp.hpp"
   6:src/semaphore.cpp **** 
   7:src/semaphore.cpp **** /*Semaphore::Semaphore(unsigned int init) {
   8:src/semaphore.cpp **** 
   9:src/semaphore.cpp **** }*/
  10:src/semaphore.cpp **** 
  11:src/semaphore.cpp **** int Semaphore::wait() {
  12              		.loc 1 11 23
  13              		.cfi_startproc
  14              	.LVL0:
  15 0000 130101FF 		addi	sp,sp,-16
  16              		.cfi_def_cfa_offset 16
  17 0004 23348100 		sd	s0,8(sp)
  18              		.cfi_offset 8, -8
  19 0008 13040101 		addi	s0,sp,16
  20              		.cfi_def_cfa 8, 0
  12:src/semaphore.cpp ****     return 0;
  21              		.loc 1 12 5
  13:src/semaphore.cpp **** }
  22              		.loc 1 13 1 is_stmt 0
  23 000c 13050000 		li	a0,0
  24              	.LVL1:
  25 0010 03348100 		ld	s0,8(sp)
  26              		.cfi_restore 8
  27              		.cfi_def_cfa 2, 16
  28 0014 13010101 		addi	sp,sp,16
  29              		.cfi_def_cfa_offset 0
  30 0018 67800000 		jr	ra
  31              		.cfi_endproc
  32              	.LFE2:
  34              		.align	2
  35              		.globl	_ZN9Semaphore6signalEv
  37              	_ZN9Semaphore6signalEv:
  38              	.LFB3:
  14:src/semaphore.cpp **** 
  15:src/semaphore.cpp **** int Semaphore::signal() {
  39              		.loc 1 15 25 is_stmt 1
  40              		.cfi_startproc
  41              	.LVL2:
  42 001c 130101FF 		addi	sp,sp,-16
  43              		.cfi_def_cfa_offset 16
  44 0020 23348100 		sd	s0,8(sp)
  45              		.cfi_offset 8, -8
GAS LISTING /tmp/ccTfLuYp.s 			page 2


  46 0024 13040101 		addi	s0,sp,16
  47              		.cfi_def_cfa 8, 0
  16:src/semaphore.cpp ****     return 0;
  48              		.loc 1 16 5
  17:src/semaphore.cpp **** }
  49              		.loc 1 17 1 is_stmt 0
  50 0028 13050000 		li	a0,0
  51              	.LVL3:
  52 002c 03348100 		ld	s0,8(sp)
  53              		.cfi_restore 8
  54              		.cfi_def_cfa 2, 16
  55 0030 13010101 		addi	sp,sp,16
  56              		.cfi_def_cfa_offset 0
  57 0034 67800000 		jr	ra
  58              		.cfi_endproc
  59              	.LFE3:
  61              	.Letext0:
  62              		.file 2 "src/../h/../lib/hw.h"
  63              		.file 3 "src/../h/syscall_c.hpp"
GAS LISTING /tmp/ccTfLuYp.s 			page 3

