GAS LISTING /tmp/cczLJAUp.s 			page 1


   1              		.file	"semaphore.cpp"
   2              		.option pic
   3              		.option norelax
   4              		.text
   5              	.Ltext0:
   6              		.align	2
   7              		.globl	_ZN9SemaphoreD2Ev
   9              	_ZN9SemaphoreD2Ev:
  10              	.LFB8:
  11              		.file 1 "src/semaphore.cpp"
   1:src/semaphore.cpp **** //
   2:src/semaphore.cpp **** // Created by os on 9/9/22.
   3:src/semaphore.cpp **** //
   4:src/semaphore.cpp **** 
   5:src/semaphore.cpp **** #include "../h/syscall_cpp.hpp"
   6:src/semaphore.cpp **** 
   7:src/semaphore.cpp **** Semaphore::Semaphore(unsigned int init) {
   8:src/semaphore.cpp **** 
   9:src/semaphore.cpp **** }
  10:src/semaphore.cpp **** 
  11:src/semaphore.cpp **** int Semaphore::wait() {
  12:src/semaphore.cpp ****     return 0;
  13:src/semaphore.cpp **** }
  14:src/semaphore.cpp **** 
  15:src/semaphore.cpp **** int Semaphore::signal() {
  16:src/semaphore.cpp ****     return 0;
  17:src/semaphore.cpp **** }
  18:src/semaphore.cpp **** 
  19:src/semaphore.cpp **** Semaphore::~Semaphore() {
  12              		.loc 1 19 1
  13              		.cfi_startproc
  14              	.LVL0:
  15 0000 130101FF 		addi	sp,sp,-16
  16              		.cfi_def_cfa_offset 16
  17 0004 23348100 		sd	s0,8(sp)
  18              		.cfi_offset 8, -8
  19 0008 13040101 		addi	s0,sp,16
  20              		.cfi_def_cfa 8, 0
  20:src/semaphore.cpp **** 
  21:src/semaphore.cpp **** }
  21              		.loc 1 21 1 is_stmt 0
  22 000c 03348100 		ld	s0,8(sp)
  23              		.cfi_restore 8
  24              		.cfi_def_cfa 2, 16
  25 0010 13010101 		addi	sp,sp,16
  26              		.cfi_def_cfa_offset 0
  27 0014 67800000 		jr	ra
  28              		.cfi_endproc
  29              	.LFE8:
  31              		.globl	_ZN9SemaphoreD1Ev
  32              		.set	_ZN9SemaphoreD1Ev,_ZN9SemaphoreD2Ev
  33              		.align	2
  34              		.globl	_ZN9SemaphoreD0Ev
  36              	_ZN9SemaphoreD0Ev:
  37              	.LFB10:
  19:src/semaphore.cpp **** 
  38              		.loc 1 19 1 is_stmt 1
GAS LISTING /tmp/cczLJAUp.s 			page 2


  39              		.cfi_startproc
  40              	.LVL1:
  41 0018 130101FF 		addi	sp,sp,-16
  42              		.cfi_def_cfa_offset 16
  43 001c 23341100 		sd	ra,8(sp)
  44 0020 23308100 		sd	s0,0(sp)
  45              		.cfi_offset 1, -8
  46              		.cfi_offset 8, -16
  47 0024 13040101 		addi	s0,sp,16
  48              		.cfi_def_cfa 8, 0
  49              		.loc 1 21 1 is_stmt 0
  50 0028 97000000 		call	_ZdlPv@plt
  50      E7800000 
  51              	.LVL2:
  52 0030 83308100 		ld	ra,8(sp)
  53              		.cfi_restore 1
  54 0034 03340100 		ld	s0,0(sp)
  55              		.cfi_restore 8
  56              		.cfi_def_cfa 2, 16
  57 0038 13010101 		addi	sp,sp,16
  58              		.cfi_def_cfa_offset 0
  59 003c 67800000 		jr	ra
  60              		.cfi_endproc
  61              	.LFE10:
  63              		.align	2
  64              		.globl	_ZN9SemaphoreC2Ej
  66              	_ZN9SemaphoreC2Ej:
  67              	.LFB3:
   7:src/semaphore.cpp **** 
  68              		.loc 1 7 1 is_stmt 1
  69              		.cfi_startproc
  70              	.LVL3:
  71 0040 130101FF 		addi	sp,sp,-16
  72              		.cfi_def_cfa_offset 16
  73 0044 23348100 		sd	s0,8(sp)
  74              		.cfi_offset 8, -8
  75 0048 13040101 		addi	s0,sp,16
  76              		.cfi_def_cfa 8, 0
  77              	.LBB2:
   7:src/semaphore.cpp **** 
  78              		.loc 1 7 39 is_stmt 0
  79 004c 97070000 		lla	a5,_ZTV9Semaphore+16
  79      93870700 
  80 0054 2330F500 		sd	a5,0(a0)
  81              	.LBE2:
   9:src/semaphore.cpp **** 
  82              		.loc 1 9 1
  83 0058 03348100 		ld	s0,8(sp)
  84              		.cfi_restore 8
  85              		.cfi_def_cfa 2, 16
  86 005c 13010101 		addi	sp,sp,16
  87              		.cfi_def_cfa_offset 0
  88 0060 67800000 		jr	ra
  89              		.cfi_endproc
  90              	.LFE3:
  92              		.globl	_ZN9SemaphoreC1Ej
  93              		.set	_ZN9SemaphoreC1Ej,_ZN9SemaphoreC2Ej
GAS LISTING /tmp/cczLJAUp.s 			page 3


  94              		.align	2
  95              		.globl	_ZN9Semaphore4waitEv
  97              	_ZN9Semaphore4waitEv:
  98              	.LFB5:
  11:src/semaphore.cpp ****     return 0;
  99              		.loc 1 11 23 is_stmt 1
 100              		.cfi_startproc
 101              	.LVL4:
 102 0064 130101FF 		addi	sp,sp,-16
 103              		.cfi_def_cfa_offset 16
 104 0068 23348100 		sd	s0,8(sp)
 105              		.cfi_offset 8, -8
 106 006c 13040101 		addi	s0,sp,16
 107              		.cfi_def_cfa 8, 0
  12:src/semaphore.cpp **** }
 108              		.loc 1 12 5
  13:src/semaphore.cpp **** 
 109              		.loc 1 13 1 is_stmt 0
 110 0070 13050000 		li	a0,0
 111              	.LVL5:
 112 0074 03348100 		ld	s0,8(sp)
 113              		.cfi_restore 8
 114              		.cfi_def_cfa 2, 16
 115 0078 13010101 		addi	sp,sp,16
 116              		.cfi_def_cfa_offset 0
 117 007c 67800000 		jr	ra
 118              		.cfi_endproc
 119              	.LFE5:
 121              		.align	2
 122              		.globl	_ZN9Semaphore6signalEv
 124              	_ZN9Semaphore6signalEv:
 125              	.LFB6:
  15:src/semaphore.cpp ****     return 0;
 126              		.loc 1 15 25 is_stmt 1
 127              		.cfi_startproc
 128              	.LVL6:
 129 0080 130101FF 		addi	sp,sp,-16
 130              		.cfi_def_cfa_offset 16
 131 0084 23348100 		sd	s0,8(sp)
 132              		.cfi_offset 8, -8
 133 0088 13040101 		addi	s0,sp,16
 134              		.cfi_def_cfa 8, 0
  16:src/semaphore.cpp **** }
 135              		.loc 1 16 5
  17:src/semaphore.cpp **** 
 136              		.loc 1 17 1 is_stmt 0
 137 008c 13050000 		li	a0,0
 138              	.LVL7:
 139 0090 03348100 		ld	s0,8(sp)
 140              		.cfi_restore 8
 141              		.cfi_def_cfa 2, 16
 142 0094 13010101 		addi	sp,sp,16
 143              		.cfi_def_cfa_offset 0
 144 0098 67800000 		jr	ra
 145              		.cfi_endproc
 146              	.LFE6:
 148              		.weak	_ZTV9Semaphore
GAS LISTING /tmp/cczLJAUp.s 			page 4


 149              		.section	.data.rel.ro.local._ZTV9Semaphore,"awG",@progbits,_ZTV9Semaphore,comdat
 150              		.align	3
 153              	_ZTV9Semaphore:
 154 0000 00000000 		.dword	0
 154      00000000 
 155 0008 00000000 		.dword	0
 155      00000000 
 156 0010 00000000 		.dword	_ZN9SemaphoreD1Ev
 156      00000000 
 157 0018 00000000 		.dword	_ZN9SemaphoreD0Ev
 157      00000000 
 158              		.text
 159              	.Letext0:
 160              		.file 2 "src/../h/../lib/hw.h"
 161              		.file 3 "src/../h/syscall_c.h"
 162              		.file 4 "src/../h/syscall_cpp.hpp"
GAS LISTING /tmp/cczLJAUp.s 			page 5


DEFINED SYMBOLS
                            *ABS*:0000000000000000 semaphore.cpp
     /tmp/cczLJAUp.s:9      .text:0000000000000000 _ZN9SemaphoreD2Ev
     /tmp/cczLJAUp.s:13     .text:0000000000000000 .L0 
     /tmp/cczLJAUp.s:15     .text:0000000000000000 .L0 
     /tmp/cczLJAUp.s:16     .text:0000000000000004 .L0 
     /tmp/cczLJAUp.s:18     .text:0000000000000008 .L0 
     /tmp/cczLJAUp.s:20     .text:000000000000000c .L0 
     /tmp/cczLJAUp.s:22     .text:000000000000000c .L0 
     /tmp/cczLJAUp.s:23     .text:0000000000000010 .L0 
     /tmp/cczLJAUp.s:24     .text:0000000000000010 .L0 
     /tmp/cczLJAUp.s:26     .text:0000000000000014 .L0 
     /tmp/cczLJAUp.s:28     .text:0000000000000018 .L0 
     /tmp/cczLJAUp.s:9      .text:0000000000000000 _ZN9SemaphoreD1Ev
     /tmp/cczLJAUp.s:36     .text:0000000000000018 _ZN9SemaphoreD0Ev
     /tmp/cczLJAUp.s:39     .text:0000000000000018 .L0 
     /tmp/cczLJAUp.s:41     .text:0000000000000018 .L0 
     /tmp/cczLJAUp.s:42     .text:000000000000001c .L0 
     /tmp/cczLJAUp.s:45     .text:0000000000000024 .L0 
     /tmp/cczLJAUp.s:46     .text:0000000000000024 .L0 
     /tmp/cczLJAUp.s:48     .text:0000000000000028 .L0 
     /tmp/cczLJAUp.s:50     .text:0000000000000028 .L0 
     /tmp/cczLJAUp.s:53     .text:0000000000000034 .L0 
     /tmp/cczLJAUp.s:55     .text:0000000000000038 .L0 
     /tmp/cczLJAUp.s:56     .text:0000000000000038 .L0 
     /tmp/cczLJAUp.s:58     .text:000000000000003c .L0 
     /tmp/cczLJAUp.s:60     .text:0000000000000040 .L0 
     /tmp/cczLJAUp.s:66     .text:0000000000000040 _ZN9SemaphoreC2Ej
     /tmp/cczLJAUp.s:69     .text:0000000000000040 .L0 
     /tmp/cczLJAUp.s:71     .text:0000000000000040 .L0 
     /tmp/cczLJAUp.s:72     .text:0000000000000044 .L0 
     /tmp/cczLJAUp.s:74     .text:0000000000000048 .L0 
     /tmp/cczLJAUp.s:76     .text:000000000000004c .L0 
     /tmp/cczLJAUp.s:153    .data.rel.ro.local._ZTV9Semaphore:0000000000000000 _ZTV9Semaphore
     /tmp/cczLJAUp.s:79     .text:000000000000004c .L0 
     /tmp/cczLJAUp.s:83     .text:0000000000000058 .L0 
     /tmp/cczLJAUp.s:84     .text:000000000000005c .L0 
     /tmp/cczLJAUp.s:85     .text:000000000000005c .L0 
     /tmp/cczLJAUp.s:87     .text:0000000000000060 .L0 
     /tmp/cczLJAUp.s:89     .text:0000000000000064 .L0 
     /tmp/cczLJAUp.s:66     .text:0000000000000040 _ZN9SemaphoreC1Ej
     /tmp/cczLJAUp.s:97     .text:0000000000000064 _ZN9Semaphore4waitEv
     /tmp/cczLJAUp.s:100    .text:0000000000000064 .L0 
     /tmp/cczLJAUp.s:102    .text:0000000000000064 .L0 
     /tmp/cczLJAUp.s:103    .text:0000000000000068 .L0 
     /tmp/cczLJAUp.s:105    .text:000000000000006c .L0 
     /tmp/cczLJAUp.s:107    .text:0000000000000070 .L0 
     /tmp/cczLJAUp.s:109    .text:0000000000000070 .L0 
     /tmp/cczLJAUp.s:110    .text:0000000000000070 .L0 
     /tmp/cczLJAUp.s:113    .text:0000000000000078 .L0 
     /tmp/cczLJAUp.s:114    .text:0000000000000078 .L0 
     /tmp/cczLJAUp.s:116    .text:000000000000007c .L0 
     /tmp/cczLJAUp.s:118    .text:0000000000000080 .L0 
     /tmp/cczLJAUp.s:124    .text:0000000000000080 _ZN9Semaphore6signalEv
     /tmp/cczLJAUp.s:127    .text:0000000000000080 .L0 
     /tmp/cczLJAUp.s:129    .text:0000000000000080 .L0 
     /tmp/cczLJAUp.s:130    .text:0000000000000084 .L0 
GAS LISTING /tmp/cczLJAUp.s 			page 6


     /tmp/cczLJAUp.s:132    .text:0000000000000088 .L0 
     /tmp/cczLJAUp.s:134    .text:000000000000008c .L0 
     /tmp/cczLJAUp.s:136    .text:000000000000008c .L0 
     /tmp/cczLJAUp.s:137    .text:000000000000008c .L0 
     /tmp/cczLJAUp.s:140    .text:0000000000000094 .L0 
     /tmp/cczLJAUp.s:141    .text:0000000000000094 .L0 
     /tmp/cczLJAUp.s:143    .text:0000000000000098 .L0 
     /tmp/cczLJAUp.s:145    .text:000000000000009c .L0 
     /tmp/cczLJAUp.s:163    .text:000000000000009c .L0 
     /tmp/cczLJAUp.s:79     .text:000000000000004c .L0 
     /tmp/cczLJAUp.s:540    .debug_abbrev:0000000000000000 .Ldebug_abbrev0
     /tmp/cczLJAUp.s:1145   .debug_str:0000000000000102 .LASF28
     /tmp/cczLJAUp.s:1149   .debug_str:00000000000001dd .LASF29
     /tmp/cczLJAUp.s:1183   .debug_str:00000000000002ce .LASF30
     /tmp/cczLJAUp.s:5      .text:0000000000000000 .Ltext0
     /tmp/cczLJAUp.s:159    .text:000000000000009c .Letext0
     /tmp/cczLJAUp.s:1105   .debug_line:0000000000000000 .Ldebug_line0
     /tmp/cczLJAUp.s:1155   .debug_str:0000000000000206 .LASF0
     /tmp/cczLJAUp.s:1141   .debug_str:00000000000000e3 .LASF1
     /tmp/cczLJAUp.s:1135   .debug_str:00000000000000be .LASF2
     /tmp/cczLJAUp.s:1119   .debug_str:0000000000000040 .LASF4
     /tmp/cczLJAUp.s:1139   .debug_str:00000000000000d1 .LASF3
     /tmp/cczLJAUp.s:1109   .debug_str:0000000000000013 .LASF5
     /tmp/cczLJAUp.s:1107   .debug_str:0000000000000000 .LASF6
     /tmp/cczLJAUp.s:1129   .debug_str:000000000000008c .LASF7
     /tmp/cczLJAUp.s:1165   .debug_str:000000000000024a .LASF8
     /tmp/cczLJAUp.s:1117   .debug_str:0000000000000032 .LASF9
     /tmp/cczLJAUp.s:1189   .debug_str:000000000000030d .LASF10
     /tmp/cczLJAUp.s:1133   .debug_str:00000000000000af .LASF11
     /tmp/cczLJAUp.s:1179   .debug_str:00000000000002b7 .LASF12
     /tmp/cczLJAUp.s:1169   .debug_str:0000000000000270 .LASF13
     /tmp/cczLJAUp.s:1143   .debug_str:00000000000000f6 .LASF14
     /tmp/cczLJAUp.s:1125   .debug_str:0000000000000061 .LASF15
     /tmp/cczLJAUp.s:1167   .debug_str:000000000000025a .LASF16
     /tmp/cczLJAUp.s:1111   .debug_str:000000000000001a .LASF17
     /tmp/cczLJAUp.s:1161   .debug_str:0000000000000233 .LASF18
     /tmp/cczLJAUp.s:1185   .debug_str:00000000000002f1 .LASF31
     /tmp/cczLJAUp.s:1121   .debug_str:0000000000000047 .LASF32
     /tmp/cczLJAUp.s:1131   .debug_str:000000000000009f .LASF33
     /tmp/cczLJAUp.s:1163   .debug_str:0000000000000238 .LASF34
     /tmp/cczLJAUp.s:1113   .debug_str:0000000000000020 .LASF35
     /tmp/cczLJAUp.s:1187   .debug_str:00000000000002fb .LASF36
     /tmp/cczLJAUp.s:1151   .debug_str:00000000000001ef .LASF19
     /tmp/cczLJAUp.s:1127   .debug_str:0000000000000077 .LASF21
     /tmp/cczLJAUp.s:1115   .debug_str:000000000000002b .LASF20
     /tmp/cczLJAUp.s:1147   .debug_str:00000000000001c6 .LASF22
     /tmp/cczLJAUp.s:1171   .debug_str:0000000000000280 .LASF37
     /tmp/cczLJAUp.s:1157   .debug_str:0000000000000213 .LASF38
     /tmp/cczLJAUp.s:1137   .debug_str:00000000000000cc .LASF23
     /tmp/cczLJAUp.s:1175   .debug_str:000000000000029b .LASF24
     /tmp/cczLJAUp.s:1153   .debug_str:00000000000001f4 .LASF25
     /tmp/cczLJAUp.s:37     .text:0000000000000018 .LFB10
     /tmp/cczLJAUp.s:61     .text:0000000000000040 .LFE10
     /tmp/cczLJAUp.s:1050   .debug_loc:0000000000000000 .LLST0
     /tmp/cczLJAUp.s:51     .text:0000000000000030 .LVL2
     /tmp/cczLJAUp.s:1177   .debug_str:00000000000002a5 .LASF26
     /tmp/cczLJAUp.s:10     .text:0000000000000000 .LFB8
GAS LISTING /tmp/cczLJAUp.s 			page 7


     /tmp/cczLJAUp.s:29     .text:0000000000000018 .LFE8
     /tmp/cczLJAUp.s:125    .text:0000000000000080 .LFB6
     /tmp/cczLJAUp.s:146    .text:000000000000009c .LFE6
     /tmp/cczLJAUp.s:1064   .debug_loc:0000000000000039 .LLST2
     /tmp/cczLJAUp.s:98     .text:0000000000000064 .LFB5
     /tmp/cczLJAUp.s:119    .text:0000000000000080 .LFE5
     /tmp/cczLJAUp.s:1078   .debug_loc:0000000000000072 .LLST1
     /tmp/cczLJAUp.s:1123   .debug_str:000000000000005c .LASF39
     /tmp/cczLJAUp.s:1173   .debug_str:0000000000000289 .LASF27
     /tmp/cczLJAUp.s:67     .text:0000000000000040 .LFB3
     /tmp/cczLJAUp.s:90     .text:0000000000000064 .LFE3
     /tmp/cczLJAUp.s:1181   .debug_str:00000000000002c7 .LASF40
     /tmp/cczLJAUp.s:1159   .debug_str:0000000000000223 .LASF41
     /tmp/cczLJAUp.s:40     .text:0000000000000018 .LVL1
     /tmp/cczLJAUp.s:128    .text:0000000000000080 .LVL6
     /tmp/cczLJAUp.s:138    .text:0000000000000090 .LVL7
     /tmp/cczLJAUp.s:101    .text:0000000000000064 .LVL4
     /tmp/cczLJAUp.s:111    .text:0000000000000074 .LVL5
     /tmp/cczLJAUp.s:164    .debug_info:0000000000000000 .Ldebug_info0

UNDEFINED SYMBOLS
_ZdlPv
