GAS LISTING /tmp/cc0s2oZ4.s 			page 1


   1              		.file	"syscall_cpp.cpp"
   2              		.option pic
   3              		.option norelax
   4              		.text
   5              	.Ltext0:
   6              		.section	.text._ZN6Thread3runEv,"axG",@progbits,_ZN6Thread3runEv,comdat
   7              		.align	2
   8              		.weak	_ZN6Thread3runEv
  10              	_ZN6Thread3runEv:
  11              	.LFB0:
  12              		.file 1 "src/../h/syscall_cpp.hpp"
   1:src/../h/syscall_cpp.hpp **** //
   2:src/../h/syscall_cpp.hpp **** // Created by os on 8/10/22.
   3:src/../h/syscall_cpp.hpp **** //
   4:src/../h/syscall_cpp.hpp **** 
   5:src/../h/syscall_cpp.hpp **** #ifndef OSMIUM_SYSCALL_CPP_HPP
   6:src/../h/syscall_cpp.hpp **** #define OSMIUM_SYSCALL_CPP_HPP
   7:src/../h/syscall_cpp.hpp **** 
   8:src/../h/syscall_cpp.hpp **** #include "../h/syscall_c.h"
   9:src/../h/syscall_cpp.hpp **** 
  10:src/../h/syscall_cpp.hpp **** void *operator new(size_t size);
  11:src/../h/syscall_cpp.hpp **** 
  12:src/../h/syscall_cpp.hpp **** void operator delete(void *ptr);
  13:src/../h/syscall_cpp.hpp **** 
  14:src/../h/syscall_cpp.hpp **** //class Thread;
  15:src/../h/syscall_cpp.hpp **** 
  16:src/../h/syscall_cpp.hpp **** //void threadRunWrapper(Thread* thread);
  17:src/../h/syscall_cpp.hpp **** 
  18:src/../h/syscall_cpp.hpp **** class Thread {
  19:src/../h/syscall_cpp.hpp **** public:
  20:src/../h/syscall_cpp.hpp ****     Thread(void (*body)(void *), void *arg);
  21:src/../h/syscall_cpp.hpp **** 
  22:src/../h/syscall_cpp.hpp ****     virtual ~Thread();
  23:src/../h/syscall_cpp.hpp **** 
  24:src/../h/syscall_cpp.hpp ****     int start();
  25:src/../h/syscall_cpp.hpp **** 
  26:src/../h/syscall_cpp.hpp ****     static void dispatch();
  27:src/../h/syscall_cpp.hpp **** 
  28:src/../h/syscall_cpp.hpp ****     static int sleep(time_t);
  29:src/../h/syscall_cpp.hpp **** 
  30:src/../h/syscall_cpp.hpp **** protected:
  31:src/../h/syscall_cpp.hpp ****     Thread();
  32:src/../h/syscall_cpp.hpp **** 
  33:src/../h/syscall_cpp.hpp ****     virtual void run() {}
  13              		.loc 1 33 18
  14              		.cfi_startproc
  15              	.LVL0:
  16 0000 130101FF 		addi	sp,sp,-16
  17              		.cfi_def_cfa_offset 16
  18 0004 23348100 		sd	s0,8(sp)
  19              		.cfi_offset 8, -8
  20 0008 13040101 		addi	s0,sp,16
  21              		.cfi_def_cfa 8, 0
  22              		.loc 1 33 25 is_stmt 0
  23 000c 03348100 		ld	s0,8(sp)
  24              		.cfi_restore 8
  25              		.cfi_def_cfa 2, 16
GAS LISTING /tmp/cc0s2oZ4.s 			page 2


  26 0010 13010101 		addi	sp,sp,16
  27              		.cfi_def_cfa_offset 0
  28 0014 67800000 		jr	ra
  29              		.cfi_endproc
  30              	.LFE0:
  32              		.section	.text._ZN14PeriodicThread18periodicActivationEv,"axG",@progbits,_ZN14PeriodicThread18peri
  33              		.align	2
  34              		.weak	_ZN14PeriodicThread18periodicActivationEv
  36              	_ZN14PeriodicThread18periodicActivationEv:
  37              	.LFB1:
  34:src/../h/syscall_cpp.hpp **** 
  35:src/../h/syscall_cpp.hpp **** private:
  36:src/../h/syscall_cpp.hpp ****     friend void threadRunWrapper(void* thread);
  37:src/../h/syscall_cpp.hpp **** 
  38:src/../h/syscall_cpp.hpp ****     using Body = void (Thread::*) (void*);
  39:src/../h/syscall_cpp.hpp ****     thread_t myHandle;
  40:src/../h/syscall_cpp.hpp ****     Body body;
  41:src/../h/syscall_cpp.hpp ****     void* args;
  42:src/../h/syscall_cpp.hpp **** };
  43:src/../h/syscall_cpp.hpp **** 
  44:src/../h/syscall_cpp.hpp **** 
  45:src/../h/syscall_cpp.hpp **** class Semaphore {
  46:src/../h/syscall_cpp.hpp **** public:
  47:src/../h/syscall_cpp.hpp ****     Semaphore(unsigned init = 1);
  48:src/../h/syscall_cpp.hpp **** 
  49:src/../h/syscall_cpp.hpp ****     virtual ~Semaphore();
  50:src/../h/syscall_cpp.hpp **** 
  51:src/../h/syscall_cpp.hpp ****     int wait();
  52:src/../h/syscall_cpp.hpp **** 
  53:src/../h/syscall_cpp.hpp ****     int signal();
  54:src/../h/syscall_cpp.hpp **** 
  55:src/../h/syscall_cpp.hpp **** private:
  56:src/../h/syscall_cpp.hpp ****     sem_t myHandle;
  57:src/../h/syscall_cpp.hpp **** };
  58:src/../h/syscall_cpp.hpp **** 
  59:src/../h/syscall_cpp.hpp **** 
  60:src/../h/syscall_cpp.hpp **** class PeriodicThread : public Thread {
  61:src/../h/syscall_cpp.hpp **** private:
  62:src/../h/syscall_cpp.hpp ****     time_t period;
  63:src/../h/syscall_cpp.hpp **** protected:
  64:src/../h/syscall_cpp.hpp ****     PeriodicThread(time_t period);
  65:src/../h/syscall_cpp.hpp **** 
  66:src/../h/syscall_cpp.hpp ****     virtual void periodicActivation() {}
  38              		.loc 1 66 18 is_stmt 1
  39              		.cfi_startproc
  40              	.LVL1:
  41 0000 130101FF 		addi	sp,sp,-16
  42              		.cfi_def_cfa_offset 16
  43 0004 23348100 		sd	s0,8(sp)
  44              		.cfi_offset 8, -8
  45 0008 13040101 		addi	s0,sp,16
  46              		.cfi_def_cfa 8, 0
  47              		.loc 1 66 40 is_stmt 0
  48 000c 03348100 		ld	s0,8(sp)
  49              		.cfi_restore 8
  50              		.cfi_def_cfa 2, 16
  51 0010 13010101 		addi	sp,sp,16
GAS LISTING /tmp/cc0s2oZ4.s 			page 3


  52              		.cfi_def_cfa_offset 0
  53 0014 67800000 		jr	ra
  54              		.cfi_endproc
  55              	.LFE1:
  57              		.text
  58              		.align	2
  59              		.globl	_Z16threadRunWrapperPv
  61              	_Z16threadRunWrapperPv:
  62              	.LFB54:
  63              		.file 2 "src/syscall_cpp.cpp"
   1:src/syscall_cpp.cpp **** //
   2:src/syscall_cpp.cpp **** // Created by os on 9/12/22.
   3:src/syscall_cpp.cpp **** //
   4:src/syscall_cpp.cpp **** 
   5:src/syscall_cpp.cpp **** #include "../h/syscall_cpp.hpp"
   6:src/syscall_cpp.cpp **** #include "../h/scheduler.hpp"
   7:src/syscall_cpp.cpp **** 
   8:src/syscall_cpp.cpp **** void threadRunWrapper(void* thread) {
  64              		.loc 2 8 37 is_stmt 1
  65              		.cfi_startproc
  66              	.LVL2:
  67 0000 130101FF 		addi	sp,sp,-16
  68              		.cfi_def_cfa_offset 16
  69 0004 23341100 		sd	ra,8(sp)
  70 0008 23308100 		sd	s0,0(sp)
  71              		.cfi_offset 1, -8
  72              		.cfi_offset 8, -16
  73 000c 13040101 		addi	s0,sp,16
  74              		.cfi_def_cfa 8, 0
   9:src/syscall_cpp.cpp ****     Thread* t = (Thread*) thread;
  75              		.loc 2 9 5
  76              	.LVL3:
  10:src/syscall_cpp.cpp ****     t->run();
  77              		.loc 2 10 5
  78              		.loc 2 10 12 is_stmt 0
  79 0010 83370500 		ld	a5,0(a0)
  80 0014 83B70701 		ld	a5,16(a5)
  81              		.loc 2 10 11
  82 0018 E7800700 		jalr	a5
  83              	.LVL4:
  11:src/syscall_cpp.cpp **** }
  84              		.loc 2 11 1
  85 001c 83308100 		ld	ra,8(sp)
  86              		.cfi_restore 1
  87 0020 03340100 		ld	s0,0(sp)
  88              		.cfi_restore 8
  89              		.cfi_def_cfa 2, 16
  90 0024 13010101 		addi	sp,sp,16
  91              		.cfi_def_cfa_offset 0
  92 0028 67800000 		jr	ra
  93              		.cfi_endproc
  94              	.LFE54:
  96              		.align	2
  97              		.globl	_ZN6ThreadD2Ev
  99              	_ZN6ThreadD2Ev:
 100              	.LFB59:
  12:src/syscall_cpp.cpp **** 
GAS LISTING /tmp/cc0s2oZ4.s 			page 4


  13:src/syscall_cpp.cpp **** // THREAD
  14:src/syscall_cpp.cpp **** 
  15:src/syscall_cpp.cpp **** Thread::Thread(void (*body)(void *), void *arg) {
  16:src/syscall_cpp.cpp ****     thread_create_deactivated(&myHandle, body, arg);
  17:src/syscall_cpp.cpp **** }
  18:src/syscall_cpp.cpp **** 
  19:src/syscall_cpp.cpp **** Thread::~Thread() {}
 101              		.loc 2 19 1 is_stmt 1
 102              		.cfi_startproc
 103              	.LVL5:
 104 002c 130101FF 		addi	sp,sp,-16
 105              		.cfi_def_cfa_offset 16
 106 0030 23348100 		sd	s0,8(sp)
 107              		.cfi_offset 8, -8
 108 0034 13040101 		addi	s0,sp,16
 109              		.cfi_def_cfa 8, 0
 110              		.loc 2 19 20 is_stmt 0
 111 0038 03348100 		ld	s0,8(sp)
 112              		.cfi_restore 8
 113              		.cfi_def_cfa 2, 16
 114 003c 13010101 		addi	sp,sp,16
 115              		.cfi_def_cfa_offset 0
 116 0040 67800000 		jr	ra
 117              		.cfi_endproc
 118              	.LFE59:
 120              		.globl	_ZN6ThreadD1Ev
 121              		.set	_ZN6ThreadD1Ev,_ZN6ThreadD2Ev
 122              		.section	.text._ZN14PeriodicThreadD2Ev,"axG",@progbits,_ZN14PeriodicThreadD5Ev,comdat
 123              		.align	2
 124              		.weak	_ZN14PeriodicThreadD2Ev
 126              	_ZN14PeriodicThreadD2Ev:
 127              	.LFB84:
  60:src/../h/syscall_cpp.hpp **** private:
 128              		.loc 1 60 7 is_stmt 1
 129              		.cfi_startproc
 130              	.LVL6:
 131 0000 130101FF 		addi	sp,sp,-16
 132              		.cfi_def_cfa_offset 16
 133 0004 23348100 		sd	s0,8(sp)
 134              		.cfi_offset 8, -8
 135 0008 13040101 		addi	s0,sp,16
 136              		.cfi_def_cfa 8, 0
 137              	.LBB5:
  60:src/../h/syscall_cpp.hpp **** private:
 138              		.loc 1 60 7 is_stmt 0
 139 000c 97070000 		lla	a5,_ZTV14PeriodicThread+16
 139      93870700 
 140 0014 2330F500 		sd	a5,0(a0)
 141              	.LBE5:
 142 0018 03348100 		ld	s0,8(sp)
 143              		.cfi_restore 8
 144              		.cfi_def_cfa 2, 16
 145 001c 13010101 		addi	sp,sp,16
 146              		.cfi_def_cfa_offset 0
 147 0020 67800000 		jr	ra
 148              		.cfi_endproc
 149              	.LFE84:
GAS LISTING /tmp/cc0s2oZ4.s 			page 5


 151              		.weak	_ZN14PeriodicThreadD1Ev
 152              		.set	_ZN14PeriodicThreadD1Ev,_ZN14PeriodicThreadD2Ev
 153              		.text
 154              		.align	2
 155              		.globl	_ZN6ThreadD0Ev
 157              	_ZN6ThreadD0Ev:
 158              	.LFB61:
 159              		.loc 2 19 1 is_stmt 1
 160              		.cfi_startproc
 161              	.LVL7:
 162 0044 130101FF 		addi	sp,sp,-16
 163              		.cfi_def_cfa_offset 16
 164 0048 23341100 		sd	ra,8(sp)
 165 004c 23308100 		sd	s0,0(sp)
 166              		.cfi_offset 1, -8
 167              		.cfi_offset 8, -16
 168 0050 13040101 		addi	s0,sp,16
 169              		.cfi_def_cfa 8, 0
 170              		.loc 2 19 20 is_stmt 0
 171 0054 97000000 		call	_ZdlPv@plt
 171      E7800000 
 172              	.LVL8:
 173 005c 83308100 		ld	ra,8(sp)
 174              		.cfi_restore 1
 175 0060 03340100 		ld	s0,0(sp)
 176              		.cfi_restore 8
 177              		.cfi_def_cfa 2, 16
 178 0064 13010101 		addi	sp,sp,16
 179              		.cfi_def_cfa_offset 0
 180 0068 67800000 		jr	ra
 181              		.cfi_endproc
 182              	.LFE61:
 184              		.section	.text._ZN14PeriodicThreadD0Ev,"axG",@progbits,_ZN14PeriodicThreadD5Ev,comdat
 185              		.align	2
 186              		.weak	_ZN14PeriodicThreadD0Ev
 188              	_ZN14PeriodicThreadD0Ev:
 189              	.LFB86:
  60:src/../h/syscall_cpp.hpp **** private:
 190              		.loc 1 60 7 is_stmt 1
 191              		.cfi_startproc
 192              	.LVL9:
 193 0000 130101FF 		addi	sp,sp,-16
 194              		.cfi_def_cfa_offset 16
 195 0004 23341100 		sd	ra,8(sp)
 196 0008 23308100 		sd	s0,0(sp)
 197              		.cfi_offset 1, -8
 198              		.cfi_offset 8, -16
 199 000c 13040101 		addi	s0,sp,16
 200              		.cfi_def_cfa 8, 0
 201              	.LVL10:
 202              	.LBB6:
 203              	.LBB7:
  60:src/../h/syscall_cpp.hpp **** private:
 204              		.loc 1 60 7 is_stmt 0
 205 0010 97070000 		lla	a5,_ZTV14PeriodicThread+16
 205      93870700 
 206 0018 2330F500 		sd	a5,0(a0)
GAS LISTING /tmp/cc0s2oZ4.s 			page 6


 207              	.LVL11:
 208              	.LBE7:
 209              	.LBE6:
 210 001c 97000000 		call	_ZdlPv@plt
 210      E7800000 
 211              	.LVL12:
 212 0024 83308100 		ld	ra,8(sp)
 213              		.cfi_restore 1
 214 0028 03340100 		ld	s0,0(sp)
 215              		.cfi_restore 8
 216              		.cfi_def_cfa 2, 16
 217 002c 13010101 		addi	sp,sp,16
 218              		.cfi_def_cfa_offset 0
 219 0030 67800000 		jr	ra
 220              		.cfi_endproc
 221              	.LFE86:
 223              		.text
 224              		.align	2
 225              		.globl	_ZN9SemaphoreD2Ev
 227              	_ZN9SemaphoreD2Ev:
 228              	.LFB74:
  20:src/syscall_cpp.cpp **** 
  21:src/syscall_cpp.cpp **** int Thread::start() {
  22:src/syscall_cpp.cpp ****     thread_create(&myHandle,&threadRunWrapper, this);
  23:src/syscall_cpp.cpp ****     return 0;
  24:src/syscall_cpp.cpp **** }
  25:src/syscall_cpp.cpp **** 
  26:src/syscall_cpp.cpp **** void Thread::dispatch() {
  27:src/syscall_cpp.cpp ****     thread_dispatch();
  28:src/syscall_cpp.cpp **** }
  29:src/syscall_cpp.cpp **** 
  30:src/syscall_cpp.cpp **** int Thread::sleep(time_t time) {
  31:src/syscall_cpp.cpp ****     return time_sleep(time);
  32:src/syscall_cpp.cpp **** }
  33:src/syscall_cpp.cpp **** 
  34:src/syscall_cpp.cpp **** Thread::Thread() {}
  35:src/syscall_cpp.cpp **** 
  36:src/syscall_cpp.cpp **** 
  37:src/syscall_cpp.cpp **** 
  38:src/syscall_cpp.cpp **** 
  39:src/syscall_cpp.cpp **** // SEMAPHORE
  40:src/syscall_cpp.cpp **** 
  41:src/syscall_cpp.cpp **** Semaphore::Semaphore(unsigned int init) {
  42:src/syscall_cpp.cpp ****     sem_open(&myHandle, init);
  43:src/syscall_cpp.cpp **** }
  44:src/syscall_cpp.cpp **** 
  45:src/syscall_cpp.cpp **** int Semaphore::wait() {
  46:src/syscall_cpp.cpp **** 
  47:src/syscall_cpp.cpp ****     return sem_wait(myHandle);
  48:src/syscall_cpp.cpp **** }
  49:src/syscall_cpp.cpp **** 
  50:src/syscall_cpp.cpp **** int Semaphore::signal() {
  51:src/syscall_cpp.cpp ****     return sem_signal(myHandle);
  52:src/syscall_cpp.cpp **** }
  53:src/syscall_cpp.cpp **** 
  54:src/syscall_cpp.cpp **** Semaphore::~Semaphore() {
 229              		.loc 2 54 1 is_stmt 1
GAS LISTING /tmp/cc0s2oZ4.s 			page 7


 230              		.cfi_startproc
 231              		.cfi_personality 0x9b,DW.ref.__gxx_personality_v0
 232              		.cfi_lsda 0x1b,.LLSDA74
 233              	.LVL13:
 234 006c 130101FF 		addi	sp,sp,-16
 235              		.cfi_def_cfa_offset 16
 236 0070 23341100 		sd	ra,8(sp)
 237 0074 23308100 		sd	s0,0(sp)
 238              		.cfi_offset 1, -8
 239              		.cfi_offset 8, -16
 240 0078 13040101 		addi	s0,sp,16
 241              		.cfi_def_cfa 8, 0
 242              	.LBB8:
 243              		.loc 2 54 23 is_stmt 0
 244 007c 97070000 		lla	a5,_ZTV9Semaphore+16
 244      93870700 
 245 0084 2330F500 		sd	a5,0(a0)
  55:src/syscall_cpp.cpp ****     sem_close(myHandle);
 246              		.loc 2 55 5 is_stmt 1
 247              		.loc 2 55 14 is_stmt 0
 248 0088 03358500 		ld	a0,8(a0)
 249              	.LVL14:
 250 008c 97000000 		call	sem_close@plt
 250      E7800000 
 251              	.LVL15:
 252              	.LBE8:
  56:src/syscall_cpp.cpp **** }
 253              		.loc 2 56 1
 254 0094 83308100 		ld	ra,8(sp)
 255              		.cfi_restore 1
 256 0098 03340100 		ld	s0,0(sp)
 257              		.cfi_restore 8
 258              		.cfi_def_cfa 2, 16
 259 009c 13010101 		addi	sp,sp,16
 260              		.cfi_def_cfa_offset 0
 261 00a0 67800000 		jr	ra
 262              		.cfi_endproc
 263              	.LFE74:
 264              		.globl	__gxx_personality_v0
 265              		.section	.gcc_except_table,"a",@progbits
 266              	.LLSDA74:
 267 0000 FF       		.byte	0xff
 268 0001 FF       		.byte	0xff
 269 0002 03       		.byte	0x3
 270 0003 00       		.byte	0
 271              		.text
 273              		.globl	_ZN9SemaphoreD1Ev
 274              		.set	_ZN9SemaphoreD1Ev,_ZN9SemaphoreD2Ev
 275              		.align	2
 276              		.globl	_ZN9SemaphoreD0Ev
 278              	_ZN9SemaphoreD0Ev:
 279              	.LFB76:
  54:src/syscall_cpp.cpp ****     sem_close(myHandle);
 280              		.loc 2 54 1 is_stmt 1
 281              		.cfi_startproc
 282              	.LVL16:
 283 00a4 130101FE 		addi	sp,sp,-32
GAS LISTING /tmp/cc0s2oZ4.s 			page 8


 284              		.cfi_def_cfa_offset 32
 285 00a8 233C1100 		sd	ra,24(sp)
 286 00ac 23388100 		sd	s0,16(sp)
 287 00b0 23349100 		sd	s1,8(sp)
 288              		.cfi_offset 1, -8
 289              		.cfi_offset 8, -16
 290              		.cfi_offset 9, -24
 291 00b4 13040102 		addi	s0,sp,32
 292              		.cfi_def_cfa 8, 0
 293 00b8 93040500 		mv	s1,a0
 294              		.loc 2 56 1 is_stmt 0
 295 00bc 97000000 		call	_ZN9SemaphoreD1Ev
 295      E7800000 
 296              	.LVL17:
 297 00c4 13850400 		mv	a0,s1
 298 00c8 97000000 		call	_ZdlPv@plt
 298      E7800000 
 299              	.LVL18:
 300 00d0 83308101 		ld	ra,24(sp)
 301              		.cfi_restore 1
 302 00d4 03340101 		ld	s0,16(sp)
 303              		.cfi_restore 8
 304              		.cfi_def_cfa 2, 32
 305 00d8 83348100 		ld	s1,8(sp)
 306              		.cfi_restore 9
 307              	.LVL19:
 308 00dc 13010102 		addi	sp,sp,32
 309              		.cfi_def_cfa_offset 0
 310 00e0 67800000 		jr	ra
 311              		.cfi_endproc
 312              	.LFE76:
 314              		.align	2
 315              		.globl	_ZN6ThreadC2EPFvPvES0_
 317              	_ZN6ThreadC2EPFvPvES0_:
 318              	.LFB56:
  15:src/syscall_cpp.cpp ****     thread_create_deactivated(&myHandle, body, arg);
 319              		.loc 2 15 1 is_stmt 1
 320              		.cfi_startproc
 321              	.LVL20:
 322 00e4 130101FF 		addi	sp,sp,-16
 323              		.cfi_def_cfa_offset 16
 324 00e8 23341100 		sd	ra,8(sp)
 325 00ec 23308100 		sd	s0,0(sp)
 326              		.cfi_offset 1, -8
 327              		.cfi_offset 8, -16
 328 00f0 13040101 		addi	s0,sp,16
 329              		.cfi_def_cfa 8, 0
 330              	.LBB9:
  15:src/syscall_cpp.cpp ****     thread_create_deactivated(&myHandle, body, arg);
 331              		.loc 2 15 47 is_stmt 0
 332 00f4 97070000 		lla	a5,_ZTV6Thread+16
 332      93870700 
 333 00fc 2330F500 		sd	a5,0(a0)
  16:src/syscall_cpp.cpp **** }
 334              		.loc 2 16 5 is_stmt 1
  16:src/syscall_cpp.cpp **** }
 335              		.loc 2 16 30 is_stmt 0
GAS LISTING /tmp/cc0s2oZ4.s 			page 9


 336 0100 13058500 		addi	a0,a0,8
 337              	.LVL21:
 338 0104 97000000 		call	thread_create_deactivated@plt
 338      E7800000 
 339              	.LVL22:
 340              	.LBE9:
  17:src/syscall_cpp.cpp **** 
 341              		.loc 2 17 1
 342 010c 83308100 		ld	ra,8(sp)
 343              		.cfi_restore 1
 344 0110 03340100 		ld	s0,0(sp)
 345              		.cfi_restore 8
 346              		.cfi_def_cfa 2, 16
 347 0114 13010101 		addi	sp,sp,16
 348              		.cfi_def_cfa_offset 0
 349 0118 67800000 		jr	ra
 350              		.cfi_endproc
 351              	.LFE56:
 353              		.globl	_ZN6ThreadC1EPFvPvES0_
 354              		.set	_ZN6ThreadC1EPFvPvES0_,_ZN6ThreadC2EPFvPvES0_
 355              		.align	2
 356              		.globl	_ZN6Thread5startEv
 358              	_ZN6Thread5startEv:
 359              	.LFB62:
  21:src/syscall_cpp.cpp ****     thread_create(&myHandle,&threadRunWrapper, this);
 360              		.loc 2 21 21 is_stmt 1
 361              		.cfi_startproc
 362              	.LVL23:
 363 011c 130101FF 		addi	sp,sp,-16
 364              		.cfi_def_cfa_offset 16
 365 0120 23341100 		sd	ra,8(sp)
 366 0124 23308100 		sd	s0,0(sp)
 367              		.cfi_offset 1, -8
 368              		.cfi_offset 8, -16
 369 0128 13040101 		addi	s0,sp,16
 370              		.cfi_def_cfa 8, 0
  22:src/syscall_cpp.cpp ****     return 0;
 371              		.loc 2 22 5
  22:src/syscall_cpp.cpp ****     return 0;
 372              		.loc 2 22 18 is_stmt 0
 373 012c 13060500 		mv	a2,a0
 374 0130 97050000 		lla	a1,_Z16threadRunWrapperPv
 374      93850500 
 375 0138 13058500 		addi	a0,a0,8
 376              	.LVL24:
 377 013c 97000000 		call	thread_create@plt
 377      E7800000 
 378              	.LVL25:
  23:src/syscall_cpp.cpp **** }
 379              		.loc 2 23 5 is_stmt 1
  24:src/syscall_cpp.cpp **** 
 380              		.loc 2 24 1 is_stmt 0
 381 0144 13050000 		li	a0,0
 382 0148 83308100 		ld	ra,8(sp)
 383              		.cfi_restore 1
 384 014c 03340100 		ld	s0,0(sp)
 385              		.cfi_restore 8
GAS LISTING /tmp/cc0s2oZ4.s 			page 10


 386              		.cfi_def_cfa 2, 16
 387 0150 13010101 		addi	sp,sp,16
 388              		.cfi_def_cfa_offset 0
 389 0154 67800000 		jr	ra
 390              		.cfi_endproc
 391              	.LFE62:
 393              		.align	2
 394              		.globl	_ZN6Thread8dispatchEv
 396              	_ZN6Thread8dispatchEv:
 397              	.LFB63:
  26:src/syscall_cpp.cpp ****     thread_dispatch();
 398              		.loc 2 26 25 is_stmt 1
 399              		.cfi_startproc
 400 0158 130101FF 		addi	sp,sp,-16
 401              		.cfi_def_cfa_offset 16
 402 015c 23341100 		sd	ra,8(sp)
 403 0160 23308100 		sd	s0,0(sp)
 404              		.cfi_offset 1, -8
 405              		.cfi_offset 8, -16
 406 0164 13040101 		addi	s0,sp,16
 407              		.cfi_def_cfa 8, 0
  27:src/syscall_cpp.cpp **** }
 408              		.loc 2 27 5
  27:src/syscall_cpp.cpp **** }
 409              		.loc 2 27 20 is_stmt 0
 410 0168 97000000 		call	thread_dispatch@plt
 410      E7800000 
 411              	.LVL26:
  28:src/syscall_cpp.cpp **** 
 412              		.loc 2 28 1
 413 0170 83308100 		ld	ra,8(sp)
 414              		.cfi_restore 1
 415 0174 03340100 		ld	s0,0(sp)
 416              		.cfi_restore 8
 417              		.cfi_def_cfa 2, 16
 418 0178 13010101 		addi	sp,sp,16
 419              		.cfi_def_cfa_offset 0
 420 017c 67800000 		jr	ra
 421              		.cfi_endproc
 422              	.LFE63:
 424              		.align	2
 425              		.globl	_ZN6Thread5sleepEm
 427              	_ZN6Thread5sleepEm:
 428              	.LFB64:
  30:src/syscall_cpp.cpp ****     return time_sleep(time);
 429              		.loc 2 30 32 is_stmt 1
 430              		.cfi_startproc
 431              	.LVL27:
 432 0180 130101FF 		addi	sp,sp,-16
 433              		.cfi_def_cfa_offset 16
 434 0184 23341100 		sd	ra,8(sp)
 435 0188 23308100 		sd	s0,0(sp)
 436              		.cfi_offset 1, -8
 437              		.cfi_offset 8, -16
 438 018c 13040101 		addi	s0,sp,16
 439              		.cfi_def_cfa 8, 0
  31:src/syscall_cpp.cpp **** }
GAS LISTING /tmp/cc0s2oZ4.s 			page 11


 440              		.loc 2 31 5
  31:src/syscall_cpp.cpp **** }
 441              		.loc 2 31 22 is_stmt 0
 442 0190 97000000 		call	time_sleep@plt
 442      E7800000 
 443              	.LVL28:
  32:src/syscall_cpp.cpp **** 
 444              		.loc 2 32 1
 445 0198 83308100 		ld	ra,8(sp)
 446              		.cfi_restore 1
 447 019c 03340100 		ld	s0,0(sp)
 448              		.cfi_restore 8
 449              		.cfi_def_cfa 2, 16
 450 01a0 13010101 		addi	sp,sp,16
 451              		.cfi_def_cfa_offset 0
 452 01a4 67800000 		jr	ra
 453              		.cfi_endproc
 454              	.LFE64:
 456              		.align	2
 457              		.globl	_ZN6ThreadC2Ev
 459              	_ZN6ThreadC2Ev:
 460              	.LFB66:
  34:src/syscall_cpp.cpp **** 
 461              		.loc 2 34 1 is_stmt 1
 462              		.cfi_startproc
 463              	.LVL29:
 464 01a8 130101FF 		addi	sp,sp,-16
 465              		.cfi_def_cfa_offset 16
 466 01ac 23348100 		sd	s0,8(sp)
 467              		.cfi_offset 8, -8
 468 01b0 13040101 		addi	s0,sp,16
 469              		.cfi_def_cfa 8, 0
 470              	.LBB10:
  34:src/syscall_cpp.cpp **** 
 471              		.loc 2 34 16 is_stmt 0
 472 01b4 97070000 		lla	a5,_ZTV6Thread+16
 472      93870700 
 473 01bc 2330F500 		sd	a5,0(a0)
 474              	.LBE10:
  34:src/syscall_cpp.cpp **** 
 475              		.loc 2 34 19
 476 01c0 03348100 		ld	s0,8(sp)
 477              		.cfi_restore 8
 478              		.cfi_def_cfa 2, 16
 479 01c4 13010101 		addi	sp,sp,16
 480              		.cfi_def_cfa_offset 0
 481 01c8 67800000 		jr	ra
 482              		.cfi_endproc
 483              	.LFE66:
 485              		.globl	_ZN6ThreadC1Ev
 486              		.set	_ZN6ThreadC1Ev,_ZN6ThreadC2Ev
 487              		.align	2
 488              		.globl	_ZN9SemaphoreC2Ej
 490              	_ZN9SemaphoreC2Ej:
 491              	.LFB69:
  41:src/syscall_cpp.cpp ****     sem_open(&myHandle, init);
 492              		.loc 2 41 1 is_stmt 1
GAS LISTING /tmp/cc0s2oZ4.s 			page 12


 493              		.cfi_startproc
 494              	.LVL30:
 495 01cc 130101FF 		addi	sp,sp,-16
 496              		.cfi_def_cfa_offset 16
 497 01d0 23341100 		sd	ra,8(sp)
 498 01d4 23308100 		sd	s0,0(sp)
 499              		.cfi_offset 1, -8
 500              		.cfi_offset 8, -16
 501 01d8 13040101 		addi	s0,sp,16
 502              		.cfi_def_cfa 8, 0
 503              	.LBB11:
  41:src/syscall_cpp.cpp ****     sem_open(&myHandle, init);
 504              		.loc 2 41 39 is_stmt 0
 505 01dc 97070000 		lla	a5,_ZTV9Semaphore+16
 505      93870700 
 506 01e4 2330F500 		sd	a5,0(a0)
  42:src/syscall_cpp.cpp **** }
 507              		.loc 2 42 5 is_stmt 1
  42:src/syscall_cpp.cpp **** }
 508              		.loc 2 42 13 is_stmt 0
 509 01e8 13058500 		addi	a0,a0,8
 510              	.LVL31:
 511 01ec 97000000 		call	sem_open@plt
 511      E7800000 
 512              	.LVL32:
 513              	.LBE11:
  43:src/syscall_cpp.cpp **** 
 514              		.loc 2 43 1
 515 01f4 83308100 		ld	ra,8(sp)
 516              		.cfi_restore 1
 517 01f8 03340100 		ld	s0,0(sp)
 518              		.cfi_restore 8
 519              		.cfi_def_cfa 2, 16
 520 01fc 13010101 		addi	sp,sp,16
 521              		.cfi_def_cfa_offset 0
 522 0200 67800000 		jr	ra
 523              		.cfi_endproc
 524              	.LFE69:
 526              		.globl	_ZN9SemaphoreC1Ej
 527              		.set	_ZN9SemaphoreC1Ej,_ZN9SemaphoreC2Ej
 528              		.align	2
 529              		.globl	_ZN9Semaphore4waitEv
 531              	_ZN9Semaphore4waitEv:
 532              	.LFB71:
  45:src/syscall_cpp.cpp **** 
 533              		.loc 2 45 23 is_stmt 1
 534              		.cfi_startproc
 535              	.LVL33:
 536 0204 130101FF 		addi	sp,sp,-16
 537              		.cfi_def_cfa_offset 16
 538 0208 23341100 		sd	ra,8(sp)
 539 020c 23308100 		sd	s0,0(sp)
 540              		.cfi_offset 1, -8
 541              		.cfi_offset 8, -16
 542 0210 13040101 		addi	s0,sp,16
 543              		.cfi_def_cfa 8, 0
  47:src/syscall_cpp.cpp **** }
GAS LISTING /tmp/cc0s2oZ4.s 			page 13


 544              		.loc 2 47 5
  47:src/syscall_cpp.cpp **** }
 545              		.loc 2 47 20 is_stmt 0
 546 0214 03358500 		ld	a0,8(a0)
 547              	.LVL34:
 548 0218 97000000 		call	sem_wait@plt
 548      E7800000 
 549              	.LVL35:
  48:src/syscall_cpp.cpp **** 
 550              		.loc 2 48 1
 551 0220 83308100 		ld	ra,8(sp)
 552              		.cfi_restore 1
 553 0224 03340100 		ld	s0,0(sp)
 554              		.cfi_restore 8
 555              		.cfi_def_cfa 2, 16
 556 0228 13010101 		addi	sp,sp,16
 557              		.cfi_def_cfa_offset 0
 558 022c 67800000 		jr	ra
 559              		.cfi_endproc
 560              	.LFE71:
 562              		.align	2
 563              		.globl	_ZN9Semaphore6signalEv
 565              	_ZN9Semaphore6signalEv:
 566              	.LFB72:
  50:src/syscall_cpp.cpp ****     return sem_signal(myHandle);
 567              		.loc 2 50 25 is_stmt 1
 568              		.cfi_startproc
 569              	.LVL36:
 570 0230 130101FF 		addi	sp,sp,-16
 571              		.cfi_def_cfa_offset 16
 572 0234 23341100 		sd	ra,8(sp)
 573 0238 23308100 		sd	s0,0(sp)
 574              		.cfi_offset 1, -8
 575              		.cfi_offset 8, -16
 576 023c 13040101 		addi	s0,sp,16
 577              		.cfi_def_cfa 8, 0
  51:src/syscall_cpp.cpp **** }
 578              		.loc 2 51 5
  51:src/syscall_cpp.cpp **** }
 579              		.loc 2 51 22 is_stmt 0
 580 0240 03358500 		ld	a0,8(a0)
 581              	.LVL37:
 582 0244 97000000 		call	sem_signal@plt
 582      E7800000 
 583              	.LVL38:
  52:src/syscall_cpp.cpp **** 
 584              		.loc 2 52 1
 585 024c 83308100 		ld	ra,8(sp)
 586              		.cfi_restore 1
 587 0250 03340100 		ld	s0,0(sp)
 588              		.cfi_restore 8
 589              		.cfi_def_cfa 2, 16
 590 0254 13010101 		addi	sp,sp,16
 591              		.cfi_def_cfa_offset 0
 592 0258 67800000 		jr	ra
 593              		.cfi_endproc
 594              	.LFE72:
GAS LISTING /tmp/cc0s2oZ4.s 			page 14


 596              		.align	2
 597              		.globl	_ZN14PeriodicThreadC2Em
 599              	_ZN14PeriodicThreadC2Em:
 600              	.LFB78:
  57:src/syscall_cpp.cpp **** 
  58:src/syscall_cpp.cpp **** 
  59:src/syscall_cpp.cpp **** //PERIODIC THREAD
  60:src/syscall_cpp.cpp **** 
  61:src/syscall_cpp.cpp **** PeriodicThread::PeriodicThread(time_t period) : period(period) {}
 601              		.loc 2 61 1 is_stmt 1
 602              		.cfi_startproc
 603              	.LVL39:
 604 025c 130101FE 		addi	sp,sp,-32
 605              		.cfi_def_cfa_offset 32
 606 0260 233C1100 		sd	ra,24(sp)
 607 0264 23388100 		sd	s0,16(sp)
 608 0268 23349100 		sd	s1,8(sp)
 609 026c 23302101 		sd	s2,0(sp)
 610              		.cfi_offset 1, -8
 611              		.cfi_offset 8, -16
 612              		.cfi_offset 9, -24
 613              		.cfi_offset 18, -32
 614 0270 13040102 		addi	s0,sp,32
 615              		.cfi_def_cfa 8, 0
 616 0274 93040500 		mv	s1,a0
 617 0278 13890500 		mv	s2,a1
 618              	.LBB12:
 619              		.loc 2 61 62 is_stmt 0
 620 027c 97000000 		call	_ZN6ThreadC2Ev
 620      E7800000 
 621              	.LVL40:
 622 0284 97070000 		lla	a5,_ZTV14PeriodicThread+16
 622      93870700 
 623 028c 23B0F400 		sd	a5,0(s1)
 624 0290 23B42403 		sd	s2,40(s1)
 625              	.LBE12:
 626              		.loc 2 61 65
 627 0294 83308101 		ld	ra,24(sp)
 628              		.cfi_restore 1
 629 0298 03340101 		ld	s0,16(sp)
 630              		.cfi_restore 8
 631              		.cfi_def_cfa 2, 32
 632 029c 83348100 		ld	s1,8(sp)
 633              		.cfi_restore 9
 634              	.LVL41:
 635 02a0 03390100 		ld	s2,0(sp)
 636              		.cfi_restore 18
 637              	.LVL42:
 638 02a4 13010102 		addi	sp,sp,32
 639              		.cfi_def_cfa_offset 0
 640 02a8 67800000 		jr	ra
 641              		.cfi_endproc
 642              	.LFE78:
 644              		.globl	_ZN14PeriodicThreadC1Em
 645              		.set	_ZN14PeriodicThreadC1Em,_ZN14PeriodicThreadC2Em
 646              		.align	2
 647              		.globl	_ZN7Console4getcEv
GAS LISTING /tmp/cc0s2oZ4.s 			page 15


 649              	_ZN7Console4getcEv:
 650              	.LFB80:
  62:src/syscall_cpp.cpp **** 
  63:src/syscall_cpp.cpp **** 
  64:src/syscall_cpp.cpp **** //CONSOLE
  65:src/syscall_cpp.cpp **** 
  66:src/syscall_cpp.cpp **** char Console::getc() {
 651              		.loc 2 66 22 is_stmt 1
 652              		.cfi_startproc
 653 02ac 130101FF 		addi	sp,sp,-16
 654              		.cfi_def_cfa_offset 16
 655 02b0 23341100 		sd	ra,8(sp)
 656 02b4 23308100 		sd	s0,0(sp)
 657              		.cfi_offset 1, -8
 658              		.cfi_offset 8, -16
 659 02b8 13040101 		addi	s0,sp,16
 660              		.cfi_def_cfa 8, 0
  67:src/syscall_cpp.cpp ****     return getc();
 661              		.loc 2 67 5
 662              		.loc 2 67 16 is_stmt 0
 663 02bc 97000000 		call	_ZN7Console4getcEv
 663      E7800000 
 664              	.LVL43:
  68:src/syscall_cpp.cpp **** }
 665              		.loc 2 68 1
 666 02c4 83308100 		ld	ra,8(sp)
 667              		.cfi_restore 1
 668 02c8 03340100 		ld	s0,0(sp)
 669              		.cfi_restore 8
 670              		.cfi_def_cfa 2, 16
 671 02cc 13010101 		addi	sp,sp,16
 672              		.cfi_def_cfa_offset 0
 673 02d0 67800000 		jr	ra
 674              		.cfi_endproc
 675              	.LFE80:
 677              		.align	2
 678              		.globl	_ZN7Console4putcEc
 680              	_ZN7Console4putcEc:
 681              	.LFB81:
  69:src/syscall_cpp.cpp **** 
  70:src/syscall_cpp.cpp **** void Console::putc(char c) {
 682              		.loc 2 70 28 is_stmt 1
 683              		.cfi_startproc
 684              	.LVL44:
 685 02d4 130101FF 		addi	sp,sp,-16
 686              		.cfi_def_cfa_offset 16
 687 02d8 23341100 		sd	ra,8(sp)
 688 02dc 23308100 		sd	s0,0(sp)
 689              		.cfi_offset 1, -8
 690              		.cfi_offset 8, -16
 691 02e0 13040101 		addi	s0,sp,16
 692              		.cfi_def_cfa 8, 0
  71:src/syscall_cpp.cpp ****     putc(c);
 693              		.loc 2 71 5
 694              		.loc 2 71 9 is_stmt 0
 695 02e4 97000000 		call	_ZN7Console4putcEc
 695      E7800000 
GAS LISTING /tmp/cc0s2oZ4.s 			page 16


 696              	.LVL45:
  72:src/syscall_cpp.cpp **** }
 697              		.loc 2 72 1
 698 02ec 83308100 		ld	ra,8(sp)
 699              		.cfi_restore 1
 700 02f0 03340100 		ld	s0,0(sp)
 701              		.cfi_restore 8
 702              		.cfi_def_cfa 2, 16
 703 02f4 13010101 		addi	sp,sp,16
 704              		.cfi_def_cfa_offset 0
 705 02f8 67800000 		jr	ra
 706              		.cfi_endproc
 707              	.LFE81:
 709              		.weak	_ZTV14PeriodicThread
 710              		.section	.data.rel.ro.local._ZTV14PeriodicThread,"awG",@progbits,_ZTV14PeriodicThread,comdat
 711              		.align	3
 714              	_ZTV14PeriodicThread:
 715 0000 00000000 		.dword	0
 715      00000000 
 716 0008 00000000 		.dword	0
 716      00000000 
 717 0010 00000000 		.dword	_ZN14PeriodicThreadD1Ev
 717      00000000 
 718 0018 00000000 		.dword	_ZN14PeriodicThreadD0Ev
 718      00000000 
 719 0020 00000000 		.dword	_ZN6Thread3runEv
 719      00000000 
 720 0028 00000000 		.dword	_ZN14PeriodicThread18periodicActivationEv
 720      00000000 
 721              		.weak	_ZTV6Thread
 722              		.section	.data.rel.ro.local._ZTV6Thread,"awG",@progbits,_ZTV6Thread,comdat
 723              		.align	3
 726              	_ZTV6Thread:
 727 0000 00000000 		.dword	0
 727      00000000 
 728 0008 00000000 		.dword	0
 728      00000000 
 729 0010 00000000 		.dword	_ZN6ThreadD1Ev
 729      00000000 
 730 0018 00000000 		.dword	_ZN6ThreadD0Ev
 730      00000000 
 731 0020 00000000 		.dword	_ZN6Thread3runEv
 731      00000000 
 732              		.weak	_ZTV9Semaphore
 733              		.section	.data.rel.ro.local._ZTV9Semaphore,"awG",@progbits,_ZTV9Semaphore,comdat
 734              		.align	3
 737              	_ZTV9Semaphore:
 738 0000 00000000 		.dword	0
 738      00000000 
 739 0008 00000000 		.dword	0
 739      00000000 
 740 0010 00000000 		.dword	_ZN9SemaphoreD1Ev
 740      00000000 
 741 0018 00000000 		.dword	_ZN9SemaphoreD0Ev
 741      00000000 
 742              		.text
 743              	.Letext0:
GAS LISTING /tmp/cc0s2oZ4.s 			page 17


 744              		.file 3 "src/../h/../h/../lib/hw.h"
 745              		.file 4 "src/../h/../h/syscall_c.h"
 746              		.file 5 "src/../h/tcb.hpp"
 4062              		.align	3
 4065              	DW.ref.__gxx_personality_v0:
 4066 0000 00000000 		.dword	__gxx_personality_v0
 4066      00000000 
 4067              		.ident	"GCC: (Ubuntu 9.4.0-1ubuntu1~20.04) 9.4.0"
 4068              		.section	.note.GNU-stack,"",@progbits
GAS LISTING /tmp/cc0s2oZ4.s 			page 18


DEFINED SYMBOLS
                            *ABS*:0000000000000000 syscall_cpp.cpp
     /tmp/cc0s2oZ4.s:10     .text._ZN6Thread3runEv:0000000000000000 _ZN6Thread3runEv
     /tmp/cc0s2oZ4.s:14     .text._ZN6Thread3runEv:0000000000000000 .L0 
     /tmp/cc0s2oZ4.s:16     .text._ZN6Thread3runEv:0000000000000000 .L0 
     /tmp/cc0s2oZ4.s:17     .text._ZN6Thread3runEv:0000000000000004 .L0 
     /tmp/cc0s2oZ4.s:19     .text._ZN6Thread3runEv:0000000000000008 .L0 
     /tmp/cc0s2oZ4.s:21     .text._ZN6Thread3runEv:000000000000000c .L0 
     /tmp/cc0s2oZ4.s:23     .text._ZN6Thread3runEv:000000000000000c .L0 
     /tmp/cc0s2oZ4.s:24     .text._ZN6Thread3runEv:0000000000000010 .L0 
     /tmp/cc0s2oZ4.s:25     .text._ZN6Thread3runEv:0000000000000010 .L0 
     /tmp/cc0s2oZ4.s:27     .text._ZN6Thread3runEv:0000000000000014 .L0 
     /tmp/cc0s2oZ4.s:29     .text._ZN6Thread3runEv:0000000000000018 .L0 
     /tmp/cc0s2oZ4.s:36     .text._ZN14PeriodicThread18periodicActivationEv:0000000000000000 _ZN14PeriodicThread18periodicActivationEv
     /tmp/cc0s2oZ4.s:39     .text._ZN14PeriodicThread18periodicActivationEv:0000000000000000 .L0 
     /tmp/cc0s2oZ4.s:41     .text._ZN14PeriodicThread18periodicActivationEv:0000000000000000 .L0 
     /tmp/cc0s2oZ4.s:42     .text._ZN14PeriodicThread18periodicActivationEv:0000000000000004 .L0 
     /tmp/cc0s2oZ4.s:44     .text._ZN14PeriodicThread18periodicActivationEv:0000000000000008 .L0 
     /tmp/cc0s2oZ4.s:46     .text._ZN14PeriodicThread18periodicActivationEv:000000000000000c .L0 
     /tmp/cc0s2oZ4.s:48     .text._ZN14PeriodicThread18periodicActivationEv:000000000000000c .L0 
     /tmp/cc0s2oZ4.s:49     .text._ZN14PeriodicThread18periodicActivationEv:0000000000000010 .L0 
     /tmp/cc0s2oZ4.s:50     .text._ZN14PeriodicThread18periodicActivationEv:0000000000000010 .L0 
     /tmp/cc0s2oZ4.s:52     .text._ZN14PeriodicThread18periodicActivationEv:0000000000000014 .L0 
     /tmp/cc0s2oZ4.s:54     .text._ZN14PeriodicThread18periodicActivationEv:0000000000000018 .L0 
     /tmp/cc0s2oZ4.s:61     .text:0000000000000000 _Z16threadRunWrapperPv
     /tmp/cc0s2oZ4.s:65     .text:0000000000000000 .L0 
     /tmp/cc0s2oZ4.s:67     .text:0000000000000000 .L0 
     /tmp/cc0s2oZ4.s:68     .text:0000000000000004 .L0 
     /tmp/cc0s2oZ4.s:71     .text:000000000000000c .L0 
     /tmp/cc0s2oZ4.s:72     .text:000000000000000c .L0 
     /tmp/cc0s2oZ4.s:74     .text:0000000000000010 .L0 
     /tmp/cc0s2oZ4.s:77     .text:0000000000000010 .L0 
     /tmp/cc0s2oZ4.s:78     .text:0000000000000010 .L0 
     /tmp/cc0s2oZ4.s:79     .text:0000000000000010 .L0 
     /tmp/cc0s2oZ4.s:82     .text:0000000000000018 .L0 
     /tmp/cc0s2oZ4.s:85     .text:000000000000001c .L0 
     /tmp/cc0s2oZ4.s:86     .text:0000000000000020 .L0 
     /tmp/cc0s2oZ4.s:88     .text:0000000000000024 .L0 
     /tmp/cc0s2oZ4.s:89     .text:0000000000000024 .L0 
     /tmp/cc0s2oZ4.s:91     .text:0000000000000028 .L0 
     /tmp/cc0s2oZ4.s:93     .text:000000000000002c .L0 
     /tmp/cc0s2oZ4.s:99     .text:000000000000002c _ZN6ThreadD2Ev
     /tmp/cc0s2oZ4.s:102    .text:000000000000002c .L0 
     /tmp/cc0s2oZ4.s:104    .text:000000000000002c .L0 
     /tmp/cc0s2oZ4.s:105    .text:0000000000000030 .L0 
     /tmp/cc0s2oZ4.s:107    .text:0000000000000034 .L0 
     /tmp/cc0s2oZ4.s:109    .text:0000000000000038 .L0 
     /tmp/cc0s2oZ4.s:111    .text:0000000000000038 .L0 
     /tmp/cc0s2oZ4.s:112    .text:000000000000003c .L0 
     /tmp/cc0s2oZ4.s:113    .text:000000000000003c .L0 
     /tmp/cc0s2oZ4.s:115    .text:0000000000000040 .L0 
     /tmp/cc0s2oZ4.s:117    .text:0000000000000044 .L0 
     /tmp/cc0s2oZ4.s:99     .text:000000000000002c _ZN6ThreadD1Ev
     /tmp/cc0s2oZ4.s:126    .text._ZN14PeriodicThreadD2Ev:0000000000000000 _ZN14PeriodicThreadD2Ev
     /tmp/cc0s2oZ4.s:129    .text._ZN14PeriodicThreadD2Ev:0000000000000000 .L0 
     /tmp/cc0s2oZ4.s:131    .text._ZN14PeriodicThreadD2Ev:0000000000000000 .L0 
     /tmp/cc0s2oZ4.s:132    .text._ZN14PeriodicThreadD2Ev:0000000000000004 .L0 
GAS LISTING /tmp/cc0s2oZ4.s 			page 19


     /tmp/cc0s2oZ4.s:134    .text._ZN14PeriodicThreadD2Ev:0000000000000008 .L0 
     /tmp/cc0s2oZ4.s:136    .text._ZN14PeriodicThreadD2Ev:000000000000000c .L0 
     /tmp/cc0s2oZ4.s:714    .data.rel.ro.local._ZTV14PeriodicThread:0000000000000000 _ZTV14PeriodicThread
     /tmp/cc0s2oZ4.s:139    .text._ZN14PeriodicThreadD2Ev:000000000000000c .L0 
     /tmp/cc0s2oZ4.s:143    .text._ZN14PeriodicThreadD2Ev:000000000000001c .L0 
     /tmp/cc0s2oZ4.s:144    .text._ZN14PeriodicThreadD2Ev:000000000000001c .L0 
     /tmp/cc0s2oZ4.s:146    .text._ZN14PeriodicThreadD2Ev:0000000000000020 .L0 
     /tmp/cc0s2oZ4.s:148    .text._ZN14PeriodicThreadD2Ev:0000000000000024 .L0 
     /tmp/cc0s2oZ4.s:126    .text._ZN14PeriodicThreadD2Ev:0000000000000000 _ZN14PeriodicThreadD1Ev
     /tmp/cc0s2oZ4.s:157    .text:0000000000000044 _ZN6ThreadD0Ev
     /tmp/cc0s2oZ4.s:160    .text:0000000000000044 .L0 
     /tmp/cc0s2oZ4.s:162    .text:0000000000000044 .L0 
     /tmp/cc0s2oZ4.s:163    .text:0000000000000048 .L0 
     /tmp/cc0s2oZ4.s:166    .text:0000000000000050 .L0 
     /tmp/cc0s2oZ4.s:167    .text:0000000000000050 .L0 
     /tmp/cc0s2oZ4.s:169    .text:0000000000000054 .L0 
     /tmp/cc0s2oZ4.s:171    .text:0000000000000054 .L0 
     /tmp/cc0s2oZ4.s:174    .text:0000000000000060 .L0 
     /tmp/cc0s2oZ4.s:176    .text:0000000000000064 .L0 
     /tmp/cc0s2oZ4.s:177    .text:0000000000000064 .L0 
     /tmp/cc0s2oZ4.s:179    .text:0000000000000068 .L0 
     /tmp/cc0s2oZ4.s:181    .text:000000000000006c .L0 
     /tmp/cc0s2oZ4.s:188    .text._ZN14PeriodicThreadD0Ev:0000000000000000 _ZN14PeriodicThreadD0Ev
     /tmp/cc0s2oZ4.s:191    .text._ZN14PeriodicThreadD0Ev:0000000000000000 .L0 
     /tmp/cc0s2oZ4.s:193    .text._ZN14PeriodicThreadD0Ev:0000000000000000 .L0 
     /tmp/cc0s2oZ4.s:194    .text._ZN14PeriodicThreadD0Ev:0000000000000004 .L0 
     /tmp/cc0s2oZ4.s:197    .text._ZN14PeriodicThreadD0Ev:000000000000000c .L0 
     /tmp/cc0s2oZ4.s:198    .text._ZN14PeriodicThreadD0Ev:000000000000000c .L0 
     /tmp/cc0s2oZ4.s:200    .text._ZN14PeriodicThreadD0Ev:0000000000000010 .L0 
     /tmp/cc0s2oZ4.s:205    .text._ZN14PeriodicThreadD0Ev:0000000000000010 .L0 
     /tmp/cc0s2oZ4.s:213    .text._ZN14PeriodicThreadD0Ev:0000000000000028 .L0 
     /tmp/cc0s2oZ4.s:215    .text._ZN14PeriodicThreadD0Ev:000000000000002c .L0 
     /tmp/cc0s2oZ4.s:216    .text._ZN14PeriodicThreadD0Ev:000000000000002c .L0 
     /tmp/cc0s2oZ4.s:218    .text._ZN14PeriodicThreadD0Ev:0000000000000030 .L0 
     /tmp/cc0s2oZ4.s:220    .text._ZN14PeriodicThreadD0Ev:0000000000000034 .L0 
     /tmp/cc0s2oZ4.s:227    .text:000000000000006c _ZN9SemaphoreD2Ev
     /tmp/cc0s2oZ4.s:230    .text:000000000000006c .L0 
     /tmp/cc0s2oZ4.s:4065   .data.rel.local.DW.ref.__gxx_personality_v0:0000000000000000 DW.ref.__gxx_personality_v0
     /tmp/cc0s2oZ4.s:234    .text:000000000000006c .L0 
     /tmp/cc0s2oZ4.s:235    .text:0000000000000070 .L0 
     /tmp/cc0s2oZ4.s:238    .text:0000000000000078 .L0 
     /tmp/cc0s2oZ4.s:239    .text:0000000000000078 .L0 
     /tmp/cc0s2oZ4.s:241    .text:000000000000007c .L0 
     /tmp/cc0s2oZ4.s:737    .data.rel.ro.local._ZTV9Semaphore:0000000000000000 _ZTV9Semaphore
     /tmp/cc0s2oZ4.s:244    .text:000000000000007c .L0 
     /tmp/cc0s2oZ4.s:247    .text:0000000000000088 .L0 
     /tmp/cc0s2oZ4.s:248    .text:0000000000000088 .L0 
     /tmp/cc0s2oZ4.s:254    .text:0000000000000094 .L0 
     /tmp/cc0s2oZ4.s:255    .text:0000000000000098 .L0 
     /tmp/cc0s2oZ4.s:257    .text:000000000000009c .L0 
     /tmp/cc0s2oZ4.s:258    .text:000000000000009c .L0 
     /tmp/cc0s2oZ4.s:260    .text:00000000000000a0 .L0 
     /tmp/cc0s2oZ4.s:262    .text:00000000000000a4 .L0 
     /tmp/cc0s2oZ4.s:227    .text:000000000000006c _ZN9SemaphoreD1Ev
     /tmp/cc0s2oZ4.s:278    .text:00000000000000a4 _ZN9SemaphoreD0Ev
     /tmp/cc0s2oZ4.s:281    .text:00000000000000a4 .L0 
     /tmp/cc0s2oZ4.s:283    .text:00000000000000a4 .L0 
GAS LISTING /tmp/cc0s2oZ4.s 			page 20


     /tmp/cc0s2oZ4.s:284    .text:00000000000000a8 .L0 
     /tmp/cc0s2oZ4.s:288    .text:00000000000000b4 .L0 
     /tmp/cc0s2oZ4.s:289    .text:00000000000000b4 .L0 
     /tmp/cc0s2oZ4.s:290    .text:00000000000000b4 .L0 
     /tmp/cc0s2oZ4.s:292    .text:00000000000000b8 .L0 
     /tmp/cc0s2oZ4.s:295    .text:00000000000000bc .L0 
     /tmp/cc0s2oZ4.s:301    .text:00000000000000d4 .L0 
     /tmp/cc0s2oZ4.s:303    .text:00000000000000d8 .L0 
     /tmp/cc0s2oZ4.s:304    .text:00000000000000d8 .L0 
     /tmp/cc0s2oZ4.s:306    .text:00000000000000dc .L0 
     /tmp/cc0s2oZ4.s:309    .text:00000000000000e0 .L0 
     /tmp/cc0s2oZ4.s:311    .text:00000000000000e4 .L0 
     /tmp/cc0s2oZ4.s:317    .text:00000000000000e4 _ZN6ThreadC2EPFvPvES0_
     /tmp/cc0s2oZ4.s:320    .text:00000000000000e4 .L0 
     /tmp/cc0s2oZ4.s:322    .text:00000000000000e4 .L0 
     /tmp/cc0s2oZ4.s:323    .text:00000000000000e8 .L0 
     /tmp/cc0s2oZ4.s:326    .text:00000000000000f0 .L0 
     /tmp/cc0s2oZ4.s:327    .text:00000000000000f0 .L0 
     /tmp/cc0s2oZ4.s:329    .text:00000000000000f4 .L0 
     /tmp/cc0s2oZ4.s:726    .data.rel.ro.local._ZTV6Thread:0000000000000000 _ZTV6Thread
     /tmp/cc0s2oZ4.s:332    .text:00000000000000f4 .L0 
     /tmp/cc0s2oZ4.s:335    .text:0000000000000100 .L0 
     /tmp/cc0s2oZ4.s:336    .text:0000000000000100 .L0 
     /tmp/cc0s2oZ4.s:342    .text:000000000000010c .L0 
     /tmp/cc0s2oZ4.s:343    .text:0000000000000110 .L0 
     /tmp/cc0s2oZ4.s:345    .text:0000000000000114 .L0 
     /tmp/cc0s2oZ4.s:346    .text:0000000000000114 .L0 
     /tmp/cc0s2oZ4.s:348    .text:0000000000000118 .L0 
     /tmp/cc0s2oZ4.s:350    .text:000000000000011c .L0 
     /tmp/cc0s2oZ4.s:317    .text:00000000000000e4 _ZN6ThreadC1EPFvPvES0_
     /tmp/cc0s2oZ4.s:358    .text:000000000000011c _ZN6Thread5startEv
     /tmp/cc0s2oZ4.s:361    .text:000000000000011c .L0 
     /tmp/cc0s2oZ4.s:363    .text:000000000000011c .L0 
     /tmp/cc0s2oZ4.s:364    .text:0000000000000120 .L0 
     /tmp/cc0s2oZ4.s:367    .text:0000000000000128 .L0 
     /tmp/cc0s2oZ4.s:368    .text:0000000000000128 .L0 
     /tmp/cc0s2oZ4.s:370    .text:000000000000012c .L0 
     /tmp/cc0s2oZ4.s:372    .text:000000000000012c .L0 
     /tmp/cc0s2oZ4.s:373    .text:000000000000012c .L0 
     /tmp/cc0s2oZ4.s:380    .text:0000000000000144 .L0 
     /tmp/cc0s2oZ4.s:381    .text:0000000000000144 .L0 
     /tmp/cc0s2oZ4.s:383    .text:000000000000014c .L0 
     /tmp/cc0s2oZ4.s:385    .text:0000000000000150 .L0 
     /tmp/cc0s2oZ4.s:386    .text:0000000000000150 .L0 
     /tmp/cc0s2oZ4.s:388    .text:0000000000000154 .L0 
     /tmp/cc0s2oZ4.s:390    .text:0000000000000158 .L0 
     /tmp/cc0s2oZ4.s:396    .text:0000000000000158 _ZN6Thread8dispatchEv
     /tmp/cc0s2oZ4.s:399    .text:0000000000000158 .L0 
     /tmp/cc0s2oZ4.s:400    .text:0000000000000158 .L0 
     /tmp/cc0s2oZ4.s:401    .text:000000000000015c .L0 
     /tmp/cc0s2oZ4.s:404    .text:0000000000000164 .L0 
     /tmp/cc0s2oZ4.s:405    .text:0000000000000164 .L0 
     /tmp/cc0s2oZ4.s:407    .text:0000000000000168 .L0 
     /tmp/cc0s2oZ4.s:409    .text:0000000000000168 .L0 
     /tmp/cc0s2oZ4.s:410    .text:0000000000000168 .L0 
     /tmp/cc0s2oZ4.s:413    .text:0000000000000170 .L0 
     /tmp/cc0s2oZ4.s:414    .text:0000000000000174 .L0 
GAS LISTING /tmp/cc0s2oZ4.s 			page 21


     /tmp/cc0s2oZ4.s:416    .text:0000000000000178 .L0 
     /tmp/cc0s2oZ4.s:417    .text:0000000000000178 .L0 
     /tmp/cc0s2oZ4.s:419    .text:000000000000017c .L0 
     /tmp/cc0s2oZ4.s:421    .text:0000000000000180 .L0 
     /tmp/cc0s2oZ4.s:427    .text:0000000000000180 _ZN6Thread5sleepEm
     /tmp/cc0s2oZ4.s:430    .text:0000000000000180 .L0 
     /tmp/cc0s2oZ4.s:432    .text:0000000000000180 .L0 
     /tmp/cc0s2oZ4.s:433    .text:0000000000000184 .L0 
     /tmp/cc0s2oZ4.s:436    .text:000000000000018c .L0 
     /tmp/cc0s2oZ4.s:437    .text:000000000000018c .L0 
     /tmp/cc0s2oZ4.s:439    .text:0000000000000190 .L0 
     /tmp/cc0s2oZ4.s:441    .text:0000000000000190 .L0 
     /tmp/cc0s2oZ4.s:442    .text:0000000000000190 .L0 
     /tmp/cc0s2oZ4.s:445    .text:0000000000000198 .L0 
     /tmp/cc0s2oZ4.s:446    .text:000000000000019c .L0 
     /tmp/cc0s2oZ4.s:448    .text:00000000000001a0 .L0 
     /tmp/cc0s2oZ4.s:449    .text:00000000000001a0 .L0 
     /tmp/cc0s2oZ4.s:451    .text:00000000000001a4 .L0 
     /tmp/cc0s2oZ4.s:453    .text:00000000000001a8 .L0 
     /tmp/cc0s2oZ4.s:459    .text:00000000000001a8 _ZN6ThreadC2Ev
     /tmp/cc0s2oZ4.s:462    .text:00000000000001a8 .L0 
     /tmp/cc0s2oZ4.s:464    .text:00000000000001a8 .L0 
     /tmp/cc0s2oZ4.s:465    .text:00000000000001ac .L0 
     /tmp/cc0s2oZ4.s:467    .text:00000000000001b0 .L0 
     /tmp/cc0s2oZ4.s:469    .text:00000000000001b4 .L0 
     /tmp/cc0s2oZ4.s:472    .text:00000000000001b4 .L0 
     /tmp/cc0s2oZ4.s:476    .text:00000000000001c0 .L0 
     /tmp/cc0s2oZ4.s:477    .text:00000000000001c4 .L0 
     /tmp/cc0s2oZ4.s:478    .text:00000000000001c4 .L0 
     /tmp/cc0s2oZ4.s:480    .text:00000000000001c8 .L0 
     /tmp/cc0s2oZ4.s:482    .text:00000000000001cc .L0 
     /tmp/cc0s2oZ4.s:459    .text:00000000000001a8 _ZN6ThreadC1Ev
     /tmp/cc0s2oZ4.s:490    .text:00000000000001cc _ZN9SemaphoreC2Ej
     /tmp/cc0s2oZ4.s:493    .text:00000000000001cc .L0 
     /tmp/cc0s2oZ4.s:495    .text:00000000000001cc .L0 
     /tmp/cc0s2oZ4.s:496    .text:00000000000001d0 .L0 
     /tmp/cc0s2oZ4.s:499    .text:00000000000001d8 .L0 
     /tmp/cc0s2oZ4.s:500    .text:00000000000001d8 .L0 
     /tmp/cc0s2oZ4.s:502    .text:00000000000001dc .L0 
     /tmp/cc0s2oZ4.s:505    .text:00000000000001dc .L0 
     /tmp/cc0s2oZ4.s:508    .text:00000000000001e8 .L0 
     /tmp/cc0s2oZ4.s:509    .text:00000000000001e8 .L0 
     /tmp/cc0s2oZ4.s:515    .text:00000000000001f4 .L0 
     /tmp/cc0s2oZ4.s:516    .text:00000000000001f8 .L0 
     /tmp/cc0s2oZ4.s:518    .text:00000000000001fc .L0 
     /tmp/cc0s2oZ4.s:519    .text:00000000000001fc .L0 
     /tmp/cc0s2oZ4.s:521    .text:0000000000000200 .L0 
     /tmp/cc0s2oZ4.s:523    .text:0000000000000204 .L0 
     /tmp/cc0s2oZ4.s:490    .text:00000000000001cc _ZN9SemaphoreC1Ej
     /tmp/cc0s2oZ4.s:531    .text:0000000000000204 _ZN9Semaphore4waitEv
     /tmp/cc0s2oZ4.s:534    .text:0000000000000204 .L0 
     /tmp/cc0s2oZ4.s:536    .text:0000000000000204 .L0 
     /tmp/cc0s2oZ4.s:537    .text:0000000000000208 .L0 
     /tmp/cc0s2oZ4.s:540    .text:0000000000000210 .L0 
     /tmp/cc0s2oZ4.s:541    .text:0000000000000210 .L0 
     /tmp/cc0s2oZ4.s:543    .text:0000000000000214 .L0 
     /tmp/cc0s2oZ4.s:545    .text:0000000000000214 .L0 
GAS LISTING /tmp/cc0s2oZ4.s 			page 22


     /tmp/cc0s2oZ4.s:546    .text:0000000000000214 .L0 
     /tmp/cc0s2oZ4.s:551    .text:0000000000000220 .L0 
     /tmp/cc0s2oZ4.s:552    .text:0000000000000224 .L0 
     /tmp/cc0s2oZ4.s:554    .text:0000000000000228 .L0 
     /tmp/cc0s2oZ4.s:555    .text:0000000000000228 .L0 
     /tmp/cc0s2oZ4.s:557    .text:000000000000022c .L0 
     /tmp/cc0s2oZ4.s:559    .text:0000000000000230 .L0 
     /tmp/cc0s2oZ4.s:565    .text:0000000000000230 _ZN9Semaphore6signalEv
     /tmp/cc0s2oZ4.s:568    .text:0000000000000230 .L0 
     /tmp/cc0s2oZ4.s:570    .text:0000000000000230 .L0 
     /tmp/cc0s2oZ4.s:571    .text:0000000000000234 .L0 
     /tmp/cc0s2oZ4.s:574    .text:000000000000023c .L0 
     /tmp/cc0s2oZ4.s:575    .text:000000000000023c .L0 
     /tmp/cc0s2oZ4.s:577    .text:0000000000000240 .L0 
     /tmp/cc0s2oZ4.s:579    .text:0000000000000240 .L0 
     /tmp/cc0s2oZ4.s:580    .text:0000000000000240 .L0 
     /tmp/cc0s2oZ4.s:585    .text:000000000000024c .L0 
     /tmp/cc0s2oZ4.s:586    .text:0000000000000250 .L0 
     /tmp/cc0s2oZ4.s:588    .text:0000000000000254 .L0 
     /tmp/cc0s2oZ4.s:589    .text:0000000000000254 .L0 
     /tmp/cc0s2oZ4.s:591    .text:0000000000000258 .L0 
     /tmp/cc0s2oZ4.s:593    .text:000000000000025c .L0 
     /tmp/cc0s2oZ4.s:599    .text:000000000000025c _ZN14PeriodicThreadC2Em
     /tmp/cc0s2oZ4.s:602    .text:000000000000025c .L0 
     /tmp/cc0s2oZ4.s:604    .text:000000000000025c .L0 
     /tmp/cc0s2oZ4.s:605    .text:0000000000000260 .L0 
     /tmp/cc0s2oZ4.s:610    .text:0000000000000270 .L0 
     /tmp/cc0s2oZ4.s:611    .text:0000000000000270 .L0 
     /tmp/cc0s2oZ4.s:612    .text:0000000000000270 .L0 
     /tmp/cc0s2oZ4.s:613    .text:0000000000000270 .L0 
     /tmp/cc0s2oZ4.s:615    .text:0000000000000274 .L0 
     /tmp/cc0s2oZ4.s:620    .text:000000000000027c .L0 
     /tmp/cc0s2oZ4.s:627    .text:0000000000000294 .L0 
     /tmp/cc0s2oZ4.s:628    .text:0000000000000298 .L0 
     /tmp/cc0s2oZ4.s:630    .text:000000000000029c .L0 
     /tmp/cc0s2oZ4.s:631    .text:000000000000029c .L0 
     /tmp/cc0s2oZ4.s:633    .text:00000000000002a0 .L0 
     /tmp/cc0s2oZ4.s:636    .text:00000000000002a4 .L0 
     /tmp/cc0s2oZ4.s:639    .text:00000000000002a8 .L0 
     /tmp/cc0s2oZ4.s:641    .text:00000000000002ac .L0 
     /tmp/cc0s2oZ4.s:599    .text:000000000000025c _ZN14PeriodicThreadC1Em
     /tmp/cc0s2oZ4.s:649    .text:00000000000002ac _ZN7Console4getcEv
     /tmp/cc0s2oZ4.s:652    .text:00000000000002ac .L0 
     /tmp/cc0s2oZ4.s:653    .text:00000000000002ac .L0 
     /tmp/cc0s2oZ4.s:654    .text:00000000000002b0 .L0 
     /tmp/cc0s2oZ4.s:657    .text:00000000000002b8 .L0 
     /tmp/cc0s2oZ4.s:658    .text:00000000000002b8 .L0 
     /tmp/cc0s2oZ4.s:660    .text:00000000000002bc .L0 
     /tmp/cc0s2oZ4.s:662    .text:00000000000002bc .L0 
     /tmp/cc0s2oZ4.s:663    .text:00000000000002bc .L0 
     /tmp/cc0s2oZ4.s:666    .text:00000000000002c4 .L0 
     /tmp/cc0s2oZ4.s:667    .text:00000000000002c8 .L0 
     /tmp/cc0s2oZ4.s:669    .text:00000000000002cc .L0 
     /tmp/cc0s2oZ4.s:670    .text:00000000000002cc .L0 
     /tmp/cc0s2oZ4.s:672    .text:00000000000002d0 .L0 
     /tmp/cc0s2oZ4.s:674    .text:00000000000002d4 .L0 
     /tmp/cc0s2oZ4.s:680    .text:00000000000002d4 _ZN7Console4putcEc
GAS LISTING /tmp/cc0s2oZ4.s 			page 23


     /tmp/cc0s2oZ4.s:683    .text:00000000000002d4 .L0 
     /tmp/cc0s2oZ4.s:685    .text:00000000000002d4 .L0 
     /tmp/cc0s2oZ4.s:686    .text:00000000000002d8 .L0 
     /tmp/cc0s2oZ4.s:689    .text:00000000000002e0 .L0 
     /tmp/cc0s2oZ4.s:690    .text:00000000000002e0 .L0 
     /tmp/cc0s2oZ4.s:692    .text:00000000000002e4 .L0 
     /tmp/cc0s2oZ4.s:694    .text:00000000000002e4 .L0 
     /tmp/cc0s2oZ4.s:695    .text:00000000000002e4 .L0 
     /tmp/cc0s2oZ4.s:698    .text:00000000000002ec .L0 
     /tmp/cc0s2oZ4.s:699    .text:00000000000002f0 .L0 
     /tmp/cc0s2oZ4.s:701    .text:00000000000002f4 .L0 
     /tmp/cc0s2oZ4.s:702    .text:00000000000002f4 .L0 
     /tmp/cc0s2oZ4.s:704    .text:00000000000002f8 .L0 
     /tmp/cc0s2oZ4.s:706    .text:00000000000002fc .L0 
     /tmp/cc0s2oZ4.s:32     .text._ZN6Thread3runEv:0000000000000018 .L0 
     /tmp/cc0s2oZ4.s:57     .text._ZN14PeriodicThread18periodicActivationEv:0000000000000018 .L0 
     /tmp/cc0s2oZ4.s:747    .text:00000000000002fc .L0 
     /tmp/cc0s2oZ4.s:153    .text._ZN14PeriodicThreadD2Ev:0000000000000024 .L0 
     /tmp/cc0s2oZ4.s:223    .text._ZN14PeriodicThreadD0Ev:0000000000000034 .L0 
     /tmp/cc0s2oZ4.s:244    .text:000000000000007c .L0 
     /tmp/cc0s2oZ4.s:332    .text:00000000000000f4 .L0 
     /tmp/cc0s2oZ4.s:374    .text:0000000000000130 .L0 
     /tmp/cc0s2oZ4.s:472    .text:00000000000001b4 .L0 
     /tmp/cc0s2oZ4.s:505    .text:00000000000001dc .L0 
     /tmp/cc0s2oZ4.s:622    .text:0000000000000284 .L0 
     /tmp/cc0s2oZ4.s:139    .text._ZN14PeriodicThreadD2Ev:000000000000000c .L0 
     /tmp/cc0s2oZ4.s:205    .text._ZN14PeriodicThreadD0Ev:0000000000000010 .L0 
     /tmp/cc0s2oZ4.s:2293   .debug_abbrev:0000000000000000 .Ldebug_abbrev0
     /tmp/cc0s2oZ4.s:4005   .debug_str:00000000000006fd .LASF131
     /tmp/cc0s2oZ4.s:3879   .debug_str:000000000000033d .LASF132
     /tmp/cc0s2oZ4.s:3973   .debug_str:0000000000000612 .LASF133
     /tmp/cc0s2oZ4.s:3759   .debug_ranges:0000000000000000 .Ldebug_ranges0
     /tmp/cc0s2oZ4.s:3773   .debug_line:0000000000000000 .Ldebug_line0
     /tmp/cc0s2oZ4.s:3869   .debug_str:0000000000000301 .LASF0
     /tmp/cc0s2oZ4.s:3889   .debug_str:00000000000003a2 .LASF1
     /tmp/cc0s2oZ4.s:3953   .debug_str:0000000000000571 .LASF2
     /tmp/cc0s2oZ4.s:3961   .debug_str:00000000000005b5 .LASF4
     /tmp/cc0s2oZ4.s:3881   .debug_str:0000000000000351 .LASF3
     /tmp/cc0s2oZ4.s:3789   .debug_str:0000000000000094 .LASF5
     /tmp/cc0s2oZ4.s:3931   .debug_str:00000000000004ed .LASF6
     /tmp/cc0s2oZ4.s:3927   .debug_str:00000000000004d5 .LASF7
     /tmp/cc0s2oZ4.s:3885   .debug_str:000000000000037b .LASF8
     /tmp/cc0s2oZ4.s:3853   .debug_str:0000000000000277 .LASF9
     /tmp/cc0s2oZ4.s:3859   .debug_str:00000000000002a6 .LASF10
     /tmp/cc0s2oZ4.s:3813   .debug_str:000000000000013e .LASF11
     /tmp/cc0s2oZ4.s:3847   .debug_str:0000000000000257 .LASF12
     /tmp/cc0s2oZ4.s:3825   .debug_str:00000000000001a8 .LASF13
     /tmp/cc0s2oZ4.s:3811   .debug_str:000000000000012e .LASF14
     /tmp/cc0s2oZ4.s:3985   .debug_str:000000000000068f .LASF15
     /tmp/cc0s2oZ4.s:3841   .debug_str:000000000000021c .LASF16
     /tmp/cc0s2oZ4.s:3977   .debug_str:0000000000000648 .LASF17
     /tmp/cc0s2oZ4.s:4033   .debug_str:00000000000008af .LASF18
     /tmp/cc0s2oZ4.s:3991   .debug_str:00000000000006ab .LASF134
     /tmp/cc0s2oZ4.s:4045   .debug_str:00000000000008f4 .LASF19
     /tmp/cc0s2oZ4.s:4011   .debug_str:00000000000007d9 .LASF21
     /tmp/cc0s2oZ4.s:3923   .debug_str:00000000000004ba .LASF97
     /tmp/cc0s2oZ4.s:3911   .debug_str:0000000000000449 .LASF20
GAS LISTING /tmp/cc0s2oZ4.s 			page 24


     /tmp/cc0s2oZ4.s:3969   .debug_str:00000000000005e4 .LASF22
     /tmp/cc0s2oZ4.s:3887   .debug_str:000000000000038e .LASF23
     /tmp/cc0s2oZ4.s:4051   .debug_str:0000000000000925 .LASF24
     /tmp/cc0s2oZ4.s:3993   .debug_str:00000000000006b3 .LASF27
     /tmp/cc0s2oZ4.s:3913   .debug_str:000000000000045e .LASF29
     /tmp/cc0s2oZ4.s:3801   .debug_str:00000000000000e0 .LASF25
     /tmp/cc0s2oZ4.s:4019   .debug_str:0000000000000818 .LASF26
     /tmp/cc0s2oZ4.s:3957   .debug_str:000000000000058c .LASF28
     /tmp/cc0s2oZ4.s:3807   .debug_str:000000000000010a .LASF30
     /tmp/cc0s2oZ4.s:3995   .debug_str:00000000000006be .LASF31
     /tmp/cc0s2oZ4.s:3843   .debug_str:0000000000000232 .LASF32
     /tmp/cc0s2oZ4.s:3895   .debug_str:00000000000003ce .LASF33
     /tmp/cc0s2oZ4.s:4029   .debug_str:000000000000088f .LASF34
     /tmp/cc0s2oZ4.s:4003   .debug_str:00000000000006f5 .LASF135
     /tmp/cc0s2oZ4.s:3833   .debug_str:00000000000001e4 .LASF35
     /tmp/cc0s2oZ4.s:3821   .debug_str:0000000000000183 .LASF37
     /tmp/cc0s2oZ4.s:3835   .debug_str:00000000000001ed .LASF36
     /tmp/cc0s2oZ4.s:3959   .debug_str:0000000000000596 .LASF38
     /tmp/cc0s2oZ4.s:3901   .debug_str:0000000000000403 .LASF64
     /tmp/cc0s2oZ4.s:3861   .debug_str:00000000000002b4 .LASF66
     /tmp/cc0s2oZ4.s:3919   .debug_str:000000000000049c .LASF39
     /tmp/cc0s2oZ4.s:4023   .debug_str:0000000000000849 .LASF40
     /tmp/cc0s2oZ4.s:3963   .debug_str:00000000000005bc .LASF41
     /tmp/cc0s2oZ4.s:3785   .debug_str:000000000000007e .LASF42
     /tmp/cc0s2oZ4.s:4049   .debug_str:0000000000000918 .LASF43
     /tmp/cc0s2oZ4.s:3855   .debug_str:0000000000000287 .LASF44
     /tmp/cc0s2oZ4.s:3805   .debug_str:00000000000000fa .LASF45
     /tmp/cc0s2oZ4.s:3851   .debug_str:000000000000026b .LASF46
     /tmp/cc0s2oZ4.s:3781   .debug_str:0000000000000046 .LASF47
     /tmp/cc0s2oZ4.s:3903   .debug_str:0000000000000417 .LASF49
     /tmp/cc0s2oZ4.s:3975   .debug_str:0000000000000635 .LASF48
     /tmp/cc0s2oZ4.s:3955   .debug_str:000000000000057f .LASF50
     /tmp/cc0s2oZ4.s:3777   .debug_str:000000000000002a .LASF136
     /tmp/cc0s2oZ4.s:3965   .debug_str:00000000000005c1 .LASF137
     /tmp/cc0s2oZ4.s:3779   .debug_str:0000000000000041 .LASF51
     /tmp/cc0s2oZ4.s:4043   .debug_str:00000000000008ef .LASF52
     /tmp/cc0s2oZ4.s:3971   .debug_str:000000000000060c .LASF53
     /tmp/cc0s2oZ4.s:3989   .debug_str:00000000000006a2 .LASF54
     /tmp/cc0s2oZ4.s:3921   .debug_str:00000000000004b2 .LASF55
     /tmp/cc0s2oZ4.s:4013   .debug_str:00000000000007f5 .LASF56
     /tmp/cc0s2oZ4.s:4017   .debug_str:0000000000000810 .LASF57
     /tmp/cc0s2oZ4.s:3829   .debug_str:00000000000001c3 .LASF68
     /tmp/cc0s2oZ4.s:3783   .debug_str:0000000000000056 .LASF70
     /tmp/cc0s2oZ4.s:3803   .debug_str:00000000000000ec .LASF58
     /tmp/cc0s2oZ4.s:3897   .debug_str:00000000000003db .LASF60
     /tmp/cc0s2oZ4.s:3845   .debug_str:0000000000000248 .LASF59
     /tmp/cc0s2oZ4.s:4047   .debug_str:00000000000008fe .LASF61
     /tmp/cc0s2oZ4.s:4037   .debug_str:00000000000008c9 .LASF62
     /tmp/cc0s2oZ4.s:3907   .debug_str:000000000000043c .LASF63
     /tmp/cc0s2oZ4.s:3873   .debug_str:0000000000000320 .LASF65
     /tmp/cc0s2oZ4.s:3831   .debug_str:00000000000001d1 .LASF67
     /tmp/cc0s2oZ4.s:3909   .debug_str:0000000000000444 .LASF69
     /tmp/cc0s2oZ4.s:3837   .debug_str:0000000000000201 .LASF71
     /tmp/cc0s2oZ4.s:3997   .debug_str:00000000000006c9 .LASF72
     /tmp/cc0s2oZ4.s:3943   .debug_str:0000000000000537 .LASF73
     /tmp/cc0s2oZ4.s:4027   .debug_str:0000000000000885 .LASF74
     /tmp/cc0s2oZ4.s:4001   .debug_str:00000000000006e0 .LASF82
GAS LISTING /tmp/cc0s2oZ4.s 			page 25


     /tmp/cc0s2oZ4.s:3795   .debug_str:00000000000000c4 .LASF84
     /tmp/cc0s2oZ4.s:3999   .debug_str:00000000000006ce .LASF75
     /tmp/cc0s2oZ4.s:3937   .debug_str:0000000000000512 .LASF87
     /tmp/cc0s2oZ4.s:3967   .debug_str:00000000000005d2 .LASF89
     /tmp/cc0s2oZ4.s:4009   .debug_str:00000000000007d4 .LASF76
     /tmp/cc0s2oZ4.s:3817   .debug_str:000000000000015f .LASF77
     /tmp/cc0s2oZ4.s:3987   .debug_str:000000000000069b .LASF78
     /tmp/cc0s2oZ4.s:3791   .debug_str:000000000000009b .LASF79
     /tmp/cc0s2oZ4.s:3875   .debug_str:0000000000000325 .LASF80
     /tmp/cc0s2oZ4.s:3867   .debug_str:00000000000002f1 .LASF138
     /tmp/cc0s2oZ4.s:3865   .debug_str:00000000000002ea .LASF81
     /tmp/cc0s2oZ4.s:3823   .debug_str:0000000000000196 .LASF83
     /tmp/cc0s2oZ4.s:3947   .debug_str:0000000000000545 .LASF85
     /tmp/cc0s2oZ4.s:4055   .debug_str:0000000000000955 .LASF86
     /tmp/cc0s2oZ4.s:3839   .debug_str:0000000000000214 .LASF88
     /tmp/cc0s2oZ4.s:3809   .debug_str:000000000000011f .LASF90
     /tmp/cc0s2oZ4.s:4039   .debug_str:00000000000008cf .LASF91
     /tmp/cc0s2oZ4.s:3893   .debug_str:00000000000003bb .LASF92
     /tmp/cc0s2oZ4.s:3925   .debug_str:00000000000004bf .LASF93
     /tmp/cc0s2oZ4.s:3891   .debug_str:00000000000003b5 .LASF94
     /tmp/cc0s2oZ4.s:4007   .debug_str:00000000000007c1 .LASF95
     /tmp/cc0s2oZ4.s:3877   .debug_str:000000000000032e .LASF96
     /tmp/cc0s2oZ4.s:4035   .debug_str:00000000000008b8 .LASF139
     /tmp/cc0s2oZ4.s:3819   .debug_str:0000000000000174 .LASF98
     /tmp/cc0s2oZ4.s:4021   .debug_str:000000000000082f .LASF99
     /tmp/cc0s2oZ4.s:4025   .debug_str:000000000000086a .LASF100
     /tmp/cc0s2oZ4.s:3799   .debug_str:00000000000000d9 .LASF101
     /tmp/cc0s2oZ4.s:3883   .debug_str:0000000000000363 .LASF102
     /tmp/cc0s2oZ4.s:3857   .debug_str:0000000000000293 .LASF103
     /tmp/cc0s2oZ4.s:3775   .debug_str:0000000000000000 .LASF140
     /tmp/cc0s2oZ4.s:3917   .debug_str:000000000000048c .LASF104
     /tmp/cc0s2oZ4.s:3905   .debug_str:0000000000000424 .LASF141
     /tmp/cc0s2oZ4.s:3849   .debug_str:0000000000000266 .LASF105
     /tmp/cc0s2oZ4.s:3787   .debug_str:000000000000008a .LASF106
     /tmp/cc0s2oZ4.s:4057   .debug_str:000000000000096c .LASF107
     /tmp/cc0s2oZ4.s:189    .text._ZN14PeriodicThreadD0Ev:0000000000000000 .LFB86
     /tmp/cc0s2oZ4.s:221    .text._ZN14PeriodicThreadD0Ev:0000000000000034 .LFE86
     /tmp/cc0s2oZ4.s:3450   .debug_loc:0000000000000000 .LLST3
     /tmp/cc0s2oZ4.s:202    .text._ZN14PeriodicThreadD0Ev:0000000000000010 .LBB6
     /tmp/cc0s2oZ4.s:209    .text._ZN14PeriodicThreadD0Ev:000000000000001c .LBE6
     /tmp/cc0s2oZ4.s:3464   .debug_loc:0000000000000039 .LLST4
     /tmp/cc0s2oZ4.s:211    .text._ZN14PeriodicThreadD0Ev:0000000000000024 .LVL12
     /tmp/cc0s2oZ4.s:3951   .debug_str:0000000000000559 .LASF108
     /tmp/cc0s2oZ4.s:127    .text._ZN14PeriodicThreadD2Ev:0000000000000000 .LFB84
     /tmp/cc0s2oZ4.s:149    .text._ZN14PeriodicThreadD2Ev:0000000000000024 .LFE84
     /tmp/cc0s2oZ4.s:681    .text:00000000000002d4 .LFB81
     /tmp/cc0s2oZ4.s:707    .text:00000000000002fc .LFE81
     /tmp/cc0s2oZ4.s:3471   .debug_loc:000000000000005c .LLST18
     /tmp/cc0s2oZ4.s:696    .text:00000000000002ec .LVL45
     /tmp/cc0s2oZ4.s:650    .text:00000000000002ac .LFB80
     /tmp/cc0s2oZ4.s:675    .text:00000000000002d4 .LFE80
     /tmp/cc0s2oZ4.s:664    .text:00000000000002c4 .LVL43
     /tmp/cc0s2oZ4.s:3981   .debug_str:0000000000000669 .LASF109
     /tmp/cc0s2oZ4.s:600    .text:000000000000025c .LFB78
     /tmp/cc0s2oZ4.s:642    .text:00000000000002ac .LFE78
     /tmp/cc0s2oZ4.s:3485   .debug_loc:0000000000000095 .LLST16
     /tmp/cc0s2oZ4.s:3503   .debug_loc:00000000000000e1 .LLST17
GAS LISTING /tmp/cc0s2oZ4.s 			page 26


     /tmp/cc0s2oZ4.s:621    .text:0000000000000284 .LVL40
     /tmp/cc0s2oZ4.s:3871   .debug_str:000000000000030e .LASF110
     /tmp/cc0s2oZ4.s:279    .text:00000000000000a4 .LFB76
     /tmp/cc0s2oZ4.s:312    .text:00000000000000e4 .LFE76
     /tmp/cc0s2oZ4.s:3522   .debug_loc:000000000000012e .LLST6
     /tmp/cc0s2oZ4.s:296    .text:00000000000000c4 .LVL17
     /tmp/cc0s2oZ4.s:299    .text:00000000000000d0 .LVL18
     /tmp/cc0s2oZ4.s:3793   .debug_str:00000000000000b2 .LASF111
     /tmp/cc0s2oZ4.s:228    .text:000000000000006c .LFB74
     /tmp/cc0s2oZ4.s:263    .text:00000000000000a4 .LFE74
     /tmp/cc0s2oZ4.s:3540   .debug_loc:000000000000017a .LLST5
     /tmp/cc0s2oZ4.s:251    .text:0000000000000094 .LVL15
     /tmp/cc0s2oZ4.s:566    .text:0000000000000230 .LFB72
     /tmp/cc0s2oZ4.s:594    .text:000000000000025c .LFE72
     /tmp/cc0s2oZ4.s:3554   .debug_loc:00000000000001b3 .LLST15
     /tmp/cc0s2oZ4.s:583    .text:000000000000024c .LVL38
     /tmp/cc0s2oZ4.s:532    .text:0000000000000204 .LFB71
     /tmp/cc0s2oZ4.s:560    .text:0000000000000230 .LFE71
     /tmp/cc0s2oZ4.s:3568   .debug_loc:00000000000001ec .LLST14
     /tmp/cc0s2oZ4.s:549    .text:0000000000000220 .LVL35
     /tmp/cc0s2oZ4.s:3797   .debug_str:00000000000000d4 .LASF112
     /tmp/cc0s2oZ4.s:3815   .debug_str:000000000000014d .LASF113
     /tmp/cc0s2oZ4.s:491    .text:00000000000001cc .LFB69
     /tmp/cc0s2oZ4.s:524    .text:0000000000000204 .LFE69
     /tmp/cc0s2oZ4.s:3582   .debug_loc:0000000000000225 .LLST12
     /tmp/cc0s2oZ4.s:3602   .debug_loc:0000000000000273 .LLST13
     /tmp/cc0s2oZ4.s:512    .text:00000000000001f4 .LVL32
     /tmp/cc0s2oZ4.s:3933   .debug_str:00000000000004f4 .LASF114
     /tmp/cc0s2oZ4.s:460    .text:00000000000001a8 .LFB66
     /tmp/cc0s2oZ4.s:483    .text:00000000000001cc .LFE66
     /tmp/cc0s2oZ4.s:428    .text:0000000000000180 .LFB64
     /tmp/cc0s2oZ4.s:454    .text:00000000000001a8 .LFE64
     /tmp/cc0s2oZ4.s:3929   .debug_str:00000000000004e8 .LASF115
     /tmp/cc0s2oZ4.s:3616   .debug_loc:00000000000002ac .LLST11
     /tmp/cc0s2oZ4.s:443    .text:0000000000000198 .LVL28
     /tmp/cc0s2oZ4.s:397    .text:0000000000000158 .LFB63
     /tmp/cc0s2oZ4.s:422    .text:0000000000000180 .LFE63
     /tmp/cc0s2oZ4.s:411    .text:0000000000000170 .LVL26
     /tmp/cc0s2oZ4.s:359    .text:000000000000011c .LFB62
     /tmp/cc0s2oZ4.s:391    .text:0000000000000158 .LFE62
     /tmp/cc0s2oZ4.s:3630   .debug_loc:00000000000002e5 .LLST10
     /tmp/cc0s2oZ4.s:378    .text:0000000000000144 .LVL25
     /tmp/cc0s2oZ4.s:3899   .debug_str:00000000000003f4 .LASF116
     /tmp/cc0s2oZ4.s:158    .text:0000000000000044 .LFB61
     /tmp/cc0s2oZ4.s:182    .text:000000000000006c .LFE61
     /tmp/cc0s2oZ4.s:3648   .debug_loc:0000000000000331 .LLST2
     /tmp/cc0s2oZ4.s:172    .text:000000000000005c .LVL8
     /tmp/cc0s2oZ4.s:3935   .debug_str:0000000000000503 .LASF117
     /tmp/cc0s2oZ4.s:100    .text:000000000000002c .LFB59
     /tmp/cc0s2oZ4.s:118    .text:0000000000000044 .LFE59
     /tmp/cc0s2oZ4.s:3915   .debug_str:0000000000000475 .LASF118
     /tmp/cc0s2oZ4.s:318    .text:00000000000000e4 .LFB56
     /tmp/cc0s2oZ4.s:351    .text:000000000000011c .LFE56
     /tmp/cc0s2oZ4.s:3662   .debug_loc:000000000000036a .LLST7
     /tmp/cc0s2oZ4.s:3682   .debug_loc:00000000000003b8 .LLST8
     /tmp/cc0s2oZ4.s:3696   .debug_loc:00000000000003f1 .LLST9
     /tmp/cc0s2oZ4.s:339    .text:000000000000010c .LVL22
GAS LISTING /tmp/cc0s2oZ4.s 			page 27


     /tmp/cc0s2oZ4.s:4015   .debug_str:00000000000007ff .LASF119
     /tmp/cc0s2oZ4.s:3863   .debug_str:00000000000002d3 .LASF120
     /tmp/cc0s2oZ4.s:62     .text:0000000000000000 .LFB54
     /tmp/cc0s2oZ4.s:94     .text:000000000000002c .LFE54
     /tmp/cc0s2oZ4.s:3949   .debug_str:0000000000000552 .LASF121
     /tmp/cc0s2oZ4.s:3710   .debug_loc:000000000000042a .LLST0
     /tmp/cc0s2oZ4.s:3724   .debug_loc:0000000000000463 .LLST1
     /tmp/cc0s2oZ4.s:83     .text:000000000000001c .LVL4
     /tmp/cc0s2oZ4.s:37     .text._ZN14PeriodicThread18periodicActivationEv:0000000000000000 .LFB1
     /tmp/cc0s2oZ4.s:55     .text._ZN14PeriodicThread18periodicActivationEv:0000000000000018 .LFE1
     /tmp/cc0s2oZ4.s:11     .text._ZN6Thread3runEv:0000000000000000 .LFB0
     /tmp/cc0s2oZ4.s:30     .text._ZN6Thread3runEv:0000000000000018 .LFE0
     /tmp/cc0s2oZ4.s:4031   .debug_str:00000000000008a8 .LASF122
     /tmp/cc0s2oZ4.s:3939   .debug_str:000000000000051d .LASF123
     /tmp/cc0s2oZ4.s:3979   .debug_str:000000000000065e .LASF124
     /tmp/cc0s2oZ4.s:4053   .debug_str:000000000000094c .LASF125
     /tmp/cc0s2oZ4.s:3945   .debug_str:000000000000053c .LASF126
     /tmp/cc0s2oZ4.s:3827   .debug_str:00000000000001b8 .LASF127
     /tmp/cc0s2oZ4.s:3941   .debug_str:0000000000000527 .LASF128
     /tmp/cc0s2oZ4.s:3983   .debug_str:0000000000000681 .LASF129
     /tmp/cc0s2oZ4.s:4041   .debug_str:00000000000008d5 .LASF130
     /tmp/cc0s2oZ4.s:192    .text._ZN14PeriodicThreadD0Ev:0000000000000000 .LVL9
     /tmp/cc0s2oZ4.s:201    .text._ZN14PeriodicThreadD0Ev:0000000000000010 .LVL10
     /tmp/cc0s2oZ4.s:207    .text._ZN14PeriodicThreadD0Ev:000000000000001c .LVL11
     /tmp/cc0s2oZ4.s:684    .text:00000000000002d4 .LVL44
     /tmp/cc0s2oZ4.s:603    .text:000000000000025c .LVL39
     /tmp/cc0s2oZ4.s:634    .text:00000000000002a0 .LVL41
     /tmp/cc0s2oZ4.s:637    .text:00000000000002a4 .LVL42
     /tmp/cc0s2oZ4.s:282    .text:00000000000000a4 .LVL16
     /tmp/cc0s2oZ4.s:307    .text:00000000000000dc .LVL19
     /tmp/cc0s2oZ4.s:233    .text:000000000000006c .LVL13
     /tmp/cc0s2oZ4.s:249    .text:000000000000008c .LVL14
     /tmp/cc0s2oZ4.s:569    .text:0000000000000230 .LVL36
     /tmp/cc0s2oZ4.s:581    .text:0000000000000244 .LVL37
     /tmp/cc0s2oZ4.s:535    .text:0000000000000204 .LVL33
     /tmp/cc0s2oZ4.s:547    .text:0000000000000218 .LVL34
     /tmp/cc0s2oZ4.s:494    .text:00000000000001cc .LVL30
     /tmp/cc0s2oZ4.s:510    .text:00000000000001ec .LVL31
     /tmp/cc0s2oZ4.s:431    .text:0000000000000180 .LVL27
     /tmp/cc0s2oZ4.s:362    .text:000000000000011c .LVL23
     /tmp/cc0s2oZ4.s:376    .text:000000000000013c .LVL24
     /tmp/cc0s2oZ4.s:161    .text:0000000000000044 .LVL7
     /tmp/cc0s2oZ4.s:321    .text:00000000000000e4 .LVL20
     /tmp/cc0s2oZ4.s:337    .text:0000000000000104 .LVL21
     /tmp/cc0s2oZ4.s:66     .text:0000000000000000 .LVL2
     /tmp/cc0s2oZ4.s:76     .text:0000000000000010 .LVL3
     /tmp/cc0s2oZ4.s:748    .debug_info:0000000000000000 .Ldebug_info0
     /tmp/cc0s2oZ4.s:5      .text:0000000000000000 .Ltext0
     /tmp/cc0s2oZ4.s:743    .text:00000000000002fc .Letext0
     /tmp/cc0s2oZ4.s:266    .gcc_except_table:0000000000000000 .LLSDA74
                           .group:0000000000000000 _ZN14PeriodicThreadD5Ev

UNDEFINED SYMBOLS
_ZdlPv
sem_close
__gxx_personality_v0
thread_create_deactivated
GAS LISTING /tmp/cc0s2oZ4.s 			page 28


thread_create
thread_dispatch
time_sleep
sem_open
sem_wait
sem_signal
