GAS LISTING /tmp/ccNep8h1.s 			page 1


   1              		.file	"syscall_c.cpp"
   2              		.option pic
   3              		.option norelax
   4              		.text
   5              	.Ltext0:
   6              		.align	2
   7              		.globl	_Z13thread_createPP7_threadPFvPvES2_
   9              	_Z13thread_createPP7_threadPFvPvES2_:
  10              	.LFB0:
  11              		.file 1 "src/syscall_c.cpp"
   1:src/syscall_c.cpp **** //
   2:src/syscall_c.cpp **** // Created by os on 9/9/22.
   3:src/syscall_c.cpp **** //
   4:src/syscall_c.cpp **** 
   5:src/syscall_c.cpp **** #include "../h/syscall_c.h"
   6:src/syscall_c.cpp **** #include "../lib/console.h"
   7:src/syscall_c.cpp **** 
   8:src/syscall_c.cpp **** int thread_create(thread_t *handle,void(*start_routine)(void *),void *arg) {
  12              		.loc 1 8 76
  13              		.cfi_startproc
  14              	.LVL0:
  15 0000 130101FF 		addi	sp,sp,-16
  16              		.cfi_def_cfa_offset 16
  17 0004 23348100 		sd	s0,8(sp)
  18              		.cfi_offset 8, -8
  19 0008 13040101 		addi	s0,sp,16
  20              		.cfi_def_cfa 8, 0
   9:src/syscall_c.cpp ****     return 0;
  21              		.loc 1 9 5
  10:src/syscall_c.cpp **** }
  22              		.loc 1 10 1 is_stmt 0
  23 000c 13050000 		li	a0,0
  24              	.LVL1:
  25 0010 03348100 		ld	s0,8(sp)
  26              		.cfi_restore 8
  27              		.cfi_def_cfa 2, 16
  28 0014 13010101 		addi	sp,sp,16
  29              		.cfi_def_cfa_offset 0
  30 0018 67800000 		jr	ra
  31              		.cfi_endproc
  32              	.LFE0:
  34              		.align	2
  35              		.globl	_Z11thread_exitv
  37              	_Z11thread_exitv:
  38              	.LFB1:
  11:src/syscall_c.cpp **** 
  12:src/syscall_c.cpp **** int thread_exit() {
  39              		.loc 1 12 19 is_stmt 1
  40              		.cfi_startproc
  41 001c 130101FF 		addi	sp,sp,-16
  42              		.cfi_def_cfa_offset 16
  43 0020 23348100 		sd	s0,8(sp)
  44              		.cfi_offset 8, -8
  45 0024 13040101 		addi	s0,sp,16
  46              		.cfi_def_cfa 8, 0
  13:src/syscall_c.cpp ****     return 0;
  47              		.loc 1 13 5
GAS LISTING /tmp/ccNep8h1.s 			page 2


  14:src/syscall_c.cpp **** }
  48              		.loc 1 14 1 is_stmt 0
  49 0028 13050000 		li	a0,0
  50 002c 03348100 		ld	s0,8(sp)
  51              		.cfi_restore 8
  52              		.cfi_def_cfa 2, 16
  53 0030 13010101 		addi	sp,sp,16
  54              		.cfi_def_cfa_offset 0
  55 0034 67800000 		jr	ra
  56              		.cfi_endproc
  57              	.LFE1:
  59              		.align	2
  60              		.globl	_Z8sem_openPP4_semj
  62              	_Z8sem_openPP4_semj:
  63              	.LFB2:
  15:src/syscall_c.cpp **** 
  16:src/syscall_c.cpp **** 
  17:src/syscall_c.cpp **** void thread_dispatch();
  18:src/syscall_c.cpp **** 
  19:src/syscall_c.cpp **** int sem_open( sem_t *handle, unsigned init) {
  64              		.loc 1 19 45 is_stmt 1
  65              		.cfi_startproc
  66              	.LVL2:
  67 0038 130101FF 		addi	sp,sp,-16
  68              		.cfi_def_cfa_offset 16
  69 003c 23348100 		sd	s0,8(sp)
  70              		.cfi_offset 8, -8
  71 0040 13040101 		addi	s0,sp,16
  72              		.cfi_def_cfa 8, 0
  20:src/syscall_c.cpp ****     return 0;
  73              		.loc 1 20 5
  21:src/syscall_c.cpp **** }
  74              		.loc 1 21 1 is_stmt 0
  75 0044 13050000 		li	a0,0
  76              	.LVL3:
  77 0048 03348100 		ld	s0,8(sp)
  78              		.cfi_restore 8
  79              		.cfi_def_cfa 2, 16
  80 004c 13010101 		addi	sp,sp,16
  81              		.cfi_def_cfa_offset 0
  82 0050 67800000 		jr	ra
  83              		.cfi_endproc
  84              	.LFE2:
  86              		.align	2
  87              		.globl	_Z9sem_closeP4_sem
  89              	_Z9sem_closeP4_sem:
  90              	.LFB3:
  22:src/syscall_c.cpp **** 
  23:src/syscall_c.cpp **** int sem_close(sem_t handle) {
  91              		.loc 1 23 29 is_stmt 1
  92              		.cfi_startproc
  93              	.LVL4:
  94 0054 130101FF 		addi	sp,sp,-16
  95              		.cfi_def_cfa_offset 16
  96 0058 23348100 		sd	s0,8(sp)
  97              		.cfi_offset 8, -8
  98 005c 13040101 		addi	s0,sp,16
GAS LISTING /tmp/ccNep8h1.s 			page 3


  99              		.cfi_def_cfa 8, 0
  24:src/syscall_c.cpp ****     return 0;
 100              		.loc 1 24 5
  25:src/syscall_c.cpp **** }
 101              		.loc 1 25 1 is_stmt 0
 102 0060 13050000 		li	a0,0
 103              	.LVL5:
 104 0064 03348100 		ld	s0,8(sp)
 105              		.cfi_restore 8
 106              		.cfi_def_cfa 2, 16
 107 0068 13010101 		addi	sp,sp,16
 108              		.cfi_def_cfa_offset 0
 109 006c 67800000 		jr	ra
 110              		.cfi_endproc
 111              	.LFE3:
 113              		.align	2
 114              		.globl	_Z8sem_waitP4_sem
 116              	_Z8sem_waitP4_sem:
 117              	.LFB4:
  26:src/syscall_c.cpp **** 
  27:src/syscall_c.cpp **** int sem_wait(sem_t id){
 118              		.loc 1 27 23 is_stmt 1
 119              		.cfi_startproc
 120              	.LVL6:
 121 0070 130101FF 		addi	sp,sp,-16
 122              		.cfi_def_cfa_offset 16
 123 0074 23348100 		sd	s0,8(sp)
 124              		.cfi_offset 8, -8
 125 0078 13040101 		addi	s0,sp,16
 126              		.cfi_def_cfa 8, 0
  28:src/syscall_c.cpp ****     return 0;
 127              		.loc 1 28 5
  29:src/syscall_c.cpp **** }
 128              		.loc 1 29 1 is_stmt 0
 129 007c 13050000 		li	a0,0
 130              	.LVL7:
 131 0080 03348100 		ld	s0,8(sp)
 132              		.cfi_restore 8
 133              		.cfi_def_cfa 2, 16
 134 0084 13010101 		addi	sp,sp,16
 135              		.cfi_def_cfa_offset 0
 136 0088 67800000 		jr	ra
 137              		.cfi_endproc
 138              	.LFE4:
 140              		.align	2
 141              		.globl	_Z10sem_signalP4_sem
 143              	_Z10sem_signalP4_sem:
 144              	.LFB5:
  30:src/syscall_c.cpp **** 
  31:src/syscall_c.cpp **** int sem_signal(sem_t id){
 145              		.loc 1 31 25 is_stmt 1
 146              		.cfi_startproc
 147              	.LVL8:
 148 008c 130101FF 		addi	sp,sp,-16
 149              		.cfi_def_cfa_offset 16
 150 0090 23348100 		sd	s0,8(sp)
 151              		.cfi_offset 8, -8
GAS LISTING /tmp/ccNep8h1.s 			page 4


 152 0094 13040101 		addi	s0,sp,16
 153              		.cfi_def_cfa 8, 0
  32:src/syscall_c.cpp ****     return 0;
 154              		.loc 1 32 5
  33:src/syscall_c.cpp **** }
 155              		.loc 1 33 1 is_stmt 0
 156 0098 13050000 		li	a0,0
 157              	.LVL9:
 158 009c 03348100 		ld	s0,8(sp)
 159              		.cfi_restore 8
 160              		.cfi_def_cfa 2, 16
 161 00a0 13010101 		addi	sp,sp,16
 162              		.cfi_def_cfa_offset 0
 163 00a4 67800000 		jr	ra
 164              		.cfi_endproc
 165              	.LFE5:
 167              		.align	2
 168              		.globl	_Z10time_sleepm
 170              	_Z10time_sleepm:
 171              	.LFB6:
  34:src/syscall_c.cpp **** 
  35:src/syscall_c.cpp **** int time_sleep(time_t){
 172              		.loc 1 35 23 is_stmt 1
 173              		.cfi_startproc
 174 00a8 130101FF 		addi	sp,sp,-16
 175              		.cfi_def_cfa_offset 16
 176 00ac 23348100 		sd	s0,8(sp)
 177              		.cfi_offset 8, -8
 178 00b0 13040101 		addi	s0,sp,16
 179              		.cfi_def_cfa 8, 0
  36:src/syscall_c.cpp ****     return 0;
 180              		.loc 1 36 5
  37:src/syscall_c.cpp **** }
 181              		.loc 1 37 1 is_stmt 0
 182 00b4 13050000 		li	a0,0
 183 00b8 03348100 		ld	s0,8(sp)
 184              		.cfi_restore 8
 185              		.cfi_def_cfa 2, 16
 186 00bc 13010101 		addi	sp,sp,16
 187              		.cfi_def_cfa_offset 0
 188 00c0 67800000 		jr	ra
 189              		.cfi_endproc
 190              	.LFE6:
 192              		.align	2
 193              		.globl	_Z4getcv
 195              	_Z4getcv:
 196              	.LFB7:
  38:src/syscall_c.cpp **** 
  39:src/syscall_c.cpp **** char getc(){
 197              		.loc 1 39 12 is_stmt 1
 198              		.cfi_startproc
 199 00c4 130101FF 		addi	sp,sp,-16
 200              		.cfi_def_cfa_offset 16
 201 00c8 23341100 		sd	ra,8(sp)
 202 00cc 23308100 		sd	s0,0(sp)
 203              		.cfi_offset 1, -8
 204              		.cfi_offset 8, -16
GAS LISTING /tmp/ccNep8h1.s 			page 5


 205 00d0 13040101 		addi	s0,sp,16
 206              		.cfi_def_cfa 8, 0
  40:src/syscall_c.cpp ****     return __getc();
 207              		.loc 1 40 5
 208              		.loc 1 40 18 is_stmt 0
 209 00d4 97000000 		call	__getc@plt
 209      E7800000 
 210              	.LVL10:
  41:src/syscall_c.cpp **** }
 211              		.loc 1 41 1
 212 00dc 83308100 		ld	ra,8(sp)
 213              		.cfi_restore 1
 214 00e0 03340100 		ld	s0,0(sp)
 215              		.cfi_restore 8
 216              		.cfi_def_cfa 2, 16
 217 00e4 13010101 		addi	sp,sp,16
 218              		.cfi_def_cfa_offset 0
 219 00e8 67800000 		jr	ra
 220              		.cfi_endproc
 221              	.LFE7:
 223              		.align	2
 224              		.globl	_Z4putcc
 226              	_Z4putcc:
 227              	.LFB8:
  42:src/syscall_c.cpp **** 
  43:src/syscall_c.cpp **** void putc(char c) {
 228              		.loc 1 43 19 is_stmt 1
 229              		.cfi_startproc
 230              	.LVL11:
 231 00ec 130101FF 		addi	sp,sp,-16
 232              		.cfi_def_cfa_offset 16
 233 00f0 23341100 		sd	ra,8(sp)
 234 00f4 23308100 		sd	s0,0(sp)
 235              		.cfi_offset 1, -8
 236              		.cfi_offset 8, -16
 237 00f8 13040101 		addi	s0,sp,16
 238              		.cfi_def_cfa 8, 0
  44:src/syscall_c.cpp ****     __putc(c);
 239              		.loc 1 44 5
 240              		.loc 1 44 11 is_stmt 0
 241 00fc 97000000 		call	__putc@plt
 241      E7800000 
 242              	.LVL12:
  45:src/syscall_c.cpp **** }...
 243              		.loc 1 45 1
 244 0104 83308100 		ld	ra,8(sp)
 245              		.cfi_restore 1
 246 0108 03340100 		ld	s0,0(sp)
 247              		.cfi_restore 8
 248              		.cfi_def_cfa 2, 16
 249 010c 13010101 		addi	sp,sp,16
 250              		.cfi_def_cfa_offset 0
 251 0110 67800000 		jr	ra
 252              		.cfi_endproc
 253              	.LFE8:
 255              	.Letext0:
 256              		.file 2 "src/../h/../lib/hw.h"
GAS LISTING /tmp/ccNep8h1.s 			page 6


 257              		.file 3 "src/../h/syscall_c.h"
 258              		.file 4 "src/../lib/console.h"
GAS LISTING /tmp/ccNep8h1.s 			page 7


DEFINED SYMBOLS
                            *ABS*:0000000000000000 syscall_c.cpp
     /tmp/ccNep8h1.s:9      .text:0000000000000000 _Z13thread_createPP7_threadPFvPvES2_
     /tmp/ccNep8h1.s:13     .text:0000000000000000 .L0 
     /tmp/ccNep8h1.s:15     .text:0000000000000000 .L0 
     /tmp/ccNep8h1.s:16     .text:0000000000000004 .L0 
     /tmp/ccNep8h1.s:18     .text:0000000000000008 .L0 
     /tmp/ccNep8h1.s:20     .text:000000000000000c .L0 
     /tmp/ccNep8h1.s:22     .text:000000000000000c .L0 
     /tmp/ccNep8h1.s:23     .text:000000000000000c .L0 
     /tmp/ccNep8h1.s:26     .text:0000000000000014 .L0 
     /tmp/ccNep8h1.s:27     .text:0000000000000014 .L0 
     /tmp/ccNep8h1.s:29     .text:0000000000000018 .L0 
     /tmp/ccNep8h1.s:31     .text:000000000000001c .L0 
     /tmp/ccNep8h1.s:37     .text:000000000000001c _Z11thread_exitv
     /tmp/ccNep8h1.s:40     .text:000000000000001c .L0 
     /tmp/ccNep8h1.s:41     .text:000000000000001c .L0 
     /tmp/ccNep8h1.s:42     .text:0000000000000020 .L0 
     /tmp/ccNep8h1.s:44     .text:0000000000000024 .L0 
     /tmp/ccNep8h1.s:46     .text:0000000000000028 .L0 
     /tmp/ccNep8h1.s:48     .text:0000000000000028 .L0 
     /tmp/ccNep8h1.s:49     .text:0000000000000028 .L0 
     /tmp/ccNep8h1.s:51     .text:0000000000000030 .L0 
     /tmp/ccNep8h1.s:52     .text:0000000000000030 .L0 
     /tmp/ccNep8h1.s:54     .text:0000000000000034 .L0 
     /tmp/ccNep8h1.s:56     .text:0000000000000038 .L0 
     /tmp/ccNep8h1.s:62     .text:0000000000000038 _Z8sem_openPP4_semj
     /tmp/ccNep8h1.s:65     .text:0000000000000038 .L0 
     /tmp/ccNep8h1.s:67     .text:0000000000000038 .L0 
     /tmp/ccNep8h1.s:68     .text:000000000000003c .L0 
     /tmp/ccNep8h1.s:70     .text:0000000000000040 .L0 
     /tmp/ccNep8h1.s:72     .text:0000000000000044 .L0 
     /tmp/ccNep8h1.s:74     .text:0000000000000044 .L0 
     /tmp/ccNep8h1.s:75     .text:0000000000000044 .L0 
     /tmp/ccNep8h1.s:78     .text:000000000000004c .L0 
     /tmp/ccNep8h1.s:79     .text:000000000000004c .L0 
     /tmp/ccNep8h1.s:81     .text:0000000000000050 .L0 
     /tmp/ccNep8h1.s:83     .text:0000000000000054 .L0 
     /tmp/ccNep8h1.s:89     .text:0000000000000054 _Z9sem_closeP4_sem
     /tmp/ccNep8h1.s:92     .text:0000000000000054 .L0 
     /tmp/ccNep8h1.s:94     .text:0000000000000054 .L0 
     /tmp/ccNep8h1.s:95     .text:0000000000000058 .L0 
     /tmp/ccNep8h1.s:97     .text:000000000000005c .L0 
     /tmp/ccNep8h1.s:99     .text:0000000000000060 .L0 
     /tmp/ccNep8h1.s:101    .text:0000000000000060 .L0 
     /tmp/ccNep8h1.s:102    .text:0000000000000060 .L0 
     /tmp/ccNep8h1.s:105    .text:0000000000000068 .L0 
     /tmp/ccNep8h1.s:106    .text:0000000000000068 .L0 
     /tmp/ccNep8h1.s:108    .text:000000000000006c .L0 
     /tmp/ccNep8h1.s:110    .text:0000000000000070 .L0 
     /tmp/ccNep8h1.s:116    .text:0000000000000070 _Z8sem_waitP4_sem
     /tmp/ccNep8h1.s:119    .text:0000000000000070 .L0 
     /tmp/ccNep8h1.s:121    .text:0000000000000070 .L0 
     /tmp/ccNep8h1.s:122    .text:0000000000000074 .L0 
     /tmp/ccNep8h1.s:124    .text:0000000000000078 .L0 
     /tmp/ccNep8h1.s:126    .text:000000000000007c .L0 
     /tmp/ccNep8h1.s:128    .text:000000000000007c .L0 
GAS LISTING /tmp/ccNep8h1.s 			page 8


     /tmp/ccNep8h1.s:129    .text:000000000000007c .L0 
     /tmp/ccNep8h1.s:132    .text:0000000000000084 .L0 
     /tmp/ccNep8h1.s:133    .text:0000000000000084 .L0 
     /tmp/ccNep8h1.s:135    .text:0000000000000088 .L0 
     /tmp/ccNep8h1.s:137    .text:000000000000008c .L0 
     /tmp/ccNep8h1.s:143    .text:000000000000008c _Z10sem_signalP4_sem
     /tmp/ccNep8h1.s:146    .text:000000000000008c .L0 
     /tmp/ccNep8h1.s:148    .text:000000000000008c .L0 
     /tmp/ccNep8h1.s:149    .text:0000000000000090 .L0 
     /tmp/ccNep8h1.s:151    .text:0000000000000094 .L0 
     /tmp/ccNep8h1.s:153    .text:0000000000000098 .L0 
     /tmp/ccNep8h1.s:155    .text:0000000000000098 .L0 
     /tmp/ccNep8h1.s:156    .text:0000000000000098 .L0 
     /tmp/ccNep8h1.s:159    .text:00000000000000a0 .L0 
     /tmp/ccNep8h1.s:160    .text:00000000000000a0 .L0 
     /tmp/ccNep8h1.s:162    .text:00000000000000a4 .L0 
     /tmp/ccNep8h1.s:164    .text:00000000000000a8 .L0 
     /tmp/ccNep8h1.s:170    .text:00000000000000a8 _Z10time_sleepm
     /tmp/ccNep8h1.s:173    .text:00000000000000a8 .L0 
     /tmp/ccNep8h1.s:174    .text:00000000000000a8 .L0 
     /tmp/ccNep8h1.s:175    .text:00000000000000ac .L0 
     /tmp/ccNep8h1.s:177    .text:00000000000000b0 .L0 
     /tmp/ccNep8h1.s:179    .text:00000000000000b4 .L0 
     /tmp/ccNep8h1.s:181    .text:00000000000000b4 .L0 
     /tmp/ccNep8h1.s:182    .text:00000000000000b4 .L0 
     /tmp/ccNep8h1.s:184    .text:00000000000000bc .L0 
     /tmp/ccNep8h1.s:185    .text:00000000000000bc .L0 
     /tmp/ccNep8h1.s:187    .text:00000000000000c0 .L0 
     /tmp/ccNep8h1.s:189    .text:00000000000000c4 .L0 
     /tmp/ccNep8h1.s:195    .text:00000000000000c4 _Z4getcv
     /tmp/ccNep8h1.s:198    .text:00000000000000c4 .L0 
     /tmp/ccNep8h1.s:199    .text:00000000000000c4 .L0 
     /tmp/ccNep8h1.s:200    .text:00000000000000c8 .L0 
     /tmp/ccNep8h1.s:203    .text:00000000000000d0 .L0 
     /tmp/ccNep8h1.s:204    .text:00000000000000d0 .L0 
     /tmp/ccNep8h1.s:206    .text:00000000000000d4 .L0 
     /tmp/ccNep8h1.s:208    .text:00000000000000d4 .L0 
     /tmp/ccNep8h1.s:209    .text:00000000000000d4 .L0 
     /tmp/ccNep8h1.s:212    .text:00000000000000dc .L0 
     /tmp/ccNep8h1.s:213    .text:00000000000000e0 .L0 
     /tmp/ccNep8h1.s:215    .text:00000000000000e4 .L0 
     /tmp/ccNep8h1.s:216    .text:00000000000000e4 .L0 
     /tmp/ccNep8h1.s:218    .text:00000000000000e8 .L0 
     /tmp/ccNep8h1.s:220    .text:00000000000000ec .L0 
     /tmp/ccNep8h1.s:226    .text:00000000000000ec _Z4putcc
     /tmp/ccNep8h1.s:229    .text:00000000000000ec .L0 
     /tmp/ccNep8h1.s:231    .text:00000000000000ec .L0 
     /tmp/ccNep8h1.s:232    .text:00000000000000f0 .L0 
     /tmp/ccNep8h1.s:235    .text:00000000000000f8 .L0 
     /tmp/ccNep8h1.s:236    .text:00000000000000f8 .L0 
     /tmp/ccNep8h1.s:238    .text:00000000000000fc .L0 
     /tmp/ccNep8h1.s:240    .text:00000000000000fc .L0 
     /tmp/ccNep8h1.s:241    .text:00000000000000fc .L0 
     /tmp/ccNep8h1.s:244    .text:0000000000000104 .L0 
     /tmp/ccNep8h1.s:245    .text:0000000000000108 .L0 
     /tmp/ccNep8h1.s:247    .text:000000000000010c .L0 
     /tmp/ccNep8h1.s:248    .text:000000000000010c .L0 
GAS LISTING /tmp/ccNep8h1.s 			page 9


     /tmp/ccNep8h1.s:250    .text:0000000000000110 .L0 
     /tmp/ccNep8h1.s:252    .text:0000000000000114 .L0 
     /tmp/ccNep8h1.s:259    .text:0000000000000114 .L0 
     /tmp/ccNep8h1.s:646    .debug_abbrev:0000000000000000 .Ldebug_abbrev0
     /tmp/ccNep8h1.s:1166   .debug_str:000000000000015e .LASF42
     /tmp/ccNep8h1.s:1208   .debug_str:000000000000032c .LASF43
     /tmp/ccNep8h1.s:1204   .debug_str:0000000000000300 .LASF44
     /tmp/ccNep8h1.s:5      .text:0000000000000000 .Ltext0
     /tmp/ccNep8h1.s:255    .text:0000000000000114 .Letext0
     /tmp/ccNep8h1.s:1112   .debug_line:0000000000000000 .Ldebug_line0
     /tmp/ccNep8h1.s:1172   .debug_str:0000000000000230 .LASF0
     /tmp/ccNep8h1.s:1154   .debug_str:0000000000000116 .LASF1
     /tmp/ccNep8h1.s:1144   .debug_str:00000000000000de .LASF2
     /tmp/ccNep8h1.s:1126   .debug_str:0000000000000047 .LASF4
     /tmp/ccNep8h1.s:1152   .debug_str:0000000000000104 .LASF3
     /tmp/ccNep8h1.s:1116   .debug_str:0000000000000013 .LASF5
     /tmp/ccNep8h1.s:1180   .debug_str:0000000000000262 .LASF6
     /tmp/ccNep8h1.s:1114   .debug_str:0000000000000000 .LASF7
     /tmp/ccNep8h1.s:1138   .debug_str:00000000000000a8 .LASF8
     /tmp/ccNep8h1.s:1182   .debug_str:0000000000000269 .LASF9
     /tmp/ccNep8h1.s:1124   .debug_str:0000000000000039 .LASF10
     /tmp/ccNep8h1.s:1210   .debug_str:000000000000033e .LASF11
     /tmp/ccNep8h1.s:1140   .debug_str:00000000000000bb .LASF12
     /tmp/ccNep8h1.s:1200   .debug_str:00000000000002e4 .LASF13
     /tmp/ccNep8h1.s:1188   .debug_str:0000000000000298 .LASF14
     /tmp/ccNep8h1.s:1158   .debug_str:0000000000000132 .LASF15
     /tmp/ccNep8h1.s:1134   .debug_str:000000000000006d .LASF16
     /tmp/ccNep8h1.s:1184   .debug_str:0000000000000279 .LASF17
     /tmp/ccNep8h1.s:1186   .debug_str:000000000000028f .LASF18
     /tmp/ccNep8h1.s:1192   .debug_str:00000000000002ad .LASF20
     /tmp/ccNep8h1.s:1122   .debug_str:0000000000000033 .LASF19
     /tmp/ccNep8h1.s:1168   .debug_str:0000000000000222 .LASF21
     /tmp/ccNep8h1.s:1190   .debug_str:00000000000002a8 .LASF45
     /tmp/ccNep8h1.s:1156   .debug_str:0000000000000129 .LASF46
     /tmp/ccNep8h1.s:227    .text:00000000000000ec .LFB8
     /tmp/ccNep8h1.s:253    .text:0000000000000114 .LFE8
     /tmp/ccNep8h1.s:1015   .debug_loc:0000000000000000 .LLST5
     /tmp/ccNep8h1.s:242    .text:0000000000000104 .LVL12
     /tmp/ccNep8h1.s:1176   .debug_str:0000000000000248 .LASF22
     /tmp/ccNep8h1.s:1146   .debug_str:00000000000000ec .LASF23
     /tmp/ccNep8h1.s:1206   .debug_str:0000000000000323 .LASF25
     /tmp/ccNep8h1.s:196    .text:00000000000000c4 .LFB7
     /tmp/ccNep8h1.s:221    .text:00000000000000ec .LFE7
     /tmp/ccNep8h1.s:210    .text:00000000000000dc .LVL10
     /tmp/ccNep8h1.s:1174   .debug_str:000000000000023d .LASF24
     /tmp/ccNep8h1.s:1194   .debug_str:00000000000002b5 .LASF26
     /tmp/ccNep8h1.s:171    .text:00000000000000a8 .LFB6
     /tmp/ccNep8h1.s:190    .text:00000000000000c4 .LFE6
     /tmp/ccNep8h1.s:1162   .debug_str:0000000000000145 .LASF27
     /tmp/ccNep8h1.s:1178   .debug_str:000000000000024d .LASF28
     /tmp/ccNep8h1.s:144    .text:000000000000008c .LFB5
     /tmp/ccNep8h1.s:165    .text:00000000000000a8 .LFE5
     /tmp/ccNep8h1.s:1029   .debug_loc:0000000000000039 .LLST4
     /tmp/ccNep8h1.s:1170   .debug_str:0000000000000227 .LASF29
     /tmp/ccNep8h1.s:1120   .debug_str:0000000000000021 .LASF30
     /tmp/ccNep8h1.s:117    .text:0000000000000070 .LFB4
     /tmp/ccNep8h1.s:138    .text:000000000000008c .LFE4
GAS LISTING /tmp/ccNep8h1.s 			page 10


     /tmp/ccNep8h1.s:1043   .debug_loc:0000000000000072 .LLST3
     /tmp/ccNep8h1.s:1150   .debug_str:00000000000000fa .LASF31
     /tmp/ccNep8h1.s:1128   .debug_str:000000000000004e .LASF32
     /tmp/ccNep8h1.s:90     .text:0000000000000054 .LFB3
     /tmp/ccNep8h1.s:111    .text:0000000000000070 .LFE3
     /tmp/ccNep8h1.s:1160   .debug_str:000000000000013e .LASF33
     /tmp/ccNep8h1.s:1057   .debug_loc:00000000000000ab .LLST2
     /tmp/ccNep8h1.s:1148   .debug_str:00000000000000f1 .LASF34
     /tmp/ccNep8h1.s:1142   .debug_str:00000000000000ca .LASF35
     /tmp/ccNep8h1.s:63     .text:0000000000000038 .LFB2
     /tmp/ccNep8h1.s:84     .text:0000000000000054 .LFE2
     /tmp/ccNep8h1.s:1071   .debug_loc:00000000000000e4 .LLST1
     /tmp/ccNep8h1.s:1132   .debug_str:0000000000000068 .LASF36
     /tmp/ccNep8h1.s:1202   .debug_str:00000000000002f4 .LASF47
     /tmp/ccNep8h1.s:1198   .debug_str:00000000000002d3 .LASF48
     /tmp/ccNep8h1.s:38     .text:000000000000001c .LFB1
     /tmp/ccNep8h1.s:57     .text:0000000000000038 .LFE1
     /tmp/ccNep8h1.s:1196   .debug_str:00000000000002c5 .LASF37
     /tmp/ccNep8h1.s:1136   .debug_str:0000000000000083 .LASF38
     /tmp/ccNep8h1.s:10     .text:0000000000000000 .LFB0
     /tmp/ccNep8h1.s:32     .text:000000000000001c .LFE0
     /tmp/ccNep8h1.s:1085   .debug_loc:000000000000011d .LLST0
     /tmp/ccNep8h1.s:1164   .debug_str:0000000000000150 .LASF39
     /tmp/ccNep8h1.s:1118   .debug_str:000000000000001a .LASF40
     /tmp/ccNep8h1.s:1130   .debug_str:0000000000000061 .LASF41
     /tmp/ccNep8h1.s:230    .text:00000000000000ec .LVL11
     /tmp/ccNep8h1.s:147    .text:000000000000008c .LVL8
     /tmp/ccNep8h1.s:157    .text:000000000000009c .LVL9
     /tmp/ccNep8h1.s:120    .text:0000000000000070 .LVL6
     /tmp/ccNep8h1.s:130    .text:0000000000000080 .LVL7
     /tmp/ccNep8h1.s:93     .text:0000000000000054 .LVL4
     /tmp/ccNep8h1.s:103    .text:0000000000000064 .LVL5
     /tmp/ccNep8h1.s:66     .text:0000000000000038 .LVL2
     /tmp/ccNep8h1.s:76     .text:0000000000000048 .LVL3
     /tmp/ccNep8h1.s:14     .text:0000000000000000 .LVL0
     /tmp/ccNep8h1.s:24     .text:0000000000000010 .LVL1
     /tmp/ccNep8h1.s:260    .debug_info:0000000000000000 .Ldebug_info0

UNDEFINED SYMBOLS
__getc
__putc
