GAS LISTING /tmp/ccAJvi74.s 			page 1


   1              		.file	"tcb.cpp"
   2              		.option pic
   3              		.option norelax
   4              		.text
   5              	.Ltext0:
   6              		.align	2
   7              		.globl	_ZN3TCB13threadWrapperEv
   9              	_ZN3TCB13threadWrapperEv:
  10              	.LFB58:
  11              		.file 1 "src/tcb.cpp"
   1:src/tcb.cpp   **** //
   2:src/tcb.cpp   **** // Created by os on 9/9/22.
   3:src/tcb.cpp   **** //
   4:src/tcb.cpp   **** 
   5:src/tcb.cpp   **** #include "../h/tcb.hpp"
   6:src/tcb.cpp   **** #include "../h/syscall_c.h"
   7:src/tcb.cpp   **** #include "../h/scheduler.hpp"
   8:src/tcb.cpp   **** 
   9:src/tcb.cpp   **** TCB *TCB::running = nullptr;
  10:src/tcb.cpp   **** 
  11:src/tcb.cpp   **** uint64 TCB::timeSliceCounter = 0;
  12:src/tcb.cpp   **** 
  13:src/tcb.cpp   **** TCB *TCB::createTCB(TCB::Body body, void *args) {
  14:src/tcb.cpp   ****     return new TCB(body, args, DEFAULT_TIME_SLICE, 1, 0);
  15:src/tcb.cpp   **** }
  16:src/tcb.cpp   **** 
  17:src/tcb.cpp   **** TCB *TCB::createDeactivatedTCB(TCB::Body body, void *args) {
  18:src/tcb.cpp   ****     return new TCB(body, args, DEFAULT_TIME_SLICE, 0, 0);
  19:src/tcb.cpp   **** }
  20:src/tcb.cpp   **** 
  21:src/tcb.cpp   **** TCB *TCB::createSupervisorTCB(TCB::Body body, void *args) {
  22:src/tcb.cpp   ****     return new TCB
  23:src/tcb.cpp   ****     (body, args,DEFAULT_TIME_SLICE, true, true);
  24:src/tcb.cpp   **** }
  25:src/tcb.cpp   **** 
  26:src/tcb.cpp   **** TCB::TCB(Body body, void* args, uint64 timeSlice, bool ready, bool supervisor)
  27:src/tcb.cpp   **** : body(body),
  28:src/tcb.cpp   **** args(args),
  29:src/tcb.cpp   **** stack(body != nullptr ? (uint64*)MemoryAllocator::allocate(sizeof(uint64) * DEFAULT_STACK_SIZE) : n
  30:src/tcb.cpp   **** finished(false),
  31:src/tcb.cpp   **** blocked(false),
  32:src/tcb.cpp   **** timeSlice(timeSlice),
  33:src/tcb.cpp   **** context({
  34:src/tcb.cpp   ****     body != nullptr ? (uint64) (supervisor ? &sThreadWrapper : &threadWrapper) : 0,
  35:src/tcb.cpp   ****     stack != nullptr ? (uint64) &stack[DEFAULT_STACK_SIZE] : 0
  36:src/tcb.cpp   ****         })
  37:src/tcb.cpp   **** {
  38:src/tcb.cpp   ****     if (body != nullptr && ready) Scheduler::put(this);
  39:src/tcb.cpp   **** }
  40:src/tcb.cpp   **** 
  41:src/tcb.cpp   **** 
  42:src/tcb.cpp   **** void TCB::dispatch() {
  43:src/tcb.cpp   ****     TCB *old = running;
  44:src/tcb.cpp   ****     if (!old->isFinished() && !old->isBlocked()) { Scheduler::put(old); }
  45:src/tcb.cpp   ****     running = Scheduler::get();
  46:src/tcb.cpp   **** 
  47:src/tcb.cpp   ****     TCB::contextSwitch(&old->context, &running->context);
GAS LISTING /tmp/ccAJvi74.s 			page 2


  48:src/tcb.cpp   **** }
  49:src/tcb.cpp   **** 
  50:src/tcb.cpp   **** void TCB::threadWrapper() {
  12              		.loc 1 50 27
  13              		.cfi_startproc
  14 0000 130101FF 		addi	sp,sp,-16
  15              		.cfi_def_cfa_offset 16
  16 0004 23341100 		sd	ra,8(sp)
  17 0008 23308100 		sd	s0,0(sp)
  18              		.cfi_offset 1, -8
  19              		.cfi_offset 8, -16
  20 000c 13040101 		addi	s0,sp,16
  21              		.cfi_def_cfa 8, 0
  51:src/tcb.cpp   ****     RiscV::popSppSpie();
  22              		.loc 1 51 5
  23              		.loc 1 51 22 is_stmt 0
  24 0010 97000000 		call	_ZN5RiscV10popSppSpieEv@plt
  24      E7800000 
  25              	.LVL0:
  52:src/tcb.cpp   ****     running->body(running->args);
  26              		.loc 1 52 5 is_stmt 1
  27              		.loc 1 52 14 is_stmt 0
  28 0018 97070000 		ld	a5,.LANCHOR0
  28      83B70700 
  29 0020 03B70700 		ld	a4,0(a5)
  30              		.loc 1 52 18
  31 0024 03B58700 		ld	a0,8(a5)
  32 0028 E7000700 		jalr	a4
  33              	.LVL1:
  53:src/tcb.cpp   ****     //running->setFinished(true);
  54:src/tcb.cpp   ****     thread_exit();
  34              		.loc 1 54 5 is_stmt 1
  35              		.loc 1 54 16 is_stmt 0
  36 002c 97000000 		call	thread_exit@plt
  36      E7800000 
  37              	.LVL2:
  55:src/tcb.cpp   ****     //thread_dispatch();
  56:src/tcb.cpp   **** }
  38              		.loc 1 56 1
  39 0034 83308100 		ld	ra,8(sp)
  40              		.cfi_restore 1
  41 0038 03340100 		ld	s0,0(sp)
  42              		.cfi_restore 8
  43              		.cfi_def_cfa 2, 16
  44 003c 13010101 		addi	sp,sp,16
  45              		.cfi_def_cfa_offset 0
  46 0040 67800000 		jr	ra
  47              		.cfi_endproc
  48              	.LFE58:
  50              		.align	2
  51              		.globl	_ZN3TCBC2EPFvPvES0_mbb
  53              	_ZN3TCBC2EPFvPvES0_mbb:
  54              	.LFB55:
  26:src/tcb.cpp   **** : body(body),
  55              		.loc 1 26 1 is_stmt 1
  56              		.cfi_startproc
  57              	.LVL3:
GAS LISTING /tmp/ccAJvi74.s 			page 3


  58 0044 130101FC 		addi	sp,sp,-64
  59              		.cfi_def_cfa_offset 64
  60 0048 233C1102 		sd	ra,56(sp)
  61 004c 23388102 		sd	s0,48(sp)
  62 0050 23349102 		sd	s1,40(sp)
  63 0054 23302103 		sd	s2,32(sp)
  64 0058 233C3101 		sd	s3,24(sp)
  65 005c 23384101 		sd	s4,16(sp)
  66 0060 23345101 		sd	s5,8(sp)
  67              		.cfi_offset 1, -8
  68              		.cfi_offset 8, -16
  69              		.cfi_offset 9, -24
  70              		.cfi_offset 18, -32
  71              		.cfi_offset 19, -40
  72              		.cfi_offset 20, -48
  73              		.cfi_offset 21, -56
  74 0064 13040104 		addi	s0,sp,64
  75              		.cfi_def_cfa 8, 0
  76 0068 93040500 		mv	s1,a0
  77 006c 13890500 		mv	s2,a1
  78 0070 93890600 		mv	s3,a3
  79 0074 130A0700 		mv	s4,a4
  80 0078 938A0700 		mv	s5,a5
  81              	.LBB26:
  36:src/tcb.cpp   **** {
  82              		.loc 1 36 10 is_stmt 0
  83 007c 2330B500 		sd	a1,0(a0)
  84 0080 2334C500 		sd	a2,8(a0)
  29:src/tcb.cpp   **** finished(false),
  85              		.loc 1 29 23
  86 0084 63880506 		beqz	a1,.L9
  29:src/tcb.cpp   **** finished(false),
  87              		.loc 1 29 59 discriminator 1
  88 0088 37850000 		li	a0,32768
  89              	.LVL4:
  90 008c 97000000 		call	_ZN15MemoryAllocator8allocateEm@plt
  90      E7800000 
  91              	.LVL5:
  92              	.L4:
  36:src/tcb.cpp   **** {
  93              		.loc 1 36 10
  94 0094 23B8A400 		sd	a0,16(s1)
  95 0098 238C0400 		sb	zero,24(s1)
  96 009c A38C0400 		sb	zero,25(s1)
  97 00a0 23B03403 		sd	s3,32(s1)
  34:src/tcb.cpp   ****     stack != nullptr ? (uint64) &stack[DEFAULT_STACK_SIZE] : 0
  98              		.loc 1 34 21
  99 00a4 63020906 		beqz	s2,.L10
  34:src/tcb.cpp   ****     stack != nullptr ? (uint64) &stack[DEFAULT_STACK_SIZE] : 0
 100              		.loc 1 34 21 discriminator 1
 101 00a8 638A0A04 		beqz	s5,.L11
  34:src/tcb.cpp   ****     stack != nullptr ? (uint64) &stack[DEFAULT_STACK_SIZE] : 0
 102              		.loc 1 34 21
 103 00ac 97070000 		lla	a5,_ZN3TCB14sThreadWrapperEv
 103      93870700 
 104              	.L5:
  36:src/tcb.cpp   **** {
GAS LISTING /tmp/ccAJvi74.s 			page 4


 105              		.loc 1 36 10
 106 00b4 23B4F402 		sd	a5,40(s1)
  35:src/tcb.cpp   ****         })
 107              		.loc 1 35 22
 108 00b8 630C0504 		beqz	a0,.L12
  35:src/tcb.cpp   ****         })
 109              		.loc 1 35 33 discriminator 1
 110 00bc B7870000 		li	a5,32768
 111 00c0 3305F500 		add	a0,a0,a5
 112              	.L7:
  36:src/tcb.cpp   **** {
 113              		.loc 1 36 10
 114 00c4 23B8A402 		sd	a0,48(s1)
  38:src/tcb.cpp   **** }
 115              		.loc 1 38 5 is_stmt 1
 116 00c8 63040900 		beqz	s2,.L3
  38:src/tcb.cpp   **** }
 117              		.loc 1 38 25 is_stmt 0 discriminator 1
 118 00cc 63160A04 		bnez	s4,.L14
 119              	.L3:
 120              	.LBE26:
  39:src/tcb.cpp   **** 
 121              		.loc 1 39 1
 122 00d0 83308103 		ld	ra,56(sp)
 123              		.cfi_remember_state
 124              		.cfi_restore 1
 125 00d4 03340103 		ld	s0,48(sp)
 126              		.cfi_restore 8
 127              		.cfi_def_cfa 2, 64
 128 00d8 83348102 		ld	s1,40(sp)
 129              		.cfi_restore 9
 130              	.LVL6:
 131 00dc 03390102 		ld	s2,32(sp)
 132              		.cfi_restore 18
 133              	.LVL7:
 134 00e0 83398101 		ld	s3,24(sp)
 135              		.cfi_restore 19
 136              	.LVL8:
 137 00e4 033A0101 		ld	s4,16(sp)
 138              		.cfi_restore 20
 139 00e8 833A8100 		ld	s5,8(sp)
 140              		.cfi_restore 21
 141 00ec 13010104 		addi	sp,sp,64
 142              		.cfi_def_cfa_offset 0
 143 00f0 67800000 		jr	ra
 144              	.LVL9:
 145              	.L9:
 146              		.cfi_restore_state
 147              	.LBB27:
  29:src/tcb.cpp   **** finished(false),
 148              		.loc 1 29 23
 149 00f4 13050000 		li	a0,0
 150 00f8 6FF0DFF9 		j	.L4
 151              	.LVL10:
 152              	.L11:
  34:src/tcb.cpp   ****     stack != nullptr ? (uint64) &stack[DEFAULT_STACK_SIZE] : 0
 153              		.loc 1 34 21
GAS LISTING /tmp/ccAJvi74.s 			page 5


 154 00fc 97070000 		lla	a5,_ZN3TCB13threadWrapperEv
 154      93870700 
 155 0104 6FF01FFB 		j	.L5
 156              	.L10:
 157 0108 93070000 		li	a5,0
 158 010c 6FF09FFA 		j	.L5
 159              	.L12:
  35:src/tcb.cpp   ****         })
 160              		.loc 1 35 22
 161 0110 13050000 		li	a0,0
 162 0114 6FF01FFB 		j	.L7
 163              	.L14:
  38:src/tcb.cpp   **** }
 164              		.loc 1 38 35 is_stmt 1 discriminator 2
  38:src/tcb.cpp   **** }
 165              		.loc 1 38 49 is_stmt 0 discriminator 2
 166 0118 13850400 		mv	a0,s1
 167 011c 97000000 		call	_ZN9Scheduler3putEP3TCB@plt
 167      E7800000 
 168              	.LVL11:
 169              	.LBE27:
  39:src/tcb.cpp   **** 
 170              		.loc 1 39 1 discriminator 2
 171 0124 6FF0DFFA 		j	.L3
 172              		.cfi_endproc
 173              	.LFE55:
 175              		.globl	_ZN3TCBC1EPFvPvES0_mbb
 176              		.set	_ZN3TCBC1EPFvPvES0_mbb,_ZN3TCBC2EPFvPvES0_mbb
 177              		.align	2
 178              		.globl	_ZN3TCB9createTCBEPFvPvES0_
 180              	_ZN3TCB9createTCBEPFvPvES0_:
 181              	.LFB51:
  13:src/tcb.cpp   ****     return new TCB(body, args, DEFAULT_TIME_SLICE, 1, 0);
 182              		.loc 1 13 49 is_stmt 1
 183              		.cfi_startproc
 184              		.cfi_personality 0x9b,DW.ref.__gxx_personality_v0
 185              		.cfi_lsda 0x1b,.LLSDA51
 186              	.LVL12:
 187 0128 130101FD 		addi	sp,sp,-48
 188              		.cfi_def_cfa_offset 48
 189 012c 23341102 		sd	ra,40(sp)
 190 0130 23308102 		sd	s0,32(sp)
 191 0134 233C9100 		sd	s1,24(sp)
 192 0138 23382101 		sd	s2,16(sp)
 193 013c 23343101 		sd	s3,8(sp)
 194              		.cfi_offset 1, -8
 195              		.cfi_offset 8, -16
 196              		.cfi_offset 9, -24
 197              		.cfi_offset 18, -32
 198              		.cfi_offset 19, -40
 199 0140 13040103 		addi	s0,sp,48
 200              		.cfi_def_cfa 8, 0
 201 0144 13090500 		mv	s2,a0
 202 0148 93890500 		mv	s3,a1
  14:src/tcb.cpp   **** }
 203              		.loc 1 14 5
 204              	.LVL13:
GAS LISTING /tmp/ccAJvi74.s 			page 6


 205              	.LBB28:
 206              	.LBB29:
 207              		.file 2 "src/../h/tcb.hpp"
   1:src/../h/tcb.hpp **** //
   2:src/../h/tcb.hpp **** // Created by os on 9/9/22.
   3:src/../h/tcb.hpp **** //
   4:src/../h/tcb.hpp **** 
   5:src/../h/tcb.hpp **** #ifndef OSMIUM_TCB_HPP
   6:src/../h/tcb.hpp **** #define OSMIUM_TCB_HPP
   7:src/../h/tcb.hpp **** 
   8:src/../h/tcb.hpp **** #include "../lib/hw.h"
   9:src/../h/tcb.hpp **** //#include "../h/scheduler.hpp"
  10:src/../h/tcb.hpp **** #include "riscv.hpp"
  11:src/../h/tcb.hpp **** #include "memory_allocator.hpp"
  12:src/../h/tcb.hpp **** 
  13:src/../h/tcb.hpp **** class Scheduler;
  14:src/../h/tcb.hpp **** 
  15:src/../h/tcb.hpp **** 
  16:src/../h/tcb.hpp **** class TCB {
  17:src/../h/tcb.hpp **** public:
  18:src/../h/tcb.hpp ****     using Body = void (*)(void*);
  19:src/../h/tcb.hpp **** 
  20:src/../h/tcb.hpp ****     static TCB* createTCB(Body body, void* args);
  21:src/../h/tcb.hpp **** 
  22:src/../h/tcb.hpp ****     static TCB* createDeactivatedTCB(Body body, void* args);
  23:src/../h/tcb.hpp **** 
  24:src/../h/tcb.hpp ****     static TCB* createSupervisorTCB(Body body, void* args);
  25:src/../h/tcb.hpp **** 
  26:src/../h/tcb.hpp ****     bool isFinished() const { bool ret = finished; return ret; }
  27:src/../h/tcb.hpp **** 
  28:src/../h/tcb.hpp ****     void setFinished(bool val) { finished = val; }
  29:src/../h/tcb.hpp **** 
  30:src/../h/tcb.hpp ****     bool isBlocked() const { return blocked; }
  31:src/../h/tcb.hpp **** 
  32:src/../h/tcb.hpp ****     void setBlocked(bool val) { blocked = val; }
  33:src/../h/tcb.hpp **** 
  34:src/../h/tcb.hpp ****     uint64 getTimeSlice() const { return timeSlice; }
  35:src/../h/tcb.hpp **** 
  36:src/../h/tcb.hpp ****     static TCB* running;
  37:src/../h/tcb.hpp **** 
  38:src/../h/tcb.hpp ****     //static void yield();
  39:src/../h/tcb.hpp **** 
  40:src/../h/tcb.hpp ****     static void dispatch();
  41:src/../h/tcb.hpp **** 
  42:src/../h/tcb.hpp ****     static void incTimeSliceCounter() { timeSliceCounter++; }
  43:src/../h/tcb.hpp ****     static uint64 getTimeSliceCounter() { return timeSliceCounter; }
  44:src/../h/tcb.hpp ****     static void resetTimeSliceCounter() { timeSliceCounter = 0; }
  45:src/../h/tcb.hpp **** 
  46:src/../h/tcb.hpp ****     ~TCB() { MemoryAllocator::free(stack); }
  47:src/../h/tcb.hpp **** 
  48:src/../h/tcb.hpp ****     void* operator new(size_t size) {
  49:src/../h/tcb.hpp ****         return MemoryAllocator::allocate(size);
 208              		.loc 2 49 9
 209              		.loc 2 49 41 is_stmt 0
 210 014c 13058003 		li	a0,56
 211              	.LVL14:
 212              	.LEHB0:
GAS LISTING /tmp/ccAJvi74.s 			page 7


 213 0150 97000000 		call	_ZN15MemoryAllocator8allocateEm@plt
 213      E7800000 
 214              	.LVL15:
 215              	.LEHE0:
 216 0158 93040500 		mv	s1,a0
 217              	.LVL16:
 218              	.LBE29:
 219              	.LBE28:
  14:src/tcb.cpp   **** }
 220              		.loc 1 14 56
 221 015c 93070000 		li	a5,0
 222 0160 13071000 		li	a4,1
 223 0164 93062000 		li	a3,2
 224 0168 13860900 		mv	a2,s3
 225 016c 93050900 		mv	a1,s2
 226              	.LEHB1:
 227 0170 97000000 		call	_ZN3TCBC1EPFvPvES0_mbb
 227      E7800000 
 228              	.LVL17:
 229              	.LEHE1:
 230 0178 6F000002 		j	.L20
 231              	.L17:
 232 017c 13090500 		mv	s2,a0
 233              	.LVL18:
 234              	.LBB30:
 235              	.LBB31:
  50:src/../h/tcb.hpp ****     }
  51:src/../h/tcb.hpp **** 
  52:src/../h/tcb.hpp ****     void* operator new[](size_t size) {
  53:src/../h/tcb.hpp ****         return MemoryAllocator::allocate(size);
  54:src/../h/tcb.hpp ****     }
  55:src/../h/tcb.hpp **** 
  56:src/../h/tcb.hpp ****     void operator delete(void* ptr) {
  57:src/../h/tcb.hpp ****         MemoryAllocator::free(ptr);
 236              		.loc 2 57 9 is_stmt 1
 237              		.loc 2 57 30 is_stmt 0
 238 0180 13850400 		mv	a0,s1
 239 0184 97000000 		call	_ZN15MemoryAllocator4freeEPv@plt
 239      E7800000 
 240              	.LVL19:
 241 018c 13050900 		mv	a0,s2
 242              	.LEHB2:
 243 0190 97000000 		call	_Unwind_Resume@plt
 243      E7800000 
 244              	.LVL20:
 245              	.LEHE2:
 246              	.L20:
 247              	.LBE31:
 248              	.LBE30:
  15:src/tcb.cpp   **** 
 249              		.loc 1 15 1
 250 0198 13850400 		mv	a0,s1
 251 019c 83308102 		ld	ra,40(sp)
 252              		.cfi_restore 1
 253 01a0 03340102 		ld	s0,32(sp)
 254              		.cfi_restore 8
 255              		.cfi_def_cfa 2, 48
GAS LISTING /tmp/ccAJvi74.s 			page 8


 256 01a4 83348101 		ld	s1,24(sp)
 257              		.cfi_restore 9
 258 01a8 03390101 		ld	s2,16(sp)
 259              		.cfi_restore 18
 260              	.LVL21:
 261 01ac 83398100 		ld	s3,8(sp)
 262              		.cfi_restore 19
 263              	.LVL22:
 264 01b0 13010103 		addi	sp,sp,48
 265              		.cfi_def_cfa_offset 0
 266 01b4 67800000 		jr	ra
 267              		.cfi_endproc
 268              	.LFE51:
 269              		.globl	__gxx_personality_v0
 270              		.section	.gcc_except_table,"a",@progbits
 271              	.LLSDA51:
 272 0000 FF       		.byte	0xff
 273 0001 FF       		.byte	0xff
 274 0002 03       		.byte	0x3
 275 0003 27       		.byte	0x27
 276 0004 00000000 		.4byte	.LEHB0-.LFB51
 277 0008 00000000 		.4byte	.LEHE0-.LEHB0
 278 000c 00000000 		.4byte	0
 279 0010 00       		.byte	0
 280 0011 00000000 		.4byte	.LEHB1-.LFB51
 281 0015 00000000 		.4byte	.LEHE1-.LEHB1
 282 0019 00000000 		.4byte	.L17-.LFB51
 283 001d 00       		.byte	0
 284 001e 00000000 		.4byte	.LEHB2-.LFB51
 285 0022 00000000 		.4byte	.LEHE2-.LEHB2
 286 0026 00000000 		.4byte	0
 287 002a 00       		.byte	0
 288              		.text
 290              		.align	2
 291              		.globl	_ZN3TCB20createDeactivatedTCBEPFvPvES0_
 293              	_ZN3TCB20createDeactivatedTCBEPFvPvES0_:
 294              	.LFB52:
  17:src/tcb.cpp   ****     return new TCB(body, args, DEFAULT_TIME_SLICE, 0, 0);
 295              		.loc 1 17 60 is_stmt 1
 296              		.cfi_startproc
 297              		.cfi_personality 0x9b,DW.ref.__gxx_personality_v0
 298              		.cfi_lsda 0x1b,.LLSDA52
 299              	.LVL23:
 300 01b8 130101FD 		addi	sp,sp,-48
 301              		.cfi_def_cfa_offset 48
 302 01bc 23341102 		sd	ra,40(sp)
 303 01c0 23308102 		sd	s0,32(sp)
 304 01c4 233C9100 		sd	s1,24(sp)
 305 01c8 23382101 		sd	s2,16(sp)
 306 01cc 23343101 		sd	s3,8(sp)
 307              		.cfi_offset 1, -8
 308              		.cfi_offset 8, -16
 309              		.cfi_offset 9, -24
 310              		.cfi_offset 18, -32
 311              		.cfi_offset 19, -40
 312 01d0 13040103 		addi	s0,sp,48
 313              		.cfi_def_cfa 8, 0
GAS LISTING /tmp/ccAJvi74.s 			page 9


 314 01d4 13090500 		mv	s2,a0
 315 01d8 93890500 		mv	s3,a1
  18:src/tcb.cpp   **** }
 316              		.loc 1 18 5
 317              	.LVL24:
 318              	.LBB32:
 319              	.LBB33:
  49:src/../h/tcb.hpp ****     }
 320              		.loc 2 49 9
  49:src/../h/tcb.hpp ****     }
 321              		.loc 2 49 41 is_stmt 0
 322 01dc 13058003 		li	a0,56
 323              	.LVL25:
 324              	.LEHB3:
 325 01e0 97000000 		call	_ZN15MemoryAllocator8allocateEm@plt
 325      E7800000 
 326              	.LVL26:
 327              	.LEHE3:
 328 01e8 93040500 		mv	s1,a0
 329              	.LVL27:
 330              	.LBE33:
 331              	.LBE32:
  18:src/tcb.cpp   **** }
 332              		.loc 1 18 56
 333 01ec 93070000 		li	a5,0
 334 01f0 13070000 		li	a4,0
 335 01f4 93062000 		li	a3,2
 336 01f8 13860900 		mv	a2,s3
 337 01fc 93050900 		mv	a1,s2
 338              	.LEHB4:
 339 0200 97000000 		call	_ZN3TCBC1EPFvPvES0_mbb
 339      E7800000 
 340              	.LVL28:
 341              	.LEHE4:
 342 0208 6F000002 		j	.L26
 343              	.L23:
 344 020c 13090500 		mv	s2,a0
 345              	.LVL29:
 346              	.LBB34:
 347              	.LBB35:
 348              		.loc 2 57 9 is_stmt 1
 349              		.loc 2 57 30 is_stmt 0
 350 0210 13850400 		mv	a0,s1
 351 0214 97000000 		call	_ZN15MemoryAllocator4freeEPv@plt
 351      E7800000 
 352              	.LVL30:
 353 021c 13050900 		mv	a0,s2
 354              	.LEHB5:
 355 0220 97000000 		call	_Unwind_Resume@plt
 355      E7800000 
 356              	.LVL31:
 357              	.LEHE5:
 358              	.L26:
 359              	.LBE35:
 360              	.LBE34:
  19:src/tcb.cpp   **** 
 361              		.loc 1 19 1
GAS LISTING /tmp/ccAJvi74.s 			page 10


 362 0228 13850400 		mv	a0,s1
 363 022c 83308102 		ld	ra,40(sp)
 364              		.cfi_restore 1
 365 0230 03340102 		ld	s0,32(sp)
 366              		.cfi_restore 8
 367              		.cfi_def_cfa 2, 48
 368 0234 83348101 		ld	s1,24(sp)
 369              		.cfi_restore 9
 370 0238 03390101 		ld	s2,16(sp)
 371              		.cfi_restore 18
 372              	.LVL32:
 373 023c 83398100 		ld	s3,8(sp)
 374              		.cfi_restore 19
 375              	.LVL33:
 376 0240 13010103 		addi	sp,sp,48
 377              		.cfi_def_cfa_offset 0
 378 0244 67800000 		jr	ra
 379              		.cfi_endproc
 380              	.LFE52:
 381              		.section	.gcc_except_table
 382              	.LLSDA52:
 383 002b FF       		.byte	0xff
 384 002c FF       		.byte	0xff
 385 002d 03       		.byte	0x3
 386 002e 27       		.byte	0x27
 387 002f 00000000 		.4byte	.LEHB3-.LFB52
 388 0033 00000000 		.4byte	.LEHE3-.LEHB3
 389 0037 00000000 		.4byte	0
 390 003b 00       		.byte	0
 391 003c 00000000 		.4byte	.LEHB4-.LFB52
 392 0040 00000000 		.4byte	.LEHE4-.LEHB4
 393 0044 00000000 		.4byte	.L23-.LFB52
 394 0048 00       		.byte	0
 395 0049 00000000 		.4byte	.LEHB5-.LFB52
 396 004d 00000000 		.4byte	.LEHE5-.LEHB5
 397 0051 00000000 		.4byte	0
 398 0055 00       		.byte	0
 399              		.text
 401              		.align	2
 402              		.globl	_ZN3TCB19createSupervisorTCBEPFvPvES0_
 404              	_ZN3TCB19createSupervisorTCBEPFvPvES0_:
 405              	.LFB53:
  21:src/tcb.cpp   ****     return new TCB
 406              		.loc 1 21 59 is_stmt 1
 407              		.cfi_startproc
 408              		.cfi_personality 0x9b,DW.ref.__gxx_personality_v0
 409              		.cfi_lsda 0x1b,.LLSDA53
 410              	.LVL34:
 411 0248 130101FD 		addi	sp,sp,-48
 412              		.cfi_def_cfa_offset 48
 413 024c 23341102 		sd	ra,40(sp)
 414 0250 23308102 		sd	s0,32(sp)
 415 0254 233C9100 		sd	s1,24(sp)
 416 0258 23382101 		sd	s2,16(sp)
 417 025c 23343101 		sd	s3,8(sp)
 418              		.cfi_offset 1, -8
 419              		.cfi_offset 8, -16
GAS LISTING /tmp/ccAJvi74.s 			page 11


 420              		.cfi_offset 9, -24
 421              		.cfi_offset 18, -32
 422              		.cfi_offset 19, -40
 423 0260 13040103 		addi	s0,sp,48
 424              		.cfi_def_cfa 8, 0
 425 0264 13090500 		mv	s2,a0
 426 0268 93890500 		mv	s3,a1
  22:src/tcb.cpp   ****     (body, args,DEFAULT_TIME_SLICE, true, true);
 427              		.loc 1 22 5
 428              	.LVL35:
 429              	.LBB36:
 430              	.LBB37:
  49:src/../h/tcb.hpp ****     }
 431              		.loc 2 49 9
  49:src/../h/tcb.hpp ****     }
 432              		.loc 2 49 41 is_stmt 0
 433 026c 13058003 		li	a0,56
 434              	.LVL36:
 435              	.LEHB6:
 436 0270 97000000 		call	_ZN15MemoryAllocator8allocateEm@plt
 436      E7800000 
 437              	.LVL37:
 438              	.LEHE6:
 439 0278 93040500 		mv	s1,a0
 440              	.LVL38:
 441              	.LBE37:
 442              	.LBE36:
  23:src/tcb.cpp   **** }
 443              		.loc 1 23 47
 444 027c 93071000 		li	a5,1
 445 0280 13071000 		li	a4,1
 446 0284 93062000 		li	a3,2
 447 0288 13860900 		mv	a2,s3
 448 028c 93050900 		mv	a1,s2
 449              	.LEHB7:
 450 0290 97000000 		call	_ZN3TCBC1EPFvPvES0_mbb
 450      E7800000 
 451              	.LVL39:
 452              	.LEHE7:
 453 0298 6F000002 		j	.L32
 454              	.L29:
 455 029c 13090500 		mv	s2,a0
 456              	.LVL40:
 457              	.LBB38:
 458              	.LBB39:
 459              		.loc 2 57 9 is_stmt 1
 460              		.loc 2 57 30 is_stmt 0
 461 02a0 13850400 		mv	a0,s1
 462 02a4 97000000 		call	_ZN15MemoryAllocator4freeEPv@plt
 462      E7800000 
 463              	.LVL41:
 464 02ac 13050900 		mv	a0,s2
 465              	.LEHB8:
 466 02b0 97000000 		call	_Unwind_Resume@plt
 466      E7800000 
 467              	.LVL42:
 468              	.LEHE8:
GAS LISTING /tmp/ccAJvi74.s 			page 12


 469              	.L32:
 470              	.LBE39:
 471              	.LBE38:
  24:src/tcb.cpp   **** 
 472              		.loc 1 24 1
 473 02b8 13850400 		mv	a0,s1
 474 02bc 83308102 		ld	ra,40(sp)
 475              		.cfi_restore 1
 476 02c0 03340102 		ld	s0,32(sp)
 477              		.cfi_restore 8
 478              		.cfi_def_cfa 2, 48
 479 02c4 83348101 		ld	s1,24(sp)
 480              		.cfi_restore 9
 481 02c8 03390101 		ld	s2,16(sp)
 482              		.cfi_restore 18
 483              	.LVL43:
 484 02cc 83398100 		ld	s3,8(sp)
 485              		.cfi_restore 19
 486              	.LVL44:
 487 02d0 13010103 		addi	sp,sp,48
 488              		.cfi_def_cfa_offset 0
 489 02d4 67800000 		jr	ra
 490              		.cfi_endproc
 491              	.LFE53:
 492              		.section	.gcc_except_table
 493              	.LLSDA53:
 494 0056 FF       		.byte	0xff
 495 0057 FF       		.byte	0xff
 496 0058 03       		.byte	0x3
 497 0059 27       		.byte	0x27
 498 005a 00000000 		.4byte	.LEHB6-.LFB53
 499 005e 00000000 		.4byte	.LEHE6-.LEHB6
 500 0062 00000000 		.4byte	0
 501 0066 00       		.byte	0
 502 0067 00000000 		.4byte	.LEHB7-.LFB53
 503 006b 00000000 		.4byte	.LEHE7-.LEHB7
 504 006f 00000000 		.4byte	.L29-.LFB53
 505 0073 00       		.byte	0
 506 0074 00000000 		.4byte	.LEHB8-.LFB53
 507 0078 00000000 		.4byte	.LEHE8-.LEHB8
 508 007c 00000000 		.4byte	0
 509 0080 00       		.byte	0
 510              		.text
 512              		.align	2
 513              		.globl	_ZN3TCB8dispatchEv
 515              	_ZN3TCB8dispatchEv:
 516              	.LFB57:
  42:src/tcb.cpp   ****     TCB *old = running;
 517              		.loc 1 42 22 is_stmt 1
 518              		.cfi_startproc
 519 02d8 130101FE 		addi	sp,sp,-32
 520              		.cfi_def_cfa_offset 32
 521 02dc 233C1100 		sd	ra,24(sp)
 522 02e0 23388100 		sd	s0,16(sp)
 523 02e4 23349100 		sd	s1,8(sp)
 524              		.cfi_offset 1, -8
 525              		.cfi_offset 8, -16
GAS LISTING /tmp/ccAJvi74.s 			page 13


 526              		.cfi_offset 9, -24
 527 02e8 13040102 		addi	s0,sp,32
 528              		.cfi_def_cfa 8, 0
  43:src/tcb.cpp   ****     if (!old->isFinished() && !old->isBlocked()) { Scheduler::put(old); }
 529              		.loc 1 43 5
  43:src/tcb.cpp   ****     if (!old->isFinished() && !old->isBlocked()) { Scheduler::put(old); }
 530              		.loc 1 43 10 is_stmt 0
 531 02ec 97040000 		ld	s1,.LANCHOR0
 531      83B40400 
 532              	.LVL45:
  44:src/tcb.cpp   ****     running = Scheduler::get();
 533              		.loc 1 44 5 is_stmt 1
 534              	.LBB40:
 535              	.LBB41:
  26:src/../h/tcb.hpp **** 
 536              		.loc 2 26 31
  26:src/../h/tcb.hpp **** 
 537              		.loc 2 26 36 is_stmt 0
 538 02f4 83C78401 		lbu	a5,24(s1)
 539              	.LVL46:
  26:src/../h/tcb.hpp **** 
 540              		.loc 2 26 52 is_stmt 1
 541              	.LBE41:
 542              	.LBE40:
  44:src/tcb.cpp   ****     running = Scheduler::get();
 543              		.loc 1 44 28 is_stmt 0
 544 02f8 63960700 		bnez	a5,.L34
 545              	.LVL47:
 546              	.LBB42:
 547              	.LBB43:
  30:src/../h/tcb.hpp **** 
 548              		.loc 2 30 30 is_stmt 1
  30:src/../h/tcb.hpp **** 
 549              		.loc 2 30 37 is_stmt 0
 550 02fc 83C79401 		lbu	a5,25(s1)
 551              	.LVL48:
 552              	.LBE43:
 553              	.LBE42:
  44:src/tcb.cpp   ****     running = Scheduler::get();
 554              		.loc 1 44 28
 555 0300 638C0702 		beqz	a5,.L36
 556              	.L34:
  45:src/tcb.cpp   **** 
 557              		.loc 1 45 5 is_stmt 1
  45:src/tcb.cpp   **** 
 558              		.loc 1 45 29 is_stmt 0
 559 0304 97000000 		call	_ZN9Scheduler3getEv@plt
 559      E7800000 
 560              	.LVL49:
  45:src/tcb.cpp   **** 
 561              		.loc 1 45 13
 562 030c 97070000 		sd	a0,.LANCHOR0,a5
 562      23B0A700 
  47:src/tcb.cpp   **** }
 563              		.loc 1 47 5 is_stmt 1
  47:src/tcb.cpp   **** }
 564              		.loc 1 47 23 is_stmt 0
GAS LISTING /tmp/ccAJvi74.s 			page 14


 565 0314 93058502 		addi	a1,a0,40
 566 0318 13858402 		addi	a0,s1,40
 567 031c 97000000 		call	_ZN3TCB13contextSwitchEPNS_7ContextES1_@plt
 567      E7800000 
 568              	.LVL50:
  48:src/tcb.cpp   **** 
 569              		.loc 1 48 1
 570 0324 83308101 		ld	ra,24(sp)
 571              		.cfi_remember_state
 572              		.cfi_restore 1
 573 0328 03340101 		ld	s0,16(sp)
 574              		.cfi_restore 8
 575              		.cfi_def_cfa 2, 32
 576 032c 83348100 		ld	s1,8(sp)
 577              		.cfi_restore 9
 578              	.LVL51:
 579 0330 13010102 		addi	sp,sp,32
 580              		.cfi_def_cfa_offset 0
 581 0334 67800000 		jr	ra
 582              	.LVL52:
 583              	.L36:
 584              		.cfi_restore_state
  44:src/tcb.cpp   ****     running = Scheduler::get();
 585              		.loc 1 44 52 is_stmt 1
  44:src/tcb.cpp   ****     running = Scheduler::get();
 586              		.loc 1 44 66 is_stmt 0
 587 0338 13850400 		mv	a0,s1
 588 033c 97000000 		call	_ZN9Scheduler3putEP3TCB@plt
 588      E7800000 
 589              	.LVL53:
 590 0344 6FF01FFC 		j	.L34
 591              		.cfi_endproc
 592              	.LFE57:
 594              		.align	2
 595              		.globl	_ZN3TCB14sThreadWrapperEv
 597              	_ZN3TCB14sThreadWrapperEv:
 598              	.LFB59:
  57:src/tcb.cpp   **** 
  58:src/tcb.cpp   **** void TCB::sThreadWrapper() {
 599              		.loc 1 58 28 is_stmt 1
 600              		.cfi_startproc
 601 0348 130101FE 		addi	sp,sp,-32
 602              		.cfi_def_cfa_offset 32
 603 034c 233C1100 		sd	ra,24(sp)
 604 0350 23388100 		sd	s0,16(sp)
 605 0354 23349100 		sd	s1,8(sp)
 606              		.cfi_offset 1, -8
 607              		.cfi_offset 8, -16
 608              		.cfi_offset 9, -24
 609 0358 13040102 		addi	s0,sp,32
 610              		.cfi_def_cfa 8, 0
  59:src/tcb.cpp   ****     RiscV::setSstatus(0x0000000000000001UL << 8);
 611              		.loc 1 59 5
 612              	.LVL54:
 613              	.LBB44:
 614              	.LBB45:
 615              		.file 3 "src/../h/riscv.hpp"
GAS LISTING /tmp/ccAJvi74.s 			page 15


   1:src/../h/riscv.hpp **** //
   2:src/../h/riscv.hpp **** // Created by os on 9/6/22.
   3:src/../h/riscv.hpp **** //
   4:src/../h/riscv.hpp **** 
   5:src/../h/riscv.hpp **** #ifndef OSMIUM_RISCV_HPP
   6:src/../h/riscv.hpp **** #define OSMIUM_RISCV_HPP
   7:src/../h/riscv.hpp **** 
   8:src/../h/riscv.hpp **** 
   9:src/../h/riscv.hpp **** #include "../lib/hw.h"
  10:src/../h/riscv.hpp **** 
  11:src/../h/riscv.hpp **** class RiscV {
  12:src/../h/riscv.hpp **** public:
  13:src/../h/riscv.hpp ****     // pop spp and spie sstatus bits
  14:src/../h/riscv.hpp ****     static void popSppSpie();
  15:src/../h/riscv.hpp **** 
  16:src/../h/riscv.hpp ****     //push x3...x31 registers on stack
  17:src/../h/riscv.hpp ****     static void pushRegisters();
  18:src/../h/riscv.hpp **** 
  19:src/../h/riscv.hpp ****     //pop x3...x31 registers from stack
  20:src/../h/riscv.hpp ****     static void popRegisters();
  21:src/../h/riscv.hpp **** 
  22:src/../h/riscv.hpp ****     //read from scause register
  23:src/../h/riscv.hpp ****     static uint64 readScause();
  24:src/../h/riscv.hpp **** 
  25:src/../h/riscv.hpp ****     //write to scause register
  26:src/../h/riscv.hpp ****     static void writeScause(uint64 scause);
  27:src/../h/riscv.hpp **** 
  28:src/../h/riscv.hpp ****     //read from sepc register
  29:src/../h/riscv.hpp ****     static uint64 readSepc();
  30:src/../h/riscv.hpp **** 
  31:src/../h/riscv.hpp ****     //write to sepc register
  32:src/../h/riscv.hpp ****     static void writeSepc(uint64 sepc);
  33:src/../h/riscv.hpp **** 
  34:src/../h/riscv.hpp ****     //read from stvec register
  35:src/../h/riscv.hpp ****     static uint64 readStvec();
  36:src/../h/riscv.hpp **** 
  37:src/../h/riscv.hpp ****     //write to stvec register
  38:src/../h/riscv.hpp ****     static void writeStvec(uint64 stvec);
  39:src/../h/riscv.hpp **** 
  40:src/../h/riscv.hpp ****     enum SSTATUS
  41:src/../h/riscv.hpp ****     {
  42:src/../h/riscv.hpp ****         SIE = (1 << 1), //supervisor interrupt enable
  43:src/../h/riscv.hpp ****         SPIE = (1 << 5),//supervisor previous interrupt enable
  44:src/../h/riscv.hpp ****         SPP = (1 << 8), //supervisor previous privilege
  45:src/../h/riscv.hpp ****     };
  46:src/../h/riscv.hpp **** 
  47:src/../h/riscv.hpp ****     //set bit-mask bits in the sstatus register
  48:src/../h/riscv.hpp ****     static void setSstatus(uint64 mask);
  49:src/../h/riscv.hpp **** 
  50:src/../h/riscv.hpp ****     //clear bit-mask bits in the sstatus register
  51:src/../h/riscv.hpp ****     static void clearSstatus(uint64 mask);
  52:src/../h/riscv.hpp **** 
  53:src/../h/riscv.hpp ****     //read from sstatus register
  54:src/../h/riscv.hpp ****     static uint64 readSstatus();
  55:src/../h/riscv.hpp **** 
  56:src/../h/riscv.hpp ****     //write to sstatus register
  57:src/../h/riscv.hpp ****     static void writeSstatus(uint64 sstatus);
GAS LISTING /tmp/ccAJvi74.s 			page 16


  58:src/../h/riscv.hpp **** 
  59:src/../h/riscv.hpp ****     enum SIP
  60:src/../h/riscv.hpp ****     {
  61:src/../h/riscv.hpp ****         SSIP = (1 << 1), //supervisor software interrupt pending
  62:src/../h/riscv.hpp ****         STIP = (1 << 5), //supervisor timer interrupt pending
  63:src/../h/riscv.hpp ****                          //(timer is configured to throw a software interrupt, so this is not used)
  64:src/../h/riscv.hpp ****         SEIP = (1 << 9), //supervisor external interrupt pending
  65:src/../h/riscv.hpp ****     };
  66:src/../h/riscv.hpp **** 
  67:src/../h/riscv.hpp ****     //set bit-mask bits in the sip register
  68:src/../h/riscv.hpp ****     static void setSip(uint64 mask);
  69:src/../h/riscv.hpp **** 
  70:src/../h/riscv.hpp ****     //clear bit-mask bits in the sip register
  71:src/../h/riscv.hpp ****     static void clearSip(uint64 mask);
  72:src/../h/riscv.hpp **** 
  73:src/../h/riscv.hpp ****     //read from sip register
  74:src/../h/riscv.hpp ****     static uint64 readSip();
  75:src/../h/riscv.hpp **** 
  76:src/../h/riscv.hpp ****     //write to sip register
  77:src/../h/riscv.hpp ****     static void writeSip(uint64 Sip);
  78:src/../h/riscv.hpp **** private:
  79:src/../h/riscv.hpp **** 
  80:src/../h/riscv.hpp **** };
  81:src/../h/riscv.hpp **** 
  82:src/../h/riscv.hpp **** inline uint64 RiscV::readScause() {
  83:src/../h/riscv.hpp ****     uint64 volatile scause;
  84:src/../h/riscv.hpp ****     asm volatile("csrr %[scause], scause": [scause] "=r" (scause));
  85:src/../h/riscv.hpp ****     return scause;
  86:src/../h/riscv.hpp **** }
  87:src/../h/riscv.hpp **** 
  88:src/../h/riscv.hpp **** inline void RiscV::writeScause(uint64 scause) {
  89:src/../h/riscv.hpp ****     asm volatile("csrw scause, %[scause]":: [scause] "r" (scause));
  90:src/../h/riscv.hpp **** }
  91:src/../h/riscv.hpp **** 
  92:src/../h/riscv.hpp **** inline uint64 RiscV::readSepc() {
  93:src/../h/riscv.hpp ****     uint64 volatile sepc;
  94:src/../h/riscv.hpp ****     asm volatile("csrr %[sepc], sepc": [sepc] "=r" (sepc));
  95:src/../h/riscv.hpp ****     return sepc;
  96:src/../h/riscv.hpp **** }
  97:src/../h/riscv.hpp **** 
  98:src/../h/riscv.hpp **** inline void RiscV::writeSepc(uint64 sepc) {
  99:src/../h/riscv.hpp ****     asm volatile("csrw sepc, %[sepc]":: [sepc] "r" (sepc));
 100:src/../h/riscv.hpp **** }
 101:src/../h/riscv.hpp **** 
 102:src/../h/riscv.hpp **** inline uint64 RiscV::readStvec() {
 103:src/../h/riscv.hpp ****     uint64 volatile stvec;
 104:src/../h/riscv.hpp ****     asm volatile("csrr %[stvec], stvec": [stvec] "=r" (stvec));
 105:src/../h/riscv.hpp ****     return stvec;
 106:src/../h/riscv.hpp **** }
 107:src/../h/riscv.hpp **** 
 108:src/../h/riscv.hpp **** inline void RiscV::writeStvec(uint64 stvec) {
 109:src/../h/riscv.hpp ****     asm volatile("csrw stvec, %[stvec]":: [stvec] "r" (stvec));
 110:src/../h/riscv.hpp **** }
 111:src/../h/riscv.hpp **** 
 112:src/../h/riscv.hpp **** inline void RiscV::setSstatus(uint64 mask) {
 113:src/../h/riscv.hpp ****     asm volatile("csrs sstatus, %[mask]":: [mask] "r" (mask));
 616              		.loc 3 113 5
GAS LISTING /tmp/ccAJvi74.s 			page 17


 617              		.loc 3 113 62 is_stmt 0
 618 035c 93070010 		li	a5,256
 619              	#APP
 620              	# 113 "src/../h/riscv.hpp" 1
 114              	}
 621              		csrs sstatus, a5
 622              	# 0 "" 2
 623              	.LVL55:
 624              	#NO_APP
 625              	.LBE45:
 626              	.LBE44:
  60:src/tcb.cpp   ****     RiscV::setSstatus(0x0000000000000001UL << 5);
 627              		.loc 1 60 5 is_stmt 1
 628              	.LBB46:
 629              	.LBB47:
 113:src/../h/riscv.hpp **** }
 630              		.loc 3 113 5
 113:src/../h/riscv.hpp **** }
 631              		.loc 3 113 62 is_stmt 0
 632 0364 93070002 		li	a5,32
 633              	#APP
 634              	# 113 "src/../h/riscv.hpp" 1
 635              		csrs sstatus, a5
 636              	# 0 "" 2
 637              	.LVL56:
 638              	#NO_APP
 639              	.LBE47:
 640              	.LBE46:
  61:src/tcb.cpp   ****     RiscV::setSstatus(RiscV::SIE);
 641              		.loc 1 61 5 is_stmt 1
 642              	.LBB48:
 643              	.LBB49:
 113:src/../h/riscv.hpp **** }
 644              		.loc 3 113 5
 113:src/../h/riscv.hpp **** }
 645              		.loc 3 113 62 is_stmt 0
 646 036c 93072000 		li	a5,2
 647              	#APP
 648              	# 113 "src/../h/riscv.hpp" 1
 649              		csrs sstatus, a5
 650              	# 0 "" 2
 651              	.LVL57:
 652              	#NO_APP
 653              	.LBE49:
 654              	.LBE48:
  62:src/tcb.cpp   ****     RiscV::popSppSpie();
 655              		.loc 1 62 5 is_stmt 1
 656              		.loc 1 62 22 is_stmt 0
 657 0374 97000000 		call	_ZN5RiscV10popSppSpieEv@plt
 657      E7800000 
 658              	.LVL58:
  63:src/tcb.cpp   ****     running->body(running->args);
 659              		.loc 1 63 5 is_stmt 1
 660              		.loc 1 63 14 is_stmt 0
 661 037c 97040000 		lla	s1,.LANCHOR0
 661      93840400 
 662 0384 83B70400 		ld	a5,0(s1)
GAS LISTING /tmp/ccAJvi74.s 			page 18


 663 0388 03B70700 		ld	a4,0(a5)
 664              		.loc 1 63 18
 665 038c 03B58700 		ld	a0,8(a5)
 666 0390 E7000700 		jalr	a4
 667              	.LVL59:
  64:src/tcb.cpp   ****     running->setFinished(true);
 668              		.loc 1 64 5 is_stmt 1
 669              		.loc 1 64 25 is_stmt 0
 670 0394 83B70400 		ld	a5,0(s1)
 671              	.LVL60:
 672              	.LBB50:
 673              	.LBB51:
  28:src/../h/tcb.hpp **** 
 674              		.loc 2 28 34 is_stmt 1
  28:src/../h/tcb.hpp **** 
 675              		.loc 2 28 43 is_stmt 0
 676 0398 13071000 		li	a4,1
 677 039c 238CE700 		sb	a4,24(a5)
 678              	.LVL61:
 679              	.LBE51:
 680              	.LBE50:
  65:src/tcb.cpp   ****     //thread_exit();
  66:src/tcb.cpp   ****     //thread_dispatch();
  67:src/tcb.cpp   ****     TCB::dispatch();
 681              		.loc 1 67 5 is_stmt 1
 682              		.loc 1 67 18 is_stmt 0
 683 03a0 97000000 		call	_ZN3TCB8dispatchEv
 683      E7800000 
 684              	.LVL62:
  68:src/tcb.cpp   **** }
 685              		.loc 1 68 1
 686 03a8 83308101 		ld	ra,24(sp)
 687              		.cfi_restore 1
 688 03ac 03340101 		ld	s0,16(sp)
 689              		.cfi_restore 8
 690              		.cfi_def_cfa 2, 32
 691 03b0 83348100 		ld	s1,8(sp)
 692              		.cfi_restore 9
 693 03b4 13010102 		addi	sp,sp,32
 694              		.cfi_def_cfa_offset 0
 695 03b8 67800000 		jr	ra
 696              		.cfi_endproc
 697              	.LFE59:
 699              		.globl	_ZN3TCB16timeSliceCounterE
 700              		.globl	_ZN3TCB7runningE
 701              		.bss
 702              		.align	3
 703              		.set	.LANCHOR0,. + 0
 706              	_ZN3TCB7runningE:
 707 0000 00000000 		.zero	8
 707      00000000 
 710              	_ZN3TCB16timeSliceCounterE:
 711 0008 00000000 		.zero	8
 711      00000000 
 712              		.text
 713              	.Letext0:
 714              		.file 4 "src/../h/../lib/hw.h"
GAS LISTING /tmp/ccAJvi74.s 			page 19


 715              		.file 5 "src/../h/memory_allocator.hpp"
 716              		.file 6 "src/../h/scheduler.hpp"
 717              		.file 7 "src/../h/syscall_c.h"
 4111              		.align	3
 4114              	DW.ref.__gxx_personality_v0:
 4115 0000 00000000 		.dword	__gxx_personality_v0
 4115      00000000 
 4116              		.ident	"GCC: (Ubuntu 9.4.0-1ubuntu1~20.04) 9.4.0"
 4117              		.section	.note.GNU-stack,"",@progbits
GAS LISTING /tmp/ccAJvi74.s 			page 20

