GAS LISTING /tmp/cc6pGDbC.s 			page 1


   1              		.file	"tcb.cpp"
   2              		.option pic
   3              		.option norelax
   4              		.text
   5              	.Ltext0:
   6              		.align	2
   7              		.globl	_ZN3TCB13threadWrapperEv
   9              	_ZN3TCB13threadWrapperEv:
  10              	.LFB59:
  11              		.file 1 "src/tcb.cpp"
   1:src/tcb.cpp   **** //
   2:src/tcb.cpp   **** // Created by os on 9/9/22.
   3:src/tcb.cpp   **** //
   4:src/tcb.cpp   **** 
   5:src/tcb.cpp   **** #include "../h/tcb.hpp"
   6:src/tcb.cpp   **** #include "../h/__print.hpp"
   7:src/tcb.cpp   **** #include "../h/syscall_c.h"
   8:src/tcb.cpp   **** #include "../h/scheduler.hpp"
   9:src/tcb.cpp   **** 
  10:src/tcb.cpp   **** TCB *TCB::running = nullptr;
  11:src/tcb.cpp   **** 
  12:src/tcb.cpp   **** uint64 TCB::timeSliceCounter = 0;
  13:src/tcb.cpp   **** 
  14:src/tcb.cpp   **** TCB *TCB::createTCB(TCB::Body body, void *args) {
  15:src/tcb.cpp   ****     return new TCB(body, args, DEFAULT_TIME_SLICE, 1, 0);
  16:src/tcb.cpp   **** }
  17:src/tcb.cpp   **** 
  18:src/tcb.cpp   **** TCB *TCB::createDeactivatedTCB(TCB::Body body, void *args) {
  19:src/tcb.cpp   ****     return new TCB(body, args, DEFAULT_TIME_SLICE, 0, 0);
  20:src/tcb.cpp   **** }
  21:src/tcb.cpp   **** 
  22:src/tcb.cpp   **** TCB *TCB::createSupervisorTCB(TCB::Body body, void *args) {
  23:src/tcb.cpp   ****     return new TCB
  24:src/tcb.cpp   ****     (body, args,DEFAULT_TIME_SLICE, true, true);
  25:src/tcb.cpp   **** }
  26:src/tcb.cpp   **** /*void TCB::yield() {
  27:src/tcb.cpp   ****     RiscV::pushRegisters();
  28:src/tcb.cpp   **** 
  29:src/tcb.cpp   ****     dispatch();
  30:src/tcb.cpp   **** 
  31:src/tcb.cpp   ****     RiscV::popRegisters();
  32:src/tcb.cpp   **** }*/
  33:src/tcb.cpp   **** 
  34:src/tcb.cpp   **** 
  35:src/tcb.cpp   **** TCB::TCB(Body body, void* args, uint64 timeSlice, bool ready, bool supervisor)
  36:src/tcb.cpp   **** : body(body),
  37:src/tcb.cpp   **** args(args),
  38:src/tcb.cpp   **** stack(body != nullptr ? (uint64*)MemoryAllocator::allocate(sizeof(uint64) * DEFAULT_STACK_SIZE) : n
  39:src/tcb.cpp   **** finished(false),
  40:src/tcb.cpp   **** blocked(false),
  41:src/tcb.cpp   **** timeSlice(timeSlice),
  42:src/tcb.cpp   **** context({
  43:src/tcb.cpp   ****     body != nullptr ? (uint64) (supervisor ? &sThreadWrapper : &threadWrapper) : 0,
  44:src/tcb.cpp   ****     stack != nullptr ? (uint64) &stack[DEFAULT_STACK_SIZE] : 0
  45:src/tcb.cpp   ****         })
  46:src/tcb.cpp   **** {
  47:src/tcb.cpp   ****     if (body != nullptr && ready) Scheduler::put(this);
GAS LISTING /tmp/cc6pGDbC.s 			page 2


  48:src/tcb.cpp   **** }
  49:src/tcb.cpp   **** 
  50:src/tcb.cpp   **** 
  51:src/tcb.cpp   **** void TCB::dispatch() {
  52:src/tcb.cpp   ****     //__print_string("hello\n");
  53:src/tcb.cpp   ****     TCB *old = running;
  54:src/tcb.cpp   ****     if (!old->isFinished() && !old->isBlocked()) { Scheduler::put(old); }
  55:src/tcb.cpp   ****     running = Scheduler::get();
  56:src/tcb.cpp   **** 
  57:src/tcb.cpp   ****     TCB::contextSwitch(&old->context, &running->context);
  58:src/tcb.cpp   **** }
  59:src/tcb.cpp   **** 
  60:src/tcb.cpp   **** void TCB::threadWrapper() {
  12              		.loc 1 60 27
  13              		.cfi_startproc
  14 0000 130101FE 		addi	sp,sp,-32
  15              		.cfi_def_cfa_offset 32
  16 0004 233C1100 		sd	ra,24(sp)
  17 0008 23388100 		sd	s0,16(sp)
  18 000c 23349100 		sd	s1,8(sp)
  19              		.cfi_offset 1, -8
  20              		.cfi_offset 8, -16
  21              		.cfi_offset 9, -24
  22 0010 13040102 		addi	s0,sp,32
  23              		.cfi_def_cfa 8, 0
  61:src/tcb.cpp   ****     RiscV::popSppSpie();
  24              		.loc 1 61 5
  25              		.loc 1 61 22 is_stmt 0
  26 0014 97000000 		call	_ZN5RiscV10popSppSpieEv@plt
  26      E7800000 
  27              	.LVL0:
  62:src/tcb.cpp   ****     running->body(running->args);
  28              		.loc 1 62 5 is_stmt 1
  29              		.loc 1 62 14 is_stmt 0
  30 001c 97040000 		lla	s1,.LANCHOR0
  30      93840400 
  31 0024 83B70400 		ld	a5,0(s1)
  32 0028 03B70700 		ld	a4,0(a5)
  33              		.loc 1 62 18
  34 002c 03B58700 		ld	a0,8(a5)
  35 0030 E7000700 		jalr	a4
  36              	.LVL1:
  63:src/tcb.cpp   ****     running->setFinished(true);
  37              		.loc 1 63 5 is_stmt 1
  38              		.loc 1 63 25 is_stmt 0
  39 0034 83B70400 		ld	a5,0(s1)
  40              	.LVL2:
  41              	.LBB26:
  42              	.LBB27:
  43              		.file 2 "src/../h/tcb.hpp"
   1:src/../h/tcb.hpp **** //
   2:src/../h/tcb.hpp **** // Created by os on 9/9/22.
   3:src/../h/tcb.hpp **** //
   4:src/../h/tcb.hpp **** 
   5:src/../h/tcb.hpp **** #ifndef OSMIUM_TCB_HPP
   6:src/../h/tcb.hpp **** #define OSMIUM_TCB_HPP
   7:src/../h/tcb.hpp **** 
GAS LISTING /tmp/cc6pGDbC.s 			page 3


   8:src/../h/tcb.hpp **** #include "../lib/hw.h"
   9:src/../h/tcb.hpp **** //#include "../h/scheduler.hpp"
  10:src/../h/tcb.hpp **** #include "riscv.hpp"
  11:src/../h/tcb.hpp **** #include "memory_allocator.hpp"
  12:src/../h/tcb.hpp **** 
  13:src/../h/tcb.hpp **** class Scheduler;
  14:src/../h/tcb.hpp **** 
  15:src/../h/tcb.hpp **** 
  16:src/../h/tcb.hpp **** class TCB {
  17:src/../h/tcb.hpp **** public:
  18:src/../h/tcb.hpp ****     using Body = void (*)(void*);
  19:src/../h/tcb.hpp **** 
  20:src/../h/tcb.hpp ****     static TCB* createTCB(Body body, void* args);
  21:src/../h/tcb.hpp **** 
  22:src/../h/tcb.hpp ****     static TCB* createDeactivatedTCB(Body body, void* args);
  23:src/../h/tcb.hpp **** 
  24:src/../h/tcb.hpp ****     static TCB* createSupervisorTCB(Body body, void* args);
  25:src/../h/tcb.hpp **** 
  26:src/../h/tcb.hpp ****     bool isFinished() const { return finished; }
  27:src/../h/tcb.hpp **** 
  28:src/../h/tcb.hpp ****     void setFinished(bool val) { finished = val; }
  44              		.loc 2 28 34 is_stmt 1
  45              		.loc 2 28 43 is_stmt 0
  46 0038 13071000 		li	a4,1
  47 003c 238CE700 		sb	a4,24(a5)
  48              	.LVL3:
  49              	.LBE27:
  50              	.LBE26:
  64:src/tcb.cpp   ****     //thread_exit();
  65:src/tcb.cpp   ****     thread_dispatch();
  51              		.loc 1 65 5 is_stmt 1
  52              		.loc 1 65 20 is_stmt 0
  53 0040 97000000 		call	thread_dispatch@plt
  53      E7800000 
  54              	.LVL4:
  66:src/tcb.cpp   **** }
  55              		.loc 1 66 1
  56 0048 83308101 		ld	ra,24(sp)
  57              		.cfi_restore 1
  58 004c 03340101 		ld	s0,16(sp)
  59              		.cfi_restore 8
  60              		.cfi_def_cfa 2, 32
  61 0050 83348100 		ld	s1,8(sp)
  62              		.cfi_restore 9
  63 0054 13010102 		addi	sp,sp,32
  64              		.cfi_def_cfa_offset 0
  65 0058 67800000 		jr	ra
  66              		.cfi_endproc
  67              	.LFE59:
  69              		.align	2
  70              		.globl	_ZN3TCB14sThreadWrapperEv
  72              	_ZN3TCB14sThreadWrapperEv:
  73              	.LFB60:
  67:src/tcb.cpp   **** 
  68:src/tcb.cpp   **** void TCB::sThreadWrapper() {
  74              		.loc 1 68 28 is_stmt 1
  75              		.cfi_startproc
GAS LISTING /tmp/cc6pGDbC.s 			page 4


  76 005c 130101FF 		addi	sp,sp,-16
  77              		.cfi_def_cfa_offset 16
  78 0060 23341100 		sd	ra,8(sp)
  79 0064 23308100 		sd	s0,0(sp)
  80              		.cfi_offset 1, -8
  81              		.cfi_offset 8, -16
  82 0068 13040101 		addi	s0,sp,16
  83              		.cfi_def_cfa 8, 0
  69:src/tcb.cpp   ****     RiscV::setSstatus(0x0000000000000001UL << 8);
  84              		.loc 1 69 5
  85              	.LVL5:
  86              	.LBB28:
  87              	.LBB29:
  88              		.file 3 "src/../h/riscv.hpp"
   1:src/../h/riscv.hpp **** //
   2:src/../h/riscv.hpp **** // Created by os on 9/6/22.
   3:src/../h/riscv.hpp **** //
   4:src/../h/riscv.hpp **** 
   5:src/../h/riscv.hpp **** #ifndef OSMIUM_RISCV_HPP
   6:src/../h/riscv.hpp **** #define OSMIUM_RISCV_HPP
   7:src/../h/riscv.hpp **** 
   8:src/../h/riscv.hpp **** 
   9:src/../h/riscv.hpp **** #include "../lib/hw.h"
  10:src/../h/riscv.hpp **** 
  11:src/../h/riscv.hpp **** class RiscV {
  12:src/../h/riscv.hpp **** public:
  13:src/../h/riscv.hpp ****     // pop spp and spie sstatus bits
  14:src/../h/riscv.hpp ****     static void popSppSpie();
  15:src/../h/riscv.hpp **** 
  16:src/../h/riscv.hpp ****     //push x3...x31 registers on stack
  17:src/../h/riscv.hpp ****     static void pushRegisters();
  18:src/../h/riscv.hpp **** 
  19:src/../h/riscv.hpp ****     //pop x3...x31 registers from stack
  20:src/../h/riscv.hpp ****     static void popRegisters();
  21:src/../h/riscv.hpp **** 
  22:src/../h/riscv.hpp ****     //read from scause register
  23:src/../h/riscv.hpp ****     static uint64 readScause();
  24:src/../h/riscv.hpp **** 
  25:src/../h/riscv.hpp ****     //write to scause register
  26:src/../h/riscv.hpp ****     static void writeScause(uint64 scause);
  27:src/../h/riscv.hpp **** 
  28:src/../h/riscv.hpp ****     //read from sepc register
  29:src/../h/riscv.hpp ****     static uint64 readSepc();
  30:src/../h/riscv.hpp **** 
  31:src/../h/riscv.hpp ****     //write to sepc register
  32:src/../h/riscv.hpp ****     static void writeSepc(uint64 sepc);
  33:src/../h/riscv.hpp **** 
  34:src/../h/riscv.hpp ****     //read from stvec register
  35:src/../h/riscv.hpp ****     static uint64 readStvec();
  36:src/../h/riscv.hpp **** 
  37:src/../h/riscv.hpp ****     //write to stvec register
  38:src/../h/riscv.hpp ****     static void writeStvec(uint64 stvec);
  39:src/../h/riscv.hpp **** 
  40:src/../h/riscv.hpp ****     enum SSTATUS
  41:src/../h/riscv.hpp ****     {
  42:src/../h/riscv.hpp ****         SIE = (1 << 1), //supervisor interrupt enable
  43:src/../h/riscv.hpp ****         SPIE = (1 << 5),//supervisor previous interrupt enable
GAS LISTING /tmp/cc6pGDbC.s 			page 5


  44:src/../h/riscv.hpp ****         SPP = (1 << 8), //supervisor previous privilege
  45:src/../h/riscv.hpp ****     };
  46:src/../h/riscv.hpp **** 
  47:src/../h/riscv.hpp ****     //set bit-mask bits in the sstatus register
  48:src/../h/riscv.hpp ****     static void setSstatus(uint64 mask);
  49:src/../h/riscv.hpp **** 
  50:src/../h/riscv.hpp ****     //clear bit-mask bits in the sstatus register
  51:src/../h/riscv.hpp ****     static void clearSstatus(uint64 mask);
  52:src/../h/riscv.hpp **** 
  53:src/../h/riscv.hpp ****     //read from sstatus register
  54:src/../h/riscv.hpp ****     static uint64 readSstatus();
  55:src/../h/riscv.hpp **** 
  56:src/../h/riscv.hpp ****     //write to sstatus register
  57:src/../h/riscv.hpp ****     static void writeSstatus(uint64 sstatus);
  58:src/../h/riscv.hpp **** 
  59:src/../h/riscv.hpp ****     enum SIP
  60:src/../h/riscv.hpp ****     {
  61:src/../h/riscv.hpp ****         SSIP = (1 << 1), //supervisor software interrupt pending
  62:src/../h/riscv.hpp ****         STIP = (1 << 5), //supervisor timer interrupt pending
  63:src/../h/riscv.hpp ****                          //(timer is configured to throw a software interrupt, so this is not used)
  64:src/../h/riscv.hpp ****         SEIP = (1 << 9), //supervisor external interrupt pending
  65:src/../h/riscv.hpp ****     };
  66:src/../h/riscv.hpp **** 
  67:src/../h/riscv.hpp ****     //set bit-mask bits in the sip register
  68:src/../h/riscv.hpp ****     static void setSip(uint64 mask);
  69:src/../h/riscv.hpp **** 
  70:src/../h/riscv.hpp ****     //clear bit-mask bits in the sip register
  71:src/../h/riscv.hpp ****     static void clearSip(uint64 mask);
  72:src/../h/riscv.hpp **** 
  73:src/../h/riscv.hpp ****     //read from sip register
  74:src/../h/riscv.hpp ****     static uint64 readSip();
  75:src/../h/riscv.hpp **** 
  76:src/../h/riscv.hpp ****     //write to sip register
  77:src/../h/riscv.hpp ****     static void writeSip(uint64 Sip);
  78:src/../h/riscv.hpp **** private:
  79:src/../h/riscv.hpp **** 
  80:src/../h/riscv.hpp **** };
  81:src/../h/riscv.hpp **** 
  82:src/../h/riscv.hpp **** inline uint64 RiscV::readScause() {
  83:src/../h/riscv.hpp ****     uint64 volatile scause;
  84:src/../h/riscv.hpp ****     asm volatile("csrr %[scause], scause": [scause] "=r" (scause));
  85:src/../h/riscv.hpp ****     return scause;
  86:src/../h/riscv.hpp **** }
  87:src/../h/riscv.hpp **** 
  88:src/../h/riscv.hpp **** inline void RiscV::writeScause(uint64 scause) {
  89:src/../h/riscv.hpp ****     asm volatile("csrw scause, %[scause]":: [scause] "r" (scause));
  90:src/../h/riscv.hpp **** }
  91:src/../h/riscv.hpp **** 
  92:src/../h/riscv.hpp **** inline uint64 RiscV::readSepc() {
  93:src/../h/riscv.hpp ****     uint64 volatile sepc;
  94:src/../h/riscv.hpp ****     asm volatile("csrr %[sepc], sepc": [sepc] "=r" (sepc));
  95:src/../h/riscv.hpp ****     return sepc;
  96:src/../h/riscv.hpp **** }
  97:src/../h/riscv.hpp **** 
  98:src/../h/riscv.hpp **** inline void RiscV::writeSepc(uint64 sepc) {
  99:src/../h/riscv.hpp ****     asm volatile("csrw sepc, %[sepc]":: [sepc] "r" (sepc));
 100:src/../h/riscv.hpp **** }
GAS LISTING /tmp/cc6pGDbC.s 			page 6


 101:src/../h/riscv.hpp **** 
 102:src/../h/riscv.hpp **** inline uint64 RiscV::readStvec() {
 103:src/../h/riscv.hpp ****     uint64 volatile stvec;
 104:src/../h/riscv.hpp ****     asm volatile("csrr %[stvec], stvec": [stvec] "=r" (stvec));
 105:src/../h/riscv.hpp ****     return stvec;
 106:src/../h/riscv.hpp **** }
 107:src/../h/riscv.hpp **** 
 108:src/../h/riscv.hpp **** inline void RiscV::writeStvec(uint64 stvec) {
 109:src/../h/riscv.hpp ****     asm volatile("csrw stvec, %[stvec]":: [stvec] "r" (stvec));
 110:src/../h/riscv.hpp **** }
 111:src/../h/riscv.hpp **** 
 112:src/../h/riscv.hpp **** inline void RiscV::setSstatus(uint64 mask) {
 113:src/../h/riscv.hpp ****     asm volatile("csrs sstatus, %[mask]":: [mask] "r" (mask));
  89              		.loc 3 113 5
  90              		.loc 3 113 62 is_stmt 0
  91 006c 93070010 		li	a5,256
  92              	#APP
  93              	# 113 "src/../h/riscv.hpp" 1
 114              	}
  94              		csrs sstatus, a5
  95              	# 0 "" 2
  96              	.LVL6:
  97              	#NO_APP
  98              	.LBE29:
  99              	.LBE28:
  70:src/tcb.cpp   ****     RiscV::setSstatus(0x0000000000000001UL << 5);
 100              		.loc 1 70 5 is_stmt 1
 101              	.LBB30:
 102              	.LBB31:
 113:src/../h/riscv.hpp **** }
 103              		.loc 3 113 5
 113:src/../h/riscv.hpp **** }
 104              		.loc 3 113 62 is_stmt 0
 105 0074 93070002 		li	a5,32
 106              	#APP
 107              	# 113 "src/../h/riscv.hpp" 1
 108              		csrs sstatus, a5
 109              	# 0 "" 2
 110              	.LVL7:
 111              	#NO_APP
 112              	.LBE31:
 113              	.LBE30:
  71:src/tcb.cpp   ****     RiscV::setSstatus(RiscV::SIE);
 114              		.loc 1 71 5 is_stmt 1
 115              	.LBB32:
 116              	.LBB33:
 113:src/../h/riscv.hpp **** }
 117              		.loc 3 113 5
 113:src/../h/riscv.hpp **** }
 118              		.loc 3 113 62 is_stmt 0
 119 007c 93072000 		li	a5,2
 120              	#APP
 121              	# 113 "src/../h/riscv.hpp" 1
 122              		csrs sstatus, a5
 123              	# 0 "" 2
 124              	.LVL8:
 125              	#NO_APP
GAS LISTING /tmp/cc6pGDbC.s 			page 7


 126              	.LBE33:
 127              	.LBE32:
  72:src/tcb.cpp   ****     RiscV::popSppSpie();
 128              		.loc 1 72 5 is_stmt 1
 129              		.loc 1 72 22 is_stmt 0
 130 0084 97000000 		call	_ZN5RiscV10popSppSpieEv@plt
 130      E7800000 
 131              	.LVL9:
  73:src/tcb.cpp   ****     running->body(running->args);
 132              		.loc 1 73 5 is_stmt 1
 133              		.loc 1 73 14 is_stmt 0
 134 008c 97070000 		ld	a5,.LANCHOR0
 134      83B70700 
 135 0094 03B70700 		ld	a4,0(a5)
 136              		.loc 1 73 18
 137 0098 03B58700 		ld	a0,8(a5)
 138 009c E7000700 		jalr	a4
 139              	.LVL10:
  74:src/tcb.cpp   ****     //running->setFinished(true);
  75:src/tcb.cpp   ****     thread_exit();
 140              		.loc 1 75 5 is_stmt 1
 141              		.loc 1 75 16 is_stmt 0
 142 00a0 97000000 		call	thread_exit@plt
 142      E7800000 
 143              	.LVL11:
  76:src/tcb.cpp   ****     //thread_dispatch();
  77:src/tcb.cpp   **** }
 144              		.loc 1 77 1
 145 00a8 83308100 		ld	ra,8(sp)
 146              		.cfi_restore 1
 147 00ac 03340100 		ld	s0,0(sp)
 148              		.cfi_restore 8
 149              		.cfi_def_cfa 2, 16
 150 00b0 13010101 		addi	sp,sp,16
 151              		.cfi_def_cfa_offset 0
 152 00b4 67800000 		jr	ra
 153              		.cfi_endproc
 154              	.LFE60:
 156              		.align	2
 157              		.globl	_ZN3TCBC2EPFvPvES0_mbb
 159              	_ZN3TCBC2EPFvPvES0_mbb:
 160              	.LFB56:
  35:src/tcb.cpp   **** : body(body),
 161              		.loc 1 35 1 is_stmt 1
 162              		.cfi_startproc
 163              	.LVL12:
 164 00b8 130101FC 		addi	sp,sp,-64
 165              		.cfi_def_cfa_offset 64
 166 00bc 233C1102 		sd	ra,56(sp)
 167 00c0 23388102 		sd	s0,48(sp)
 168 00c4 23349102 		sd	s1,40(sp)
 169 00c8 23302103 		sd	s2,32(sp)
 170 00cc 233C3101 		sd	s3,24(sp)
 171 00d0 23384101 		sd	s4,16(sp)
 172 00d4 23345101 		sd	s5,8(sp)
 173              		.cfi_offset 1, -8
 174              		.cfi_offset 8, -16
GAS LISTING /tmp/cc6pGDbC.s 			page 8


 175              		.cfi_offset 9, -24
 176              		.cfi_offset 18, -32
 177              		.cfi_offset 19, -40
 178              		.cfi_offset 20, -48
 179              		.cfi_offset 21, -56
 180 00d8 13040104 		addi	s0,sp,64
 181              		.cfi_def_cfa 8, 0
 182 00dc 93040500 		mv	s1,a0
 183 00e0 13890500 		mv	s2,a1
 184 00e4 93890600 		mv	s3,a3
 185 00e8 130A0700 		mv	s4,a4
 186 00ec 938A0700 		mv	s5,a5
 187              	.LBB34:
  45:src/tcb.cpp   **** {
 188              		.loc 1 45 10 is_stmt 0
 189 00f0 2330B500 		sd	a1,0(a0)
 190 00f4 2334C500 		sd	a2,8(a0)
  38:src/tcb.cpp   **** finished(false),
 191              		.loc 1 38 23
 192 00f8 63880506 		beqz	a1,.L11
  38:src/tcb.cpp   **** finished(false),
 193              		.loc 1 38 59 discriminator 1
 194 00fc 37850000 		li	a0,32768
 195              	.LVL13:
 196 0100 97000000 		call	_ZN15MemoryAllocator8allocateEm@plt
 196      E7800000 
 197              	.LVL14:
 198              	.L6:
  45:src/tcb.cpp   **** {
 199              		.loc 1 45 10
 200 0108 23B8A400 		sd	a0,16(s1)
 201 010c 238C0400 		sb	zero,24(s1)
 202 0110 A38C0400 		sb	zero,25(s1)
 203 0114 23B03403 		sd	s3,32(s1)
  43:src/tcb.cpp   ****     stack != nullptr ? (uint64) &stack[DEFAULT_STACK_SIZE] : 0
 204              		.loc 1 43 21
 205 0118 63020906 		beqz	s2,.L12
  43:src/tcb.cpp   ****     stack != nullptr ? (uint64) &stack[DEFAULT_STACK_SIZE] : 0
 206              		.loc 1 43 21 discriminator 1
 207 011c 638A0A04 		beqz	s5,.L13
  43:src/tcb.cpp   ****     stack != nullptr ? (uint64) &stack[DEFAULT_STACK_SIZE] : 0
 208              		.loc 1 43 21
 209 0120 97070000 		lla	a5,_ZN3TCB14sThreadWrapperEv
 209      93870700 
 210              	.L7:
  45:src/tcb.cpp   **** {
 211              		.loc 1 45 10
 212 0128 23B4F402 		sd	a5,40(s1)
  44:src/tcb.cpp   ****         })
 213              		.loc 1 44 22
 214 012c 630C0504 		beqz	a0,.L14
  44:src/tcb.cpp   ****         })
 215              		.loc 1 44 33 discriminator 1
 216 0130 B7870000 		li	a5,32768
 217 0134 3305F500 		add	a0,a0,a5
 218              	.L9:
  45:src/tcb.cpp   **** {
GAS LISTING /tmp/cc6pGDbC.s 			page 9


 219              		.loc 1 45 10
 220 0138 23B8A402 		sd	a0,48(s1)
  47:src/tcb.cpp   **** }
 221              		.loc 1 47 5 is_stmt 1
 222 013c 63040900 		beqz	s2,.L5
  47:src/tcb.cpp   **** }
 223              		.loc 1 47 25 is_stmt 0 discriminator 1
 224 0140 63160A04 		bnez	s4,.L16
 225              	.L5:
 226              	.LBE34:
  48:src/tcb.cpp   **** 
 227              		.loc 1 48 1
 228 0144 83308103 		ld	ra,56(sp)
 229              		.cfi_remember_state
 230              		.cfi_restore 1
 231 0148 03340103 		ld	s0,48(sp)
 232              		.cfi_restore 8
 233              		.cfi_def_cfa 2, 64
 234 014c 83348102 		ld	s1,40(sp)
 235              		.cfi_restore 9
 236              	.LVL15:
 237 0150 03390102 		ld	s2,32(sp)
 238              		.cfi_restore 18
 239              	.LVL16:
 240 0154 83398101 		ld	s3,24(sp)
 241              		.cfi_restore 19
 242              	.LVL17:
 243 0158 033A0101 		ld	s4,16(sp)
 244              		.cfi_restore 20
 245 015c 833A8100 		ld	s5,8(sp)
 246              		.cfi_restore 21
 247 0160 13010104 		addi	sp,sp,64
 248              		.cfi_def_cfa_offset 0
 249 0164 67800000 		jr	ra
 250              	.LVL18:
 251              	.L11:
 252              		.cfi_restore_state
 253              	.LBB35:
  38:src/tcb.cpp   **** finished(false),
 254              		.loc 1 38 23
 255 0168 13050000 		li	a0,0
 256 016c 6FF0DFF9 		j	.L6
 257              	.LVL19:
 258              	.L13:
  43:src/tcb.cpp   ****     stack != nullptr ? (uint64) &stack[DEFAULT_STACK_SIZE] : 0
 259              		.loc 1 43 21
 260 0170 97070000 		lla	a5,_ZN3TCB13threadWrapperEv
 260      93870700 
 261 0178 6FF01FFB 		j	.L7
 262              	.L12:
 263 017c 93070000 		li	a5,0
 264 0180 6FF09FFA 		j	.L7
 265              	.L14:
  44:src/tcb.cpp   ****         })
 266              		.loc 1 44 22
 267 0184 13050000 		li	a0,0
 268 0188 6FF01FFB 		j	.L9
GAS LISTING /tmp/cc6pGDbC.s 			page 10


 269              	.L16:
  47:src/tcb.cpp   **** }
 270              		.loc 1 47 35 is_stmt 1 discriminator 2
  47:src/tcb.cpp   **** }
 271              		.loc 1 47 49 is_stmt 0 discriminator 2
 272 018c 13850400 		mv	a0,s1
 273 0190 97000000 		call	_ZN9Scheduler3putEP3TCB@plt
 273      E7800000 
 274              	.LVL20:
 275              	.LBE35:
  48:src/tcb.cpp   **** 
 276              		.loc 1 48 1 discriminator 2
 277 0198 6FF0DFFA 		j	.L5
 278              		.cfi_endproc
 279              	.LFE56:
 281              		.globl	_ZN3TCBC1EPFvPvES0_mbb
 282              		.set	_ZN3TCBC1EPFvPvES0_mbb,_ZN3TCBC2EPFvPvES0_mbb
 283              		.align	2
 284              		.globl	_ZN3TCB9createTCBEPFvPvES0_
 286              	_ZN3TCB9createTCBEPFvPvES0_:
 287              	.LFB52:
  14:src/tcb.cpp   ****     return new TCB(body, args, DEFAULT_TIME_SLICE, 1, 0);
 288              		.loc 1 14 49 is_stmt 1
 289              		.cfi_startproc
 290              		.cfi_personality 0x9b,DW.ref.__gxx_personality_v0
 291              		.cfi_lsda 0x1b,.LLSDA52
 292              	.LVL21:
 293 019c 130101FD 		addi	sp,sp,-48
 294              		.cfi_def_cfa_offset 48
 295 01a0 23341102 		sd	ra,40(sp)
 296 01a4 23308102 		sd	s0,32(sp)
 297 01a8 233C9100 		sd	s1,24(sp)
 298 01ac 23382101 		sd	s2,16(sp)
 299 01b0 23343101 		sd	s3,8(sp)
 300              		.cfi_offset 1, -8
 301              		.cfi_offset 8, -16
 302              		.cfi_offset 9, -24
 303              		.cfi_offset 18, -32
 304              		.cfi_offset 19, -40
 305 01b4 13040103 		addi	s0,sp,48
 306              		.cfi_def_cfa 8, 0
 307 01b8 13090500 		mv	s2,a0
 308 01bc 93890500 		mv	s3,a1
  15:src/tcb.cpp   **** }
 309              		.loc 1 15 5
 310              	.LVL22:
 311              	.LBB36:
 312              	.LBB37:
  29:src/../h/tcb.hpp **** 
  30:src/../h/tcb.hpp ****     bool isBlocked() const { return blocked; }
  31:src/../h/tcb.hpp **** 
  32:src/../h/tcb.hpp ****     void setBlocked(bool val) { blocked = val; }
  33:src/../h/tcb.hpp **** 
  34:src/../h/tcb.hpp ****     uint64 getTimeSlice() const { return timeSlice; }
  35:src/../h/tcb.hpp **** 
  36:src/../h/tcb.hpp ****     static TCB* running;
  37:src/../h/tcb.hpp **** 
GAS LISTING /tmp/cc6pGDbC.s 			page 11


  38:src/../h/tcb.hpp ****     //static void yield();
  39:src/../h/tcb.hpp **** 
  40:src/../h/tcb.hpp ****     static void dispatch();
  41:src/../h/tcb.hpp **** 
  42:src/../h/tcb.hpp ****     static void incTimeSliceCounter() { timeSliceCounter++; }
  43:src/../h/tcb.hpp ****     static uint64 getTimeSliceCounter() { return timeSliceCounter; }
  44:src/../h/tcb.hpp ****     static void resetTimeSliceCounter() { timeSliceCounter = 0; }
  45:src/../h/tcb.hpp **** 
  46:src/../h/tcb.hpp ****     ~TCB() { MemoryAllocator::free(stack); }
  47:src/../h/tcb.hpp **** 
  48:src/../h/tcb.hpp ****     void* operator new(size_t size) {
  49:src/../h/tcb.hpp ****         return MemoryAllocator::allocate(size);
 313              		.loc 2 49 9
 314              		.loc 2 49 41 is_stmt 0
 315 01c0 13058003 		li	a0,56
 316              	.LVL23:
 317              	.LEHB0:
 318 01c4 97000000 		call	_ZN15MemoryAllocator8allocateEm@plt
 318      E7800000 
 319              	.LVL24:
 320              	.LEHE0:
 321 01cc 93040500 		mv	s1,a0
 322              	.LVL25:
 323              	.LBE37:
 324              	.LBE36:
  15:src/tcb.cpp   **** }
 325              		.loc 1 15 56
 326 01d0 93070000 		li	a5,0
 327 01d4 13071000 		li	a4,1
 328 01d8 93062000 		li	a3,2
 329 01dc 13860900 		mv	a2,s3
 330 01e0 93050900 		mv	a1,s2
 331              	.LEHB1:
 332 01e4 97000000 		call	_ZN3TCBC1EPFvPvES0_mbb
 332      E7800000 
 333              	.LVL26:
 334              	.LEHE1:
 335 01ec 6F000002 		j	.L22
 336              	.L19:
 337 01f0 13090500 		mv	s2,a0
 338              	.LVL27:
 339              	.LBB38:
 340              	.LBB39:
  50:src/../h/tcb.hpp ****     }
  51:src/../h/tcb.hpp **** 
  52:src/../h/tcb.hpp ****     void* operator new[](size_t size) {
  53:src/../h/tcb.hpp ****         return MemoryAllocator::allocate(size);
  54:src/../h/tcb.hpp ****     }
  55:src/../h/tcb.hpp **** 
  56:src/../h/tcb.hpp ****     void operator delete(void* ptr) {
  57:src/../h/tcb.hpp ****         MemoryAllocator::free(ptr);
 341              		.loc 2 57 9 is_stmt 1
 342              		.loc 2 57 30 is_stmt 0
 343 01f4 13850400 		mv	a0,s1
 344 01f8 97000000 		call	_ZN15MemoryAllocator4freeEPv@plt
 344      E7800000 
 345              	.LVL28:
GAS LISTING /tmp/cc6pGDbC.s 			page 12


 346 0200 13050900 		mv	a0,s2
 347              	.LEHB2:
 348 0204 97000000 		call	_Unwind_Resume@plt
 348      E7800000 
 349              	.LVL29:
 350              	.LEHE2:
 351              	.L22:
 352              	.LBE39:
 353              	.LBE38:
  16:src/tcb.cpp   **** 
 354              		.loc 1 16 1
 355 020c 13850400 		mv	a0,s1
 356 0210 83308102 		ld	ra,40(sp)
 357              		.cfi_restore 1
 358 0214 03340102 		ld	s0,32(sp)
 359              		.cfi_restore 8
 360              		.cfi_def_cfa 2, 48
 361 0218 83348101 		ld	s1,24(sp)
 362              		.cfi_restore 9
 363 021c 03390101 		ld	s2,16(sp)
 364              		.cfi_restore 18
 365              	.LVL30:
 366 0220 83398100 		ld	s3,8(sp)
 367              		.cfi_restore 19
 368              	.LVL31:
 369 0224 13010103 		addi	sp,sp,48
 370              		.cfi_def_cfa_offset 0
 371 0228 67800000 		jr	ra
 372              		.cfi_endproc
 373              	.LFE52:
 374              		.globl	__gxx_personality_v0
 375              		.section	.gcc_except_table,"a",@progbits
 376              	.LLSDA52:
 377 0000 FF       		.byte	0xff
 378 0001 FF       		.byte	0xff
 379 0002 03       		.byte	0x3
 380 0003 27       		.byte	0x27
 381 0004 00000000 		.4byte	.LEHB0-.LFB52
 382 0008 00000000 		.4byte	.LEHE0-.LEHB0
 383 000c 00000000 		.4byte	0
 384 0010 00       		.byte	0
 385 0011 00000000 		.4byte	.LEHB1-.LFB52
 386 0015 00000000 		.4byte	.LEHE1-.LEHB1
 387 0019 00000000 		.4byte	.L19-.LFB52
 388 001d 00       		.byte	0
 389 001e 00000000 		.4byte	.LEHB2-.LFB52
 390 0022 00000000 		.4byte	.LEHE2-.LEHB2
 391 0026 00000000 		.4byte	0
 392 002a 00       		.byte	0
 393              		.text
 395              		.align	2
 396              		.globl	_ZN3TCB20createDeactivatedTCBEPFvPvES0_
 398              	_ZN3TCB20createDeactivatedTCBEPFvPvES0_:
 399              	.LFB53:
  18:src/tcb.cpp   ****     return new TCB(body, args, DEFAULT_TIME_SLICE, 0, 0);
 400              		.loc 1 18 60 is_stmt 1
 401              		.cfi_startproc
GAS LISTING /tmp/cc6pGDbC.s 			page 13


 402              		.cfi_personality 0x9b,DW.ref.__gxx_personality_v0
 403              		.cfi_lsda 0x1b,.LLSDA53
 404              	.LVL32:
 405 022c 130101FD 		addi	sp,sp,-48
 406              		.cfi_def_cfa_offset 48
 407 0230 23341102 		sd	ra,40(sp)
 408 0234 23308102 		sd	s0,32(sp)
 409 0238 233C9100 		sd	s1,24(sp)
 410 023c 23382101 		sd	s2,16(sp)
 411 0240 23343101 		sd	s3,8(sp)
 412              		.cfi_offset 1, -8
 413              		.cfi_offset 8, -16
 414              		.cfi_offset 9, -24
 415              		.cfi_offset 18, -32
 416              		.cfi_offset 19, -40
 417 0244 13040103 		addi	s0,sp,48
 418              		.cfi_def_cfa 8, 0
 419 0248 13090500 		mv	s2,a0
 420 024c 93890500 		mv	s3,a1
  19:src/tcb.cpp   **** }
 421              		.loc 1 19 5
 422              	.LVL33:
 423              	.LBB40:
 424              	.LBB41:
  49:src/../h/tcb.hpp ****     }
 425              		.loc 2 49 9
  49:src/../h/tcb.hpp ****     }
 426              		.loc 2 49 41 is_stmt 0
 427 0250 13058003 		li	a0,56
 428              	.LVL34:
 429              	.LEHB3:
 430 0254 97000000 		call	_ZN15MemoryAllocator8allocateEm@plt
 430      E7800000 
 431              	.LVL35:
 432              	.LEHE3:
 433 025c 93040500 		mv	s1,a0
 434              	.LVL36:
 435              	.LBE41:
 436              	.LBE40:
  19:src/tcb.cpp   **** }
 437              		.loc 1 19 56
 438 0260 93070000 		li	a5,0
 439 0264 13070000 		li	a4,0
 440 0268 93062000 		li	a3,2
 441 026c 13860900 		mv	a2,s3
 442 0270 93050900 		mv	a1,s2
 443              	.LEHB4:
 444 0274 97000000 		call	_ZN3TCBC1EPFvPvES0_mbb
 444      E7800000 
 445              	.LVL37:
 446              	.LEHE4:
 447 027c 6F000002 		j	.L28
 448              	.L25:
 449 0280 13090500 		mv	s2,a0
 450              	.LVL38:
 451              	.LBB42:
 452              	.LBB43:
GAS LISTING /tmp/cc6pGDbC.s 			page 14


 453              		.loc 2 57 9 is_stmt 1
 454              		.loc 2 57 30 is_stmt 0
 455 0284 13850400 		mv	a0,s1
 456 0288 97000000 		call	_ZN15MemoryAllocator4freeEPv@plt
 456      E7800000 
 457              	.LVL39:
 458 0290 13050900 		mv	a0,s2
 459              	.LEHB5:
 460 0294 97000000 		call	_Unwind_Resume@plt
 460      E7800000 
 461              	.LVL40:
 462              	.LEHE5:
 463              	.L28:
 464              	.LBE43:
 465              	.LBE42:
  20:src/tcb.cpp   **** 
 466              		.loc 1 20 1
 467 029c 13850400 		mv	a0,s1
 468 02a0 83308102 		ld	ra,40(sp)
 469              		.cfi_restore 1
 470 02a4 03340102 		ld	s0,32(sp)
 471              		.cfi_restore 8
 472              		.cfi_def_cfa 2, 48
 473 02a8 83348101 		ld	s1,24(sp)
 474              		.cfi_restore 9
 475 02ac 03390101 		ld	s2,16(sp)
 476              		.cfi_restore 18
 477              	.LVL41:
 478 02b0 83398100 		ld	s3,8(sp)
 479              		.cfi_restore 19
 480              	.LVL42:
 481 02b4 13010103 		addi	sp,sp,48
 482              		.cfi_def_cfa_offset 0
 483 02b8 67800000 		jr	ra
 484              		.cfi_endproc
 485              	.LFE53:
 486              		.section	.gcc_except_table
 487              	.LLSDA53:
 488 002b FF       		.byte	0xff
 489 002c FF       		.byte	0xff
 490 002d 03       		.byte	0x3
 491 002e 27       		.byte	0x27
 492 002f 00000000 		.4byte	.LEHB3-.LFB53
 493 0033 00000000 		.4byte	.LEHE3-.LEHB3
 494 0037 00000000 		.4byte	0
 495 003b 00       		.byte	0
 496 003c 00000000 		.4byte	.LEHB4-.LFB53
 497 0040 00000000 		.4byte	.LEHE4-.LEHB4
 498 0044 00000000 		.4byte	.L25-.LFB53
 499 0048 00       		.byte	0
 500 0049 00000000 		.4byte	.LEHB5-.LFB53
 501 004d 00000000 		.4byte	.LEHE5-.LEHB5
 502 0051 00000000 		.4byte	0
 503 0055 00       		.byte	0
 504              		.text
 506              		.align	2
 507              		.globl	_ZN3TCB19createSupervisorTCBEPFvPvES0_
GAS LISTING /tmp/cc6pGDbC.s 			page 15


 509              	_ZN3TCB19createSupervisorTCBEPFvPvES0_:
 510              	.LFB54:
  22:src/tcb.cpp   ****     return new TCB
 511              		.loc 1 22 59 is_stmt 1
 512              		.cfi_startproc
 513              		.cfi_personality 0x9b,DW.ref.__gxx_personality_v0
 514              		.cfi_lsda 0x1b,.LLSDA54
 515              	.LVL43:
 516 02bc 130101FD 		addi	sp,sp,-48
 517              		.cfi_def_cfa_offset 48
 518 02c0 23341102 		sd	ra,40(sp)
 519 02c4 23308102 		sd	s0,32(sp)
 520 02c8 233C9100 		sd	s1,24(sp)
 521 02cc 23382101 		sd	s2,16(sp)
 522 02d0 23343101 		sd	s3,8(sp)
 523              		.cfi_offset 1, -8
 524              		.cfi_offset 8, -16
 525              		.cfi_offset 9, -24
 526              		.cfi_offset 18, -32
 527              		.cfi_offset 19, -40
 528 02d4 13040103 		addi	s0,sp,48
 529              		.cfi_def_cfa 8, 0
 530 02d8 13090500 		mv	s2,a0
 531 02dc 93890500 		mv	s3,a1
  23:src/tcb.cpp   ****     (body, args,DEFAULT_TIME_SLICE, true, true);
 532              		.loc 1 23 5
 533              	.LVL44:
 534              	.LBB44:
 535              	.LBB45:
  49:src/../h/tcb.hpp ****     }
 536              		.loc 2 49 9
  49:src/../h/tcb.hpp ****     }
 537              		.loc 2 49 41 is_stmt 0
 538 02e0 13058003 		li	a0,56
 539              	.LVL45:
 540              	.LEHB6:
 541 02e4 97000000 		call	_ZN15MemoryAllocator8allocateEm@plt
 541      E7800000 
 542              	.LVL46:
 543              	.LEHE6:
 544 02ec 93040500 		mv	s1,a0
 545              	.LVL47:
 546              	.LBE45:
 547              	.LBE44:
  24:src/tcb.cpp   **** }
 548              		.loc 1 24 47
 549 02f0 93071000 		li	a5,1
 550 02f4 13071000 		li	a4,1
 551 02f8 93062000 		li	a3,2
 552 02fc 13860900 		mv	a2,s3
 553 0300 93050900 		mv	a1,s2
 554              	.LEHB7:
 555 0304 97000000 		call	_ZN3TCBC1EPFvPvES0_mbb
 555      E7800000 
 556              	.LVL48:
 557              	.LEHE7:
 558 030c 6F000002 		j	.L34
GAS LISTING /tmp/cc6pGDbC.s 			page 16


 559              	.L31:
 560 0310 13090500 		mv	s2,a0
 561              	.LVL49:
 562              	.LBB46:
 563              	.LBB47:
 564              		.loc 2 57 9 is_stmt 1
 565              		.loc 2 57 30 is_stmt 0
 566 0314 13850400 		mv	a0,s1
 567 0318 97000000 		call	_ZN15MemoryAllocator4freeEPv@plt
 567      E7800000 
 568              	.LVL50:
 569 0320 13050900 		mv	a0,s2
 570              	.LEHB8:
 571 0324 97000000 		call	_Unwind_Resume@plt
 571      E7800000 
 572              	.LVL51:
 573              	.LEHE8:
 574              	.L34:
 575              	.LBE47:
 576              	.LBE46:
  25:src/tcb.cpp   **** /*void TCB::yield() {
 577              		.loc 1 25 1
 578 032c 13850400 		mv	a0,s1
 579 0330 83308102 		ld	ra,40(sp)
 580              		.cfi_restore 1
 581 0334 03340102 		ld	s0,32(sp)
 582              		.cfi_restore 8
 583              		.cfi_def_cfa 2, 48
 584 0338 83348101 		ld	s1,24(sp)
 585              		.cfi_restore 9
 586 033c 03390101 		ld	s2,16(sp)
 587              		.cfi_restore 18
 588              	.LVL52:
 589 0340 83398100 		ld	s3,8(sp)
 590              		.cfi_restore 19
 591              	.LVL53:
 592 0344 13010103 		addi	sp,sp,48
 593              		.cfi_def_cfa_offset 0
 594 0348 67800000 		jr	ra
 595              		.cfi_endproc
 596              	.LFE54:
 597              		.section	.gcc_except_table
 598              	.LLSDA54:
 599 0056 FF       		.byte	0xff
 600 0057 FF       		.byte	0xff
 601 0058 03       		.byte	0x3
 602 0059 27       		.byte	0x27
 603 005a 00000000 		.4byte	.LEHB6-.LFB54
 604 005e 00000000 		.4byte	.LEHE6-.LEHB6
 605 0062 00000000 		.4byte	0
 606 0066 00       		.byte	0
 607 0067 00000000 		.4byte	.LEHB7-.LFB54
 608 006b 00000000 		.4byte	.LEHE7-.LEHB7
 609 006f 00000000 		.4byte	.L31-.LFB54
 610 0073 00       		.byte	0
 611 0074 00000000 		.4byte	.LEHB8-.LFB54
 612 0078 00000000 		.4byte	.LEHE8-.LEHB8
GAS LISTING /tmp/cc6pGDbC.s 			page 17


 613 007c 00000000 		.4byte	0
 614 0080 00       		.byte	0
 615              		.text
 617              		.align	2
 618              		.globl	_ZN3TCB8dispatchEv
 620              	_ZN3TCB8dispatchEv:
 621              	.LFB58:
  51:src/tcb.cpp   ****     //__print_string("hello\n");
 622              		.loc 1 51 22 is_stmt 1
 623              		.cfi_startproc
 624 034c 130101FE 		addi	sp,sp,-32
 625              		.cfi_def_cfa_offset 32
 626 0350 233C1100 		sd	ra,24(sp)
 627 0354 23388100 		sd	s0,16(sp)
 628 0358 23349100 		sd	s1,8(sp)
 629              		.cfi_offset 1, -8
 630              		.cfi_offset 8, -16
 631              		.cfi_offset 9, -24
 632 035c 13040102 		addi	s0,sp,32
 633              		.cfi_def_cfa 8, 0
  53:src/tcb.cpp   ****     if (!old->isFinished() && !old->isBlocked()) { Scheduler::put(old); }
 634              		.loc 1 53 5
  53:src/tcb.cpp   ****     if (!old->isFinished() && !old->isBlocked()) { Scheduler::put(old); }
 635              		.loc 1 53 10 is_stmt 0
 636 0360 97040000 		ld	s1,.LANCHOR0
 636      83B40400 
 637              	.LVL54:
  54:src/tcb.cpp   ****     running = Scheduler::get();
 638              		.loc 1 54 5 is_stmt 1
 639              	.LBB48:
 640              	.LBB49:
  26:src/../h/tcb.hpp **** 
 641              		.loc 2 26 31
  26:src/../h/tcb.hpp **** 
 642              		.loc 2 26 38 is_stmt 0
 643 0368 83C78401 		lbu	a5,24(s1)
 644              	.LVL55:
 645              	.LBE49:
 646              	.LBE48:
  54:src/tcb.cpp   ****     running = Scheduler::get();
 647              		.loc 1 54 28
 648 036c 63960700 		bnez	a5,.L36
 649              	.LVL56:
 650              	.LBB50:
 651              	.LBB51:
  30:src/../h/tcb.hpp **** 
 652              		.loc 2 30 30 is_stmt 1
  30:src/../h/tcb.hpp **** 
 653              		.loc 2 30 37 is_stmt 0
 654 0370 83C79401 		lbu	a5,25(s1)
 655              	.LVL57:
 656              	.LBE51:
 657              	.LBE50:
  54:src/tcb.cpp   ****     running = Scheduler::get();
 658              		.loc 1 54 28
 659 0374 638C0702 		beqz	a5,.L38
 660              	.L36:
GAS LISTING /tmp/cc6pGDbC.s 			page 18


  55:src/tcb.cpp   **** 
 661              		.loc 1 55 5 is_stmt 1
  55:src/tcb.cpp   **** 
 662              		.loc 1 55 29 is_stmt 0
 663 0378 97000000 		call	_ZN9Scheduler3getEv@plt
 663      E7800000 
 664              	.LVL58:
  55:src/tcb.cpp   **** 
 665              		.loc 1 55 13
 666 0380 97070000 		sd	a0,.LANCHOR0,a5
 666      23B0A700 
  57:src/tcb.cpp   **** }
 667              		.loc 1 57 5 is_stmt 1
  57:src/tcb.cpp   **** }
 668              		.loc 1 57 23 is_stmt 0
 669 0388 93058502 		addi	a1,a0,40
 670 038c 13858402 		addi	a0,s1,40
 671 0390 97000000 		call	_ZN3TCB13contextSwitchEPNS_7ContextES1_@plt
 671      E7800000 
 672              	.LVL59:
  58:src/tcb.cpp   **** 
 673              		.loc 1 58 1
 674 0398 83308101 		ld	ra,24(sp)
 675              		.cfi_remember_state
 676              		.cfi_restore 1
 677 039c 03340101 		ld	s0,16(sp)
 678              		.cfi_restore 8
 679              		.cfi_def_cfa 2, 32
 680 03a0 83348100 		ld	s1,8(sp)
 681              		.cfi_restore 9
 682              	.LVL60:
 683 03a4 13010102 		addi	sp,sp,32
 684              		.cfi_def_cfa_offset 0
 685 03a8 67800000 		jr	ra
 686              	.LVL61:
 687              	.L38:
 688              		.cfi_restore_state
  54:src/tcb.cpp   ****     running = Scheduler::get();
 689              		.loc 1 54 52 is_stmt 1
  54:src/tcb.cpp   ****     running = Scheduler::get();
 690              		.loc 1 54 66 is_stmt 0
 691 03ac 13850400 		mv	a0,s1
 692 03b0 97000000 		call	_ZN9Scheduler3putEP3TCB@plt
 692      E7800000 
 693              	.LVL62:
 694 03b8 6FF01FFC 		j	.L36
 695              		.cfi_endproc
 696              	.LFE58:
 698              		.globl	_ZN3TCB16timeSliceCounterE
 699              		.globl	_ZN3TCB7runningE
 700              		.bss
 701              		.align	3
 702              		.set	.LANCHOR0,. + 0
 705              	_ZN3TCB7runningE:
 706 0000 00000000 		.zero	8
 706      00000000 
 709              	_ZN3TCB16timeSliceCounterE:
GAS LISTING /tmp/cc6pGDbC.s 			page 19


 710 0008 00000000 		.zero	8
 710      00000000 
 711              		.text
 712              	.Letext0:
 713              		.file 4 "src/../h/../lib/hw.h"
 714              		.file 5 "src/../h/memory_allocator.hpp"
 715              		.file 6 "src/../h/scheduler.hpp"
 716              		.file 7 "src/../h/list.hpp"
 717              		.file 8 "src/../h/syscall_c.h"
 4519              		.align	3
 4522              	DW.ref.__gxx_personality_v0:
 4523 0000 00000000 		.dword	__gxx_personality_v0
 4523      00000000 
 4524              		.ident	"GCC: (Ubuntu 9.4.0-1ubuntu1~20.04) 9.4.0"
 4525              		.section	.note.GNU-stack,"",@progbits
GAS LISTING /tmp/cc6pGDbC.s 			page 20


DEFINED SYMBOLS
                            *ABS*:0000000000000000 tcb.cpp
     /tmp/cc6pGDbC.s:9      .text:0000000000000000 _ZN3TCB13threadWrapperEv
     /tmp/cc6pGDbC.s:13     .text:0000000000000000 .L0 
     /tmp/cc6pGDbC.s:14     .text:0000000000000000 .L0 
     /tmp/cc6pGDbC.s:15     .text:0000000000000004 .L0 
     /tmp/cc6pGDbC.s:19     .text:0000000000000010 .L0 
     /tmp/cc6pGDbC.s:20     .text:0000000000000010 .L0 
     /tmp/cc6pGDbC.s:21     .text:0000000000000010 .L0 
     /tmp/cc6pGDbC.s:23     .text:0000000000000014 .L0 
     /tmp/cc6pGDbC.s:25     .text:0000000000000014 .L0 
     /tmp/cc6pGDbC.s:26     .text:0000000000000014 .L0 
     /tmp/cc6pGDbC.s:29     .text:000000000000001c .L0 
     /tmp/cc6pGDbC.s:30     .text:000000000000001c .L0 
     /tmp/cc6pGDbC.s:34     .text:000000000000002c .L0 
     /tmp/cc6pGDbC.s:38     .text:0000000000000034 .L0 
     /tmp/cc6pGDbC.s:39     .text:0000000000000034 .L0 
     /tmp/cc6pGDbC.s:45     .text:0000000000000038 .L0 
     /tmp/cc6pGDbC.s:46     .text:0000000000000038 .L0 
     /tmp/cc6pGDbC.s:52     .text:0000000000000040 .L0 
     /tmp/cc6pGDbC.s:53     .text:0000000000000040 .L0 
     /tmp/cc6pGDbC.s:56     .text:0000000000000048 .L0 
     /tmp/cc6pGDbC.s:57     .text:000000000000004c .L0 
     /tmp/cc6pGDbC.s:59     .text:0000000000000050 .L0 
     /tmp/cc6pGDbC.s:60     .text:0000000000000050 .L0 
     /tmp/cc6pGDbC.s:62     .text:0000000000000054 .L0 
     /tmp/cc6pGDbC.s:64     .text:0000000000000058 .L0 
     /tmp/cc6pGDbC.s:66     .text:000000000000005c .L0 
     /tmp/cc6pGDbC.s:72     .text:000000000000005c _ZN3TCB14sThreadWrapperEv
     /tmp/cc6pGDbC.s:75     .text:000000000000005c .L0 
     /tmp/cc6pGDbC.s:76     .text:000000000000005c .L0 
     /tmp/cc6pGDbC.s:77     .text:0000000000000060 .L0 
     /tmp/cc6pGDbC.s:80     .text:0000000000000068 .L0 
     /tmp/cc6pGDbC.s:81     .text:0000000000000068 .L0 
     /tmp/cc6pGDbC.s:83     .text:000000000000006c .L0 
     /tmp/cc6pGDbC.s:89     .text:000000000000006c .L0 
     /tmp/cc6pGDbC.s:90     .text:000000000000006c .L0 
     /tmp/cc6pGDbC.s:91     .text:000000000000006c .L0 
     /tmp/cc6pGDbC.s:103    .text:0000000000000074 .L0 
     /tmp/cc6pGDbC.s:104    .text:0000000000000074 .L0 
     /tmp/cc6pGDbC.s:105    .text:0000000000000074 .L0 
     /tmp/cc6pGDbC.s:117    .text:000000000000007c .L0 
     /tmp/cc6pGDbC.s:118    .text:000000000000007c .L0 
     /tmp/cc6pGDbC.s:119    .text:000000000000007c .L0 
     /tmp/cc6pGDbC.s:129    .text:0000000000000084 .L0 
     /tmp/cc6pGDbC.s:130    .text:0000000000000084 .L0 
     /tmp/cc6pGDbC.s:133    .text:000000000000008c .L0 
     /tmp/cc6pGDbC.s:134    .text:000000000000008c .L0 
     /tmp/cc6pGDbC.s:137    .text:0000000000000098 .L0 
     /tmp/cc6pGDbC.s:141    .text:00000000000000a0 .L0 
     /tmp/cc6pGDbC.s:142    .text:00000000000000a0 .L0 
     /tmp/cc6pGDbC.s:145    .text:00000000000000a8 .L0 
     /tmp/cc6pGDbC.s:146    .text:00000000000000ac .L0 
     /tmp/cc6pGDbC.s:148    .text:00000000000000b0 .L0 
     /tmp/cc6pGDbC.s:149    .text:00000000000000b0 .L0 
     /tmp/cc6pGDbC.s:151    .text:00000000000000b4 .L0 
     /tmp/cc6pGDbC.s:153    .text:00000000000000b8 .L0 
GAS LISTING /tmp/cc6pGDbC.s 			page 21


     /tmp/cc6pGDbC.s:159    .text:00000000000000b8 _ZN3TCBC2EPFvPvES0_mbb
     /tmp/cc6pGDbC.s:162    .text:00000000000000b8 .L0 
     /tmp/cc6pGDbC.s:164    .text:00000000000000b8 .L0 
     /tmp/cc6pGDbC.s:165    .text:00000000000000bc .L0 
     /tmp/cc6pGDbC.s:173    .text:00000000000000d8 .L0 
     /tmp/cc6pGDbC.s:174    .text:00000000000000d8 .L0 
     /tmp/cc6pGDbC.s:175    .text:00000000000000d8 .L0 
     /tmp/cc6pGDbC.s:176    .text:00000000000000d8 .L0 
     /tmp/cc6pGDbC.s:177    .text:00000000000000d8 .L0 
     /tmp/cc6pGDbC.s:178    .text:00000000000000d8 .L0 
     /tmp/cc6pGDbC.s:179    .text:00000000000000d8 .L0 
     /tmp/cc6pGDbC.s:181    .text:00000000000000dc .L0 
     /tmp/cc6pGDbC.s:189    .text:00000000000000f0 .L0 
     /tmp/cc6pGDbC.s:192    .text:00000000000000f8 .L0 
     /tmp/cc6pGDbC.s:194    .text:00000000000000fc .L0 
     /tmp/cc6pGDbC.s:200    .text:0000000000000108 .L0 
     /tmp/cc6pGDbC.s:205    .text:0000000000000118 .L0 
     /tmp/cc6pGDbC.s:207    .text:000000000000011c .L0 
     /tmp/cc6pGDbC.s:209    .text:0000000000000120 .L0 
     /tmp/cc6pGDbC.s:212    .text:0000000000000128 .L0 
     /tmp/cc6pGDbC.s:214    .text:000000000000012c .L0 
     /tmp/cc6pGDbC.s:216    .text:0000000000000130 .L0 
     /tmp/cc6pGDbC.s:220    .text:0000000000000138 .L0 
     /tmp/cc6pGDbC.s:222    .text:000000000000013c .L0 
     /tmp/cc6pGDbC.s:224    .text:0000000000000140 .L0 
     /tmp/cc6pGDbC.s:228    .text:0000000000000144 .L0 
     /tmp/cc6pGDbC.s:229    .text:0000000000000148 .L0 
     /tmp/cc6pGDbC.s:230    .text:0000000000000148 .L0 
     /tmp/cc6pGDbC.s:232    .text:000000000000014c .L0 
     /tmp/cc6pGDbC.s:233    .text:000000000000014c .L0 
     /tmp/cc6pGDbC.s:235    .text:0000000000000150 .L0 
     /tmp/cc6pGDbC.s:238    .text:0000000000000154 .L0 
     /tmp/cc6pGDbC.s:241    .text:0000000000000158 .L0 
     /tmp/cc6pGDbC.s:244    .text:000000000000015c .L0 
     /tmp/cc6pGDbC.s:246    .text:0000000000000160 .L0 
     /tmp/cc6pGDbC.s:248    .text:0000000000000164 .L0 
     /tmp/cc6pGDbC.s:252    .text:0000000000000168 .L0 
     /tmp/cc6pGDbC.s:255    .text:0000000000000168 .L0 
     /tmp/cc6pGDbC.s:260    .text:0000000000000170 .L0 
     /tmp/cc6pGDbC.s:267    .text:0000000000000184 .L0 
     /tmp/cc6pGDbC.s:271    .text:000000000000018c .L0 
     /tmp/cc6pGDbC.s:272    .text:000000000000018c .L0 
     /tmp/cc6pGDbC.s:277    .text:0000000000000198 .L0 
     /tmp/cc6pGDbC.s:278    .text:000000000000019c .L0 
     /tmp/cc6pGDbC.s:159    .text:00000000000000b8 _ZN3TCBC1EPFvPvES0_mbb
     /tmp/cc6pGDbC.s:286    .text:000000000000019c _ZN3TCB9createTCBEPFvPvES0_
     /tmp/cc6pGDbC.s:289    .text:000000000000019c .L0 
     /tmp/cc6pGDbC.s:4522   .data.rel.local.DW.ref.__gxx_personality_v0:0000000000000000 DW.ref.__gxx_personality_v0
     /tmp/cc6pGDbC.s:293    .text:000000000000019c .L0 
     /tmp/cc6pGDbC.s:294    .text:00000000000001a0 .L0 
     /tmp/cc6pGDbC.s:300    .text:00000000000001b4 .L0 
     /tmp/cc6pGDbC.s:301    .text:00000000000001b4 .L0 
     /tmp/cc6pGDbC.s:302    .text:00000000000001b4 .L0 
     /tmp/cc6pGDbC.s:303    .text:00000000000001b4 .L0 
     /tmp/cc6pGDbC.s:304    .text:00000000000001b4 .L0 
     /tmp/cc6pGDbC.s:306    .text:00000000000001b8 .L0 
     /tmp/cc6pGDbC.s:313    .text:00000000000001c0 .L0 
GAS LISTING /tmp/cc6pGDbC.s 			page 22


     /tmp/cc6pGDbC.s:314    .text:00000000000001c0 .L0 
     /tmp/cc6pGDbC.s:315    .text:00000000000001c0 .L0 
     /tmp/cc6pGDbC.s:326    .text:00000000000001d0 .L0 
     /tmp/cc6pGDbC.s:342    .text:00000000000001f4 .L0 
     /tmp/cc6pGDbC.s:343    .text:00000000000001f4 .L0 
     /tmp/cc6pGDbC.s:355    .text:000000000000020c .L0 
     /tmp/cc6pGDbC.s:357    .text:0000000000000214 .L0 
     /tmp/cc6pGDbC.s:359    .text:0000000000000218 .L0 
     /tmp/cc6pGDbC.s:360    .text:0000000000000218 .L0 
     /tmp/cc6pGDbC.s:362    .text:000000000000021c .L0 
     /tmp/cc6pGDbC.s:364    .text:0000000000000220 .L0 
     /tmp/cc6pGDbC.s:367    .text:0000000000000224 .L0 
     /tmp/cc6pGDbC.s:370    .text:0000000000000228 .L0 
     /tmp/cc6pGDbC.s:372    .text:000000000000022c .L0 
     /tmp/cc6pGDbC.s:398    .text:000000000000022c _ZN3TCB20createDeactivatedTCBEPFvPvES0_
     /tmp/cc6pGDbC.s:401    .text:000000000000022c .L0 
     /tmp/cc6pGDbC.s:405    .text:000000000000022c .L0 
     /tmp/cc6pGDbC.s:406    .text:0000000000000230 .L0 
     /tmp/cc6pGDbC.s:412    .text:0000000000000244 .L0 
     /tmp/cc6pGDbC.s:413    .text:0000000000000244 .L0 
     /tmp/cc6pGDbC.s:414    .text:0000000000000244 .L0 
     /tmp/cc6pGDbC.s:415    .text:0000000000000244 .L0 
     /tmp/cc6pGDbC.s:416    .text:0000000000000244 .L0 
     /tmp/cc6pGDbC.s:418    .text:0000000000000248 .L0 
     /tmp/cc6pGDbC.s:425    .text:0000000000000250 .L0 
     /tmp/cc6pGDbC.s:426    .text:0000000000000250 .L0 
     /tmp/cc6pGDbC.s:427    .text:0000000000000250 .L0 
     /tmp/cc6pGDbC.s:438    .text:0000000000000260 .L0 
     /tmp/cc6pGDbC.s:454    .text:0000000000000284 .L0 
     /tmp/cc6pGDbC.s:455    .text:0000000000000284 .L0 
     /tmp/cc6pGDbC.s:467    .text:000000000000029c .L0 
     /tmp/cc6pGDbC.s:469    .text:00000000000002a4 .L0 
     /tmp/cc6pGDbC.s:471    .text:00000000000002a8 .L0 
     /tmp/cc6pGDbC.s:472    .text:00000000000002a8 .L0 
     /tmp/cc6pGDbC.s:474    .text:00000000000002ac .L0 
     /tmp/cc6pGDbC.s:476    .text:00000000000002b0 .L0 
     /tmp/cc6pGDbC.s:479    .text:00000000000002b4 .L0 
     /tmp/cc6pGDbC.s:482    .text:00000000000002b8 .L0 
     /tmp/cc6pGDbC.s:484    .text:00000000000002bc .L0 
     /tmp/cc6pGDbC.s:509    .text:00000000000002bc _ZN3TCB19createSupervisorTCBEPFvPvES0_
     /tmp/cc6pGDbC.s:512    .text:00000000000002bc .L0 
     /tmp/cc6pGDbC.s:516    .text:00000000000002bc .L0 
     /tmp/cc6pGDbC.s:517    .text:00000000000002c0 .L0 
     /tmp/cc6pGDbC.s:523    .text:00000000000002d4 .L0 
     /tmp/cc6pGDbC.s:524    .text:00000000000002d4 .L0 
     /tmp/cc6pGDbC.s:525    .text:00000000000002d4 .L0 
     /tmp/cc6pGDbC.s:526    .text:00000000000002d4 .L0 
     /tmp/cc6pGDbC.s:527    .text:00000000000002d4 .L0 
     /tmp/cc6pGDbC.s:529    .text:00000000000002d8 .L0 
     /tmp/cc6pGDbC.s:536    .text:00000000000002e0 .L0 
     /tmp/cc6pGDbC.s:537    .text:00000000000002e0 .L0 
     /tmp/cc6pGDbC.s:538    .text:00000000000002e0 .L0 
     /tmp/cc6pGDbC.s:549    .text:00000000000002f0 .L0 
     /tmp/cc6pGDbC.s:565    .text:0000000000000314 .L0 
     /tmp/cc6pGDbC.s:566    .text:0000000000000314 .L0 
     /tmp/cc6pGDbC.s:578    .text:000000000000032c .L0 
     /tmp/cc6pGDbC.s:580    .text:0000000000000334 .L0 
GAS LISTING /tmp/cc6pGDbC.s 			page 23


     /tmp/cc6pGDbC.s:582    .text:0000000000000338 .L0 
     /tmp/cc6pGDbC.s:583    .text:0000000000000338 .L0 
     /tmp/cc6pGDbC.s:585    .text:000000000000033c .L0 
     /tmp/cc6pGDbC.s:587    .text:0000000000000340 .L0 
     /tmp/cc6pGDbC.s:590    .text:0000000000000344 .L0 
     /tmp/cc6pGDbC.s:593    .text:0000000000000348 .L0 
     /tmp/cc6pGDbC.s:595    .text:000000000000034c .L0 
     /tmp/cc6pGDbC.s:620    .text:000000000000034c _ZN3TCB8dispatchEv
     /tmp/cc6pGDbC.s:623    .text:000000000000034c .L0 
     /tmp/cc6pGDbC.s:624    .text:000000000000034c .L0 
     /tmp/cc6pGDbC.s:625    .text:0000000000000350 .L0 
     /tmp/cc6pGDbC.s:629    .text:000000000000035c .L0 
     /tmp/cc6pGDbC.s:630    .text:000000000000035c .L0 
     /tmp/cc6pGDbC.s:631    .text:000000000000035c .L0 
     /tmp/cc6pGDbC.s:633    .text:0000000000000360 .L0 
     /tmp/cc6pGDbC.s:635    .text:0000000000000360 .L0 
     /tmp/cc6pGDbC.s:636    .text:0000000000000360 .L0 
     /tmp/cc6pGDbC.s:641    .text:0000000000000368 .L0 
     /tmp/cc6pGDbC.s:642    .text:0000000000000368 .L0 
     /tmp/cc6pGDbC.s:643    .text:0000000000000368 .L0 
     /tmp/cc6pGDbC.s:648    .text:000000000000036c .L0 
     /tmp/cc6pGDbC.s:653    .text:0000000000000370 .L0 
     /tmp/cc6pGDbC.s:654    .text:0000000000000370 .L0 
     /tmp/cc6pGDbC.s:659    .text:0000000000000374 .L0 
     /tmp/cc6pGDbC.s:662    .text:0000000000000378 .L0 
     /tmp/cc6pGDbC.s:663    .text:0000000000000378 .L0 
     /tmp/cc6pGDbC.s:666    .text:0000000000000380 .L0 
     /tmp/cc6pGDbC.s:668    .text:0000000000000388 .L0 
     /tmp/cc6pGDbC.s:669    .text:0000000000000388 .L0 
     /tmp/cc6pGDbC.s:674    .text:0000000000000398 .L0 
     /tmp/cc6pGDbC.s:675    .text:000000000000039c .L0 
     /tmp/cc6pGDbC.s:676    .text:000000000000039c .L0 
     /tmp/cc6pGDbC.s:678    .text:00000000000003a0 .L0 
     /tmp/cc6pGDbC.s:679    .text:00000000000003a0 .L0 
     /tmp/cc6pGDbC.s:681    .text:00000000000003a4 .L0 
     /tmp/cc6pGDbC.s:684    .text:00000000000003a8 .L0 
     /tmp/cc6pGDbC.s:688    .text:00000000000003ac .L0 
     /tmp/cc6pGDbC.s:690    .text:00000000000003ac .L0 
     /tmp/cc6pGDbC.s:691    .text:00000000000003ac .L0 
     /tmp/cc6pGDbC.s:695    .text:00000000000003bc .L0 
     /tmp/cc6pGDbC.s:709    .bss:0000000000000008 _ZN3TCB16timeSliceCounterE
     /tmp/cc6pGDbC.s:705    .bss:0000000000000000 _ZN3TCB7runningE
     /tmp/cc6pGDbC.s:702    .bss:0000000000000000 .LANCHOR0
     /tmp/cc6pGDbC.s:718    .text:00000000000003bc .L0 
     /tmp/cc6pGDbC.s:30     .text:000000000000001c .L0 
     /tmp/cc6pGDbC.s:134    .text:000000000000008c .L0 
     /tmp/cc6pGDbC.s:209    .text:0000000000000120 .L0 
     /tmp/cc6pGDbC.s:260    .text:0000000000000170 .L0 
     /tmp/cc6pGDbC.s:636    .text:0000000000000360 .L0 
     /tmp/cc6pGDbC.s:666    .text:0000000000000380 .L0 
     /tmp/cc6pGDbC.s:251    .text:0000000000000168 .L11
     /tmp/cc6pGDbC.s:262    .text:000000000000017c .L12
     /tmp/cc6pGDbC.s:258    .text:0000000000000170 .L13
     /tmp/cc6pGDbC.s:265    .text:0000000000000184 .L14
     /tmp/cc6pGDbC.s:225    .text:0000000000000144 .L5
     /tmp/cc6pGDbC.s:269    .text:000000000000018c .L16
     /tmp/cc6pGDbC.s:198    .text:0000000000000108 .L6
GAS LISTING /tmp/cc6pGDbC.s 			page 24


     /tmp/cc6pGDbC.s:210    .text:0000000000000128 .L7
     /tmp/cc6pGDbC.s:218    .text:0000000000000138 .L9
     /tmp/cc6pGDbC.s:351    .text:000000000000020c .L22
     /tmp/cc6pGDbC.s:463    .text:000000000000029c .L28
     /tmp/cc6pGDbC.s:574    .text:000000000000032c .L34
     /tmp/cc6pGDbC.s:660    .text:0000000000000378 .L36
     /tmp/cc6pGDbC.s:687    .text:00000000000003ac .L38
     /tmp/cc6pGDbC.s:317    .text:00000000000001c4 .LEHB0
     /tmp/cc6pGDbC.s:287    .text:000000000000019c .LFB52
     /tmp/cc6pGDbC.s:320    .text:00000000000001cc .LEHE0
     /tmp/cc6pGDbC.s:331    .text:00000000000001e4 .LEHB1
     /tmp/cc6pGDbC.s:334    .text:00000000000001ec .LEHE1
     /tmp/cc6pGDbC.s:336    .text:00000000000001f0 .L19
     /tmp/cc6pGDbC.s:347    .text:0000000000000204 .LEHB2
     /tmp/cc6pGDbC.s:350    .text:000000000000020c .LEHE2
     /tmp/cc6pGDbC.s:429    .text:0000000000000254 .LEHB3
     /tmp/cc6pGDbC.s:399    .text:000000000000022c .LFB53
     /tmp/cc6pGDbC.s:432    .text:000000000000025c .LEHE3
     /tmp/cc6pGDbC.s:443    .text:0000000000000274 .LEHB4
     /tmp/cc6pGDbC.s:446    .text:000000000000027c .LEHE4
     /tmp/cc6pGDbC.s:448    .text:0000000000000280 .L25
     /tmp/cc6pGDbC.s:459    .text:0000000000000294 .LEHB5
     /tmp/cc6pGDbC.s:462    .text:000000000000029c .LEHE5
     /tmp/cc6pGDbC.s:540    .text:00000000000002e4 .LEHB6
     /tmp/cc6pGDbC.s:510    .text:00000000000002bc .LFB54
     /tmp/cc6pGDbC.s:543    .text:00000000000002ec .LEHE6
     /tmp/cc6pGDbC.s:554    .text:0000000000000304 .LEHB7
     /tmp/cc6pGDbC.s:557    .text:000000000000030c .LEHE7
     /tmp/cc6pGDbC.s:559    .text:0000000000000310 .L31
     /tmp/cc6pGDbC.s:570    .text:0000000000000324 .LEHB8
     /tmp/cc6pGDbC.s:573    .text:000000000000032c .LEHE8
     /tmp/cc6pGDbC.s:2572   .debug_abbrev:0000000000000000 .Ldebug_abbrev0
     /tmp/cc6pGDbC.s:4438   .debug_str:00000000000009ce .LASF173
     /tmp/cc6pGDbC.s:4272   .debug_str:000000000000047c .LASF174
     /tmp/cc6pGDbC.s:4408   .debug_str:00000000000008d9 .LASF175
     /tmp/cc6pGDbC.s:5      .text:0000000000000000 .Ltext0
     /tmp/cc6pGDbC.s:712    .text:00000000000003bc .Letext0
     /tmp/cc6pGDbC.s:4140   .debug_line:0000000000000000 .Ldebug_line0
     /tmp/cc6pGDbC.s:4274   .debug_str:0000000000000488 .LASF0
     /tmp/cc6pGDbC.s:4294   .debug_str:0000000000000524 .LASF1
     /tmp/cc6pGDbC.s:4378   .debug_str:00000000000007dd .LASF2
     /tmp/cc6pGDbC.s:4388   .debug_str:000000000000082b .LASF4
     /tmp/cc6pGDbC.s:4280   .debug_str:00000000000004b7 .LASF3
     /tmp/cc6pGDbC.s:4162   .debug_str:00000000000000c5 .LASF5
     /tmp/cc6pGDbC.s:4356   .debug_str:000000000000074a .LASF6
     /tmp/cc6pGDbC.s:4350   .debug_str:0000000000000714 .LASF7
     /tmp/cc6pGDbC.s:4284   .debug_str:00000000000004e6 .LASF8
     /tmp/cc6pGDbC.s:4250   .debug_str:000000000000037f .LASF9
     /tmp/cc6pGDbC.s:4258   .debug_str:00000000000003d9 .LASF10
     /tmp/cc6pGDbC.s:4192   .debug_str:00000000000001da .LASF11
     /tmp/cc6pGDbC.s:4240   .debug_str:000000000000034a .LASF12
     /tmp/cc6pGDbC.s:4210   .debug_str:0000000000000258 .LASF13
     /tmp/cc6pGDbC.s:4190   .debug_str:00000000000001ca .LASF14
     /tmp/cc6pGDbC.s:4418   .debug_str:000000000000093d .LASF15
     /tmp/cc6pGDbC.s:4228   .debug_str:00000000000002dc .LASF16
     /tmp/cc6pGDbC.s:4412   .debug_str:000000000000090f .LASF17
     /tmp/cc6pGDbC.s:4460   .debug_str:0000000000000b14 .LASF51
GAS LISTING /tmp/cc6pGDbC.s 			page 25


     /tmp/cc6pGDbC.s:4452   .debug_str:0000000000000aeb .LASF176
     /tmp/cc6pGDbC.s:4364   .debug_str:0000000000000782 .LASF18
     /tmp/cc6pGDbC.s:4266   .debug_str:000000000000043c .LASF19
     /tmp/cc6pGDbC.s:4322   .debug_str:0000000000000622 .LASF21
     /tmp/cc6pGDbC.s:4396   .debug_str:0000000000000870 .LASF20
     /tmp/cc6pGDbC.s:4260   .debug_str:00000000000003e7 .LASF22
     /tmp/cc6pGDbC.s:4276   .debug_str:0000000000000495 .LASF23
     /tmp/cc6pGDbC.s:4326   .debug_str:000000000000063f .LASF24
     /tmp/cc6pGDbC.s:4244   .debug_str:000000000000035e .LASF25
     /tmp/cc6pGDbC.s:4202   .debug_str:0000000000000225 .LASF27
     /tmp/cc6pGDbC.s:4334   .debug_str:0000000000000695 .LASF29
     /tmp/cc6pGDbC.s:4446   .debug_str:0000000000000abb .LASF31
     /tmp/cc6pGDbC.s:4480   .debug_str:0000000000000bf7 .LASF26
     /tmp/cc6pGDbC.s:4484   .debug_str:0000000000000c09 .LASF28
     /tmp/cc6pGDbC.s:4362   .debug_str:0000000000000778 .LASF30
     /tmp/cc6pGDbC.s:4496   .debug_str:0000000000000c73 .LASF32
     /tmp/cc6pGDbC.s:4204   .debug_str:000000000000023d .LASF33
     /tmp/cc6pGDbC.s:4184   .debug_str:0000000000000183 .LASF34
     /tmp/cc6pGDbC.s:4212   .debug_str:0000000000000268 .LASF35
     /tmp/cc6pGDbC.s:4286   .debug_str:00000000000004f9 .LASF36
     /tmp/cc6pGDbC.s:4308   .debug_str:000000000000059f .LASF37
     /tmp/cc6pGDbC.s:4486   .debug_str:0000000000000c1e .LASF38
     /tmp/cc6pGDbC.s:4448   .debug_str:0000000000000ad4 .LASF39
     /tmp/cc6pGDbC.s:4392   .debug_str:0000000000000837 .LASF40
     /tmp/cc6pGDbC.s:4434   .debug_str:00000000000009ba .LASF41
     /tmp/cc6pGDbC.s:4298   .debug_str:000000000000053f .LASF42
     /tmp/cc6pGDbC.s:4232   .debug_str:00000000000002fe .LASF43
     /tmp/cc6pGDbC.s:4234   .debug_str:000000000000030b .LASF44
     /tmp/cc6pGDbC.s:4420   .debug_str:0000000000000949 .LASF45
     /tmp/cc6pGDbC.s:4400   .debug_str:000000000000088f .LASF46
     /tmp/cc6pGDbC.s:4358   .debug_str:0000000000000751 .LASF47
     /tmp/cc6pGDbC.s:4278   .debug_str:00000000000004a2 .LASF48
     /tmp/cc6pGDbC.s:4142   .debug_str:0000000000000000 .LASF49
     /tmp/cc6pGDbC.s:4442   .debug_str:0000000000000a9c .LASF50
     /tmp/cc6pGDbC.s:4402   .debug_str:00000000000008a2 .LASF113
     /tmp/cc6pGDbC.s:4178   .debug_str:0000000000000150 .LASF115
     /tmp/cc6pGDbC.s:4346   .debug_str:00000000000006e4 .LASF52
     /tmp/cc6pGDbC.s:4472   .debug_str:0000000000000b98 .LASF177
     /tmp/cc6pGDbC.s:4292   .debug_str:000000000000051f .LASF53
     /tmp/cc6pGDbC.s:4166   .debug_str:00000000000000e4 .LASF54
     /tmp/cc6pGDbC.s:4194   .debug_str:00000000000001e9 .LASF55
     /tmp/cc6pGDbC.s:4510   .debug_str:0000000000000cef .LASF68
     /tmp/cc6pGDbC.s:4256   .debug_str:00000000000003b9 .LASF70
     /tmp/cc6pGDbC.s:4458   .debug_str:0000000000000b0f .LASF56
     /tmp/cc6pGDbC.s:4282   .debug_str:00000000000004c9 .LASF57
     /tmp/cc6pGDbC.s:4316   .debug_str:00000000000005e9 .LASF58
     /tmp/cc6pGDbC.s:4394   .debug_str:0000000000000851 .LASF59
     /tmp/cc6pGDbC.s:4376   .debug_str:00000000000007d4 .LASF60
     /tmp/cc6pGDbC.s:4348   .debug_str:00000000000006f4 .LASF61
     /tmp/cc6pGDbC.s:4490   .debug_str:0000000000000c50 .LASF104
     /tmp/cc6pGDbC.s:4288   .debug_str:0000000000000511 .LASF62
     /tmp/cc6pGDbC.s:4332   .debug_str:0000000000000675 .LASF63
     /tmp/cc6pGDbC.s:4230   .debug_str:00000000000002f2 .LASF64
     /tmp/cc6pGDbC.s:4478   .debug_str:0000000000000bc6 .LASF65
     /tmp/cc6pGDbC.s:4506   .debug_str:0000000000000cbf .LASF66
     /tmp/cc6pGDbC.s:4170   .debug_str:0000000000000104 .LASF67
     /tmp/cc6pGDbC.s:4198   .debug_str:0000000000000207 .LASF141
GAS LISTING /tmp/cc6pGDbC.s 			page 26


     /tmp/cc6pGDbC.s:4432   .debug_str:000000000000098b .LASF142
     /tmp/cc6pGDbC.s:4426   .debug_str:000000000000096d .LASF134
     /tmp/cc6pGDbC.s:4500   .debug_str:0000000000000c8e .LASF69
     /tmp/cc6pGDbC.s:4188   .debug_str:00000000000001ae .LASF71
     /tmp/cc6pGDbC.s:4342   .debug_str:00000000000006d6 .LASF178
     /tmp/cc6pGDbC.s:4320   .debug_str:000000000000060d .LASF72
     /tmp/cc6pGDbC.s:4404   .debug_str:00000000000008ab .LASF73
     /tmp/cc6pGDbC.s:4454   .debug_str:0000000000000af3 .LASF74
     /tmp/cc6pGDbC.s:4508   .debug_str:0000000000000cc8 .LASF75
     /tmp/cc6pGDbC.s:4428   .debug_str:0000000000000975 .LASF78
     /tmp/cc6pGDbC.s:4328   .debug_str:0000000000000659 .LASF80
     /tmp/cc6pGDbC.s:4174   .debug_str:0000000000000135 .LASF76
     /tmp/cc6pGDbC.s:4340   .debug_str:00000000000006bf .LASF77
     /tmp/cc6pGDbC.s:4382   .debug_str:00000000000007f8 .LASF79
     /tmp/cc6pGDbC.s:4186   .debug_str:0000000000000199 .LASF81
     /tmp/cc6pGDbC.s:4430   .debug_str:0000000000000980 .LASF82
     /tmp/cc6pGDbC.s:4236   .debug_str:0000000000000325 .LASF83
     /tmp/cc6pGDbC.s:4300   .debug_str:0000000000000558 .LASF84
     /tmp/cc6pGDbC.s:4470   .debug_str:0000000000000b7f .LASF85
     /tmp/cc6pGDbC.s:4436   .debug_str:00000000000009c6 .LASF179
     /tmp/cc6pGDbC.s:4222   .debug_str:00000000000002a8 .LASF86
     /tmp/cc6pGDbC.s:4200   .debug_str:0000000000000212 .LASF87
     /tmp/cc6pGDbC.s:4224   .debug_str:00000000000002b1 .LASF88
     /tmp/cc6pGDbC.s:4384   .debug_str:0000000000000802 .LASF89
     /tmp/cc6pGDbC.s:4304   .debug_str:000000000000057e .LASF90
     /tmp/cc6pGDbC.s:4264   .debug_str:000000000000041d .LASF91
     /tmp/cc6pGDbC.s:4336   .debug_str:00000000000006a1 .LASF92
     /tmp/cc6pGDbC.s:4464   .debug_str:0000000000000b23 .LASF93
     /tmp/cc6pGDbC.s:4390   .debug_str:0000000000000832 .LASF94
     /tmp/cc6pGDbC.s:4156   .debug_str:0000000000000093 .LASF95
     /tmp/cc6pGDbC.s:4504   .debug_str:0000000000000cb2 .LASF96
     /tmp/cc6pGDbC.s:4254   .debug_str:00000000000003ad .LASF97
     /tmp/cc6pGDbC.s:4182   .debug_str:0000000000000173 .LASF98
     /tmp/cc6pGDbC.s:4246   .debug_str:0000000000000369 .LASF99
     /tmp/cc6pGDbC.s:4148   .debug_str:0000000000000024 .LASF100
     /tmp/cc6pGDbC.s:4306   .debug_str:0000000000000592 .LASF101
     /tmp/cc6pGDbC.s:4410   .debug_str:00000000000008fc .LASF102
     /tmp/cc6pGDbC.s:4380   .debug_str:00000000000007eb .LASF103
     /tmp/cc6pGDbC.s:4144   .debug_str:0000000000000008 .LASF125
     /tmp/cc6pGDbC.s:4398   .debug_str:000000000000087e .LASF105
     /tmp/cc6pGDbC.s:4146   .debug_str:000000000000001f .LASF106
     /tmp/cc6pGDbC.s:4498   .debug_str:0000000000000c89 .LASF107
     /tmp/cc6pGDbC.s:4406   .debug_str:00000000000008d3 .LASF108
     /tmp/cc6pGDbC.s:4424   .debug_str:0000000000000964 .LASF109
     /tmp/cc6pGDbC.s:4338   .debug_str:00000000000006b7 .LASF110
     /tmp/cc6pGDbC.s:4440   .debug_str:0000000000000a92 .LASF111
     /tmp/cc6pGDbC.s:4456   .debug_str:0000000000000b07 .LASF112
     /tmp/cc6pGDbC.s:4214   .debug_str:0000000000000273 .LASF114
     /tmp/cc6pGDbC.s:4154   .debug_str:000000000000006b .LASF116
     /tmp/cc6pGDbC.s:4180   .debug_str:0000000000000165 .LASF117
     /tmp/cc6pGDbC.s:4302   .debug_str:0000000000000565 .LASF119
     /tmp/cc6pGDbC.s:4238   .debug_str:000000000000033b .LASF118
     /tmp/cc6pGDbC.s:4502   .debug_str:0000000000000c98 .LASF120
     /tmp/cc6pGDbC.s:4370   .debug_str:00000000000007ae .LASF121
     /tmp/cc6pGDbC.s:4248   .debug_str:0000000000000375 .LASF122
     /tmp/cc6pGDbC.s:4208   .debug_str:000000000000024d .LASF123
     /tmp/cc6pGDbC.s:4444   .debug_str:0000000000000ab0 .LASF124
GAS LISTING /tmp/cc6pGDbC.s 			page 27


     /tmp/cc6pGDbC.s:4422   .debug_str:0000000000000950 .LASF180
     /tmp/cc6pGDbC.s:4270   .debug_str:0000000000000464 .LASF126
     /tmp/cc6pGDbC.s:4514   .debug_str:0000000000000d00 .LASF127
     /tmp/cc6pGDbC.s:4476   .debug_str:0000000000000ba5 .LASF128
     /tmp/cc6pGDbC.s:4176   .debug_str:0000000000000141 .LASF129
     /tmp/cc6pGDbC.s:4468   .debug_str:0000000000000b5f .LASF130
     /tmp/cc6pGDbC.s:4450   .debug_str:0000000000000ae1 .LASF131
     /tmp/cc6pGDbC.s:4314   .debug_str:00000000000005cf .LASF132
     /tmp/cc6pGDbC.s:4352   .debug_str:0000000000000727 .LASF133
     /tmp/cc6pGDbC.s:4220   .debug_str:00000000000002a3 .LASF135
     /tmp/cc6pGDbC.s:4290   .debug_str:000000000000051a .LASF136
     /tmp/cc6pGDbC.s:4152   .debug_str:000000000000004c .LASF137
     /tmp/cc6pGDbC.s:4164   .debug_str:00000000000000cc .LASF138
     /tmp/cc6pGDbC.s:4150   .debug_str:0000000000000034 .LASF139
     /tmp/cc6pGDbC.s:4196   .debug_str:00000000000001ee .LASF140
     /tmp/cc6pGDbC.s:4310   .debug_str:00000000000005aa .LASF143
     /tmp/cc6pGDbC.s:4416   .debug_str:0000000000000938 .LASF144
     /tmp/cc6pGDbC.s:4330   .debug_str:0000000000000670 .LASF145
     /tmp/cc6pGDbC.s:4324   .debug_str:000000000000063a .LASF146
     /tmp/cc6pGDbC.s:4414   .debug_str:0000000000000925 .LASF147
     /tmp/cc6pGDbC.s:4226   .debug_str:00000000000002c5 .LASF148
     /tmp/cc6pGDbC.s:4216   .debug_str:0000000000000281 .LASF181
     /tmp/cc6pGDbC.s:4372   .debug_str:00000000000007b3 .LASF182
     /tmp/cc6pGDbC.s:4462   .debug_str:0000000000000b1a .LASF149
     /tmp/cc6pGDbC.s:4268   .debug_str:0000000000000447 .LASF150
     /tmp/cc6pGDbC.s:4296   .debug_str:0000000000000537 .LASF151
     /tmp/cc6pGDbC.s:4318   .debug_str:00000000000005f1 .LASF152
     /tmp/cc6pGDbC.s:4386   .debug_str:0000000000000821 .LASF153
     /tmp/cc6pGDbC.s:4252   .debug_str:000000000000038f .LASF154
     /tmp/cc6pGDbC.s:4374   .debug_str:00000000000007ca .LASF155
     /tmp/cc6pGDbC.s:4262   .debug_str:0000000000000402 .LASF156
     /tmp/cc6pGDbC.s:4482   .debug_str:0000000000000c00 .LASF157
     /tmp/cc6pGDbC.s:4488   .debug_str:0000000000000c36 .LASF158
     /tmp/cc6pGDbC.s:4344   .debug_str:00000000000006db .LASF159
     /tmp/cc6pGDbC.s:4160   .debug_str:00000000000000ab .LASF160
     /tmp/cc6pGDbC.s:4512   .debug_str:0000000000000cf8 .LASF161
     /tmp/cc6pGDbC.s:4354   .debug_str:0000000000000731 .LASF162
     /tmp/cc6pGDbC.s:4158   .debug_str:000000000000009f .LASF163
     /tmp/cc6pGDbC.s:4360   .debug_str:000000000000075a .LASF164
     /tmp/cc6pGDbC.s:4168   .debug_str:00000000000000e9 .LASF183
     /tmp/cc6pGDbC.s:4172   .debug_str:0000000000000124 .LASF165
     /tmp/cc6pGDbC.s:4466   .debug_str:0000000000000b44 .LASF166
     /tmp/cc6pGDbC.s:73     .text:000000000000005c .LFB60
     /tmp/cc6pGDbC.s:154    .text:00000000000000b8 .LFE60
     /tmp/cc6pGDbC.s:86     .text:000000000000006c .LBB28
     /tmp/cc6pGDbC.s:99     .text:0000000000000074 .LBE28
     /tmp/cc6pGDbC.s:3723   .debug_loc:0000000000000000 .LLST2
     /tmp/cc6pGDbC.s:101    .text:0000000000000074 .LBB30
     /tmp/cc6pGDbC.s:113    .text:000000000000007c .LBE30
     /tmp/cc6pGDbC.s:3732   .debug_loc:0000000000000026 .LLST3
     /tmp/cc6pGDbC.s:115    .text:000000000000007c .LBB32
     /tmp/cc6pGDbC.s:127    .text:0000000000000084 .LBE32
     /tmp/cc6pGDbC.s:3741   .debug_loc:000000000000004b .LLST4
     /tmp/cc6pGDbC.s:131    .text:000000000000008c .LVL9
     /tmp/cc6pGDbC.s:143    .text:00000000000000a8 .LVL11
     /tmp/cc6pGDbC.s:10     .text:0000000000000000 .LFB59
     /tmp/cc6pGDbC.s:67     .text:000000000000005c .LFE59
GAS LISTING /tmp/cc6pGDbC.s 			page 28


     /tmp/cc6pGDbC.s:41     .text:0000000000000038 .LBB26
     /tmp/cc6pGDbC.s:50     .text:0000000000000040 .LBE26
     /tmp/cc6pGDbC.s:3749   .debug_loc:000000000000006f .LLST0
     /tmp/cc6pGDbC.s:3757   .debug_loc:0000000000000093 .LLST1
     /tmp/cc6pGDbC.s:27     .text:000000000000001c .LVL0
     /tmp/cc6pGDbC.s:54     .text:0000000000000048 .LVL4
     /tmp/cc6pGDbC.s:621    .text:000000000000034c .LFB58
     /tmp/cc6pGDbC.s:696    .text:00000000000003bc .LFE58
     /tmp/cc6pGDbC.s:3764   .debug_loc:00000000000000b6 .LLST23
     /tmp/cc6pGDbC.s:639    .text:0000000000000368 .LBB48
     /tmp/cc6pGDbC.s:646    .text:000000000000036c .LBE48
     /tmp/cc6pGDbC.s:3775   .debug_loc:00000000000000ec .LLST24
     /tmp/cc6pGDbC.s:650    .text:0000000000000370 .LBB50
     /tmp/cc6pGDbC.s:657    .text:0000000000000374 .LBE50
     /tmp/cc6pGDbC.s:3782   .debug_loc:000000000000010f .LLST25
     /tmp/cc6pGDbC.s:664    .text:0000000000000380 .LVL58
     /tmp/cc6pGDbC.s:672    .text:0000000000000398 .LVL59
     /tmp/cc6pGDbC.s:693    .text:00000000000003b8 .LVL62
     /tmp/cc6pGDbC.s:4242   .debug_str:0000000000000359 .LASF169
     /tmp/cc6pGDbC.s:4206   .debug_str:0000000000000247 .LASF167
     /tmp/cc6pGDbC.s:4492   .debug_str:0000000000000c59 .LASF168
     /tmp/cc6pGDbC.s:4368   .debug_str:0000000000000797 .LASF184
     /tmp/cc6pGDbC.s:160    .text:00000000000000b8 .LFB56
     /tmp/cc6pGDbC.s:279    .text:000000000000019c .LFE56
     /tmp/cc6pGDbC.s:3789   .debug_loc:0000000000000132 .LLST5
     /tmp/cc6pGDbC.s:3811   .debug_loc:0000000000000191 .LLST6
     /tmp/cc6pGDbC.s:3837   .debug_loc:0000000000000203 .LLST7
     /tmp/cc6pGDbC.s:3862   .debug_loc:0000000000000265 .LLST8
     /tmp/cc6pGDbC.s:3888   .debug_loc:00000000000002d7 .LLST9
     /tmp/cc6pGDbC.s:3913   .debug_loc:0000000000000339 .LLST10
     /tmp/cc6pGDbC.s:197    .text:0000000000000108 .LVL14
     /tmp/cc6pGDbC.s:274    .text:0000000000000198 .LVL20
     /tmp/cc6pGDbC.s:596    .text:000000000000034c .LFE54
     /tmp/cc6pGDbC.s:3938   .debug_loc:000000000000039b .LLST19
     /tmp/cc6pGDbC.s:3967   .debug_loc:0000000000000410 .LLST20
     /tmp/cc6pGDbC.s:534    .text:00000000000002e0 .LBB44
     /tmp/cc6pGDbC.s:547    .text:00000000000002f0 .LBE44
     /tmp/cc6pGDbC.s:3985   .debug_loc:000000000000045c .LLST21
     /tmp/cc6pGDbC.s:542    .text:00000000000002ec .LVL46
     /tmp/cc6pGDbC.s:562    .text:0000000000000314 .LBB46
     /tmp/cc6pGDbC.s:576    .text:000000000000032c .LBE46
     /tmp/cc6pGDbC.s:3994   .debug_loc:0000000000000481 .LLST22
     /tmp/cc6pGDbC.s:568    .text:0000000000000320 .LVL50
     /tmp/cc6pGDbC.s:556    .text:000000000000030c .LVL48
     /tmp/cc6pGDbC.s:572    .text:000000000000032c .LVL51
     /tmp/cc6pGDbC.s:485    .text:00000000000002bc .LFE53
     /tmp/cc6pGDbC.s:4001   .debug_loc:00000000000004a4 .LLST15
     /tmp/cc6pGDbC.s:4030   .debug_loc:0000000000000519 .LLST16
     /tmp/cc6pGDbC.s:423    .text:0000000000000250 .LBB40
     /tmp/cc6pGDbC.s:436    .text:0000000000000260 .LBE40
     /tmp/cc6pGDbC.s:4048   .debug_loc:0000000000000565 .LLST17
     /tmp/cc6pGDbC.s:431    .text:000000000000025c .LVL35
     /tmp/cc6pGDbC.s:451    .text:0000000000000284 .LBB42
     /tmp/cc6pGDbC.s:465    .text:000000000000029c .LBE42
     /tmp/cc6pGDbC.s:4057   .debug_loc:000000000000058a .LLST18
     /tmp/cc6pGDbC.s:457    .text:0000000000000290 .LVL39
     /tmp/cc6pGDbC.s:445    .text:000000000000027c .LVL37
GAS LISTING /tmp/cc6pGDbC.s 			page 29


     /tmp/cc6pGDbC.s:461    .text:000000000000029c .LVL40
     /tmp/cc6pGDbC.s:373    .text:000000000000022c .LFE52
     /tmp/cc6pGDbC.s:4064   .debug_loc:00000000000005ad .LLST11
     /tmp/cc6pGDbC.s:4093   .debug_loc:0000000000000622 .LLST12
     /tmp/cc6pGDbC.s:311    .text:00000000000001c0 .LBB36
     /tmp/cc6pGDbC.s:324    .text:00000000000001d0 .LBE36
     /tmp/cc6pGDbC.s:4111   .debug_loc:000000000000066e .LLST13
     /tmp/cc6pGDbC.s:319    .text:00000000000001cc .LVL24
     /tmp/cc6pGDbC.s:339    .text:00000000000001f4 .LBB38
     /tmp/cc6pGDbC.s:353    .text:000000000000020c .LBE38
     /tmp/cc6pGDbC.s:4120   .debug_loc:0000000000000693 .LLST14
     /tmp/cc6pGDbC.s:345    .text:0000000000000200 .LVL28
     /tmp/cc6pGDbC.s:333    .text:00000000000001ec .LVL26
     /tmp/cc6pGDbC.s:349    .text:000000000000020c .LVL29
     /tmp/cc6pGDbC.s:4474   .debug_str:0000000000000ba0 .LASF170
     /tmp/cc6pGDbC.s:4312   .debug_str:00000000000005c3 .LASF171
     /tmp/cc6pGDbC.s:4366   .debug_str:0000000000000787 .LASF172
     /tmp/cc6pGDbC.s:4494   .debug_str:0000000000000c64 .LASF185
     /tmp/cc6pGDbC.s:4218   .debug_str:000000000000028b .LASF186
     /tmp/cc6pGDbC.s:85     .text:000000000000006c .LVL5
     /tmp/cc6pGDbC.s:96     .text:0000000000000074 .LVL6
     /tmp/cc6pGDbC.s:110    .text:000000000000007c .LVL7
     /tmp/cc6pGDbC.s:124    .text:0000000000000084 .LVL8
     /tmp/cc6pGDbC.s:40     .text:0000000000000038 .LVL2
     /tmp/cc6pGDbC.s:48     .text:0000000000000040 .LVL3
     /tmp/cc6pGDbC.s:637    .text:0000000000000368 .LVL54
     /tmp/cc6pGDbC.s:682    .text:00000000000003a4 .LVL60
     /tmp/cc6pGDbC.s:686    .text:00000000000003ac .LVL61
     /tmp/cc6pGDbC.s:644    .text:000000000000036c .LVL55
     /tmp/cc6pGDbC.s:649    .text:0000000000000370 .LVL56
     /tmp/cc6pGDbC.s:655    .text:0000000000000374 .LVL57
     /tmp/cc6pGDbC.s:163    .text:00000000000000b8 .LVL12
     /tmp/cc6pGDbC.s:195    .text:0000000000000100 .LVL13
     /tmp/cc6pGDbC.s:236    .text:0000000000000150 .LVL15
     /tmp/cc6pGDbC.s:250    .text:0000000000000168 .LVL18
     /tmp/cc6pGDbC.s:239    .text:0000000000000154 .LVL16
     /tmp/cc6pGDbC.s:257    .text:0000000000000170 .LVL19
     /tmp/cc6pGDbC.s:242    .text:0000000000000158 .LVL17
     /tmp/cc6pGDbC.s:515    .text:00000000000002bc .LVL43
     /tmp/cc6pGDbC.s:539    .text:00000000000002e4 .LVL45
     /tmp/cc6pGDbC.s:561    .text:0000000000000314 .LVL49
     /tmp/cc6pGDbC.s:588    .text:0000000000000340 .LVL52
     /tmp/cc6pGDbC.s:591    .text:0000000000000344 .LVL53
     /tmp/cc6pGDbC.s:533    .text:00000000000002e0 .LVL44
     /tmp/cc6pGDbC.s:545    .text:00000000000002f0 .LVL47
     /tmp/cc6pGDbC.s:404    .text:000000000000022c .LVL32
     /tmp/cc6pGDbC.s:428    .text:0000000000000254 .LVL34
     /tmp/cc6pGDbC.s:450    .text:0000000000000284 .LVL38
     /tmp/cc6pGDbC.s:477    .text:00000000000002b0 .LVL41
     /tmp/cc6pGDbC.s:480    .text:00000000000002b4 .LVL42
     /tmp/cc6pGDbC.s:422    .text:0000000000000250 .LVL33
     /tmp/cc6pGDbC.s:434    .text:0000000000000260 .LVL36
     /tmp/cc6pGDbC.s:292    .text:000000000000019c .LVL21
     /tmp/cc6pGDbC.s:316    .text:00000000000001c4 .LVL23
     /tmp/cc6pGDbC.s:338    .text:00000000000001f4 .LVL27
     /tmp/cc6pGDbC.s:365    .text:0000000000000220 .LVL30
     /tmp/cc6pGDbC.s:368    .text:0000000000000224 .LVL31
GAS LISTING /tmp/cc6pGDbC.s 			page 30


     /tmp/cc6pGDbC.s:310    .text:00000000000001c0 .LVL22
     /tmp/cc6pGDbC.s:322    .text:00000000000001d0 .LVL25
     /tmp/cc6pGDbC.s:719    .debug_info:0000000000000000 .Ldebug_info0
     /tmp/cc6pGDbC.s:376    .gcc_except_table:0000000000000000 .LLSDA52
     /tmp/cc6pGDbC.s:487    .gcc_except_table:000000000000002b .LLSDA53
     /tmp/cc6pGDbC.s:598    .gcc_except_table:0000000000000056 .LLSDA54

UNDEFINED SYMBOLS
_ZN5RiscV10popSppSpieEv
thread_dispatch
thread_exit
_ZN15MemoryAllocator8allocateEm
_ZN9Scheduler3putEP3TCB
_ZN15MemoryAllocator4freeEPv
_Unwind_Resume
__gxx_personality_v0
_ZN9Scheduler3getEv
_ZN3TCB13contextSwitchEPNS_7ContextES1_
