GAS LISTING /tmp/ccH7Hwz1.s 			page 1


   1              		.file	"tcb.cpp"
   2              		.option pic
   3              		.option norelax
   4              		.text
   5              	.Ltext0:
   6              		.align	2
   7              		.globl	_ZN3TCB13threadWrapperEv
   9              	_ZN3TCB13threadWrapperEv:
  10              	.LFB58:
  11              		.file 1 "src/tcb.cpp"
   1:src/tcb.cpp   **** //
   2:src/tcb.cpp   **** // Created by os on 9/9/22.
   3:src/tcb.cpp   **** //
   4:src/tcb.cpp   **** 
   5:src/tcb.cpp   **** #include "../h/tcb.hpp"
   6:src/tcb.cpp   **** #include "../h/syscall_c.h"
   7:src/tcb.cpp   **** #include "../h/scheduler.hpp"
   8:src/tcb.cpp   **** 
   9:src/tcb.cpp   **** TCB *TCB::running = nullptr;
  10:src/tcb.cpp   **** 
  11:src/tcb.cpp   **** uint64 TCB::timeSliceCounter = 0;
  12:src/tcb.cpp   **** 
  13:src/tcb.cpp   **** TCB *TCB::createTCB(TCB::Body body, void *args) {
  14:src/tcb.cpp   ****     return new TCB(body, args, DEFAULT_TIME_SLICE, 1, 0);
  15:src/tcb.cpp   **** }
  16:src/tcb.cpp   **** 
  17:src/tcb.cpp   **** TCB *TCB::createDeactivatedTCB(TCB::Body body, void *args) {
  18:src/tcb.cpp   ****     return new TCB(body, args, DEFAULT_TIME_SLICE, 0, 0);
  19:src/tcb.cpp   **** }
  20:src/tcb.cpp   **** 
  21:src/tcb.cpp   **** TCB *TCB::createSupervisorTCB(TCB::Body body, void *args) {
  22:src/tcb.cpp   ****     return new TCB
  23:src/tcb.cpp   ****     (body, args,DEFAULT_TIME_SLICE, true, true);
  24:src/tcb.cpp   **** }
  25:src/tcb.cpp   **** 
  26:src/tcb.cpp   **** TCB::TCB(Body body, void* args, uint64 timeSlice, bool ready, bool supervisor)
  27:src/tcb.cpp   **** : body(body),
  28:src/tcb.cpp   **** args(args),
  29:src/tcb.cpp   **** stack(body != nullptr ? (uint64*)MemoryAllocator::allocate(sizeof(uint64) * DEFAULT_STACK_SIZE) : n
  30:src/tcb.cpp   **** finished(false),
  31:src/tcb.cpp   **** blocked(false),
  32:src/tcb.cpp   **** timeSlice(timeSlice),
  33:src/tcb.cpp   **** context({
  34:src/tcb.cpp   ****     body != nullptr ? (uint64) (supervisor ? &sThreadWrapper : &threadWrapper) : 0,
  35:src/tcb.cpp   ****     stack != nullptr ? (uint64) &stack[DEFAULT_STACK_SIZE] : 0
  36:src/tcb.cpp   ****         })
  37:src/tcb.cpp   **** {
  38:src/tcb.cpp   ****     if (body != nullptr && ready) Scheduler::put(this);
  39:src/tcb.cpp   **** }
  40:src/tcb.cpp   **** 
  41:src/tcb.cpp   **** 
  42:src/tcb.cpp   **** void TCB::dispatch() {
  43:src/tcb.cpp   ****     TCB *old = running;
  44:src/tcb.cpp   ****     if (!old->isFinished() && !old->isBlocked()) { Scheduler::put(old); }
  45:src/tcb.cpp   ****     running = Scheduler::get();
  46:src/tcb.cpp   **** 
  47:src/tcb.cpp   ****     TCB::contextSwitch(&old->context, &running->context);
GAS LISTING /tmp/ccH7Hwz1.s 			page 2


  48:src/tcb.cpp   **** }
  49:src/tcb.cpp   **** 
  50:src/tcb.cpp   **** void TCB::threadWrapper() {
  12              		.loc 1 50 27
  13              		.cfi_startproc
  14 0000 130101FE 		addi	sp,sp,-32
  15              		.cfi_def_cfa_offset 32
  16 0004 233C1100 		sd	ra,24(sp)
  17 0008 23388100 		sd	s0,16(sp)
  18 000c 23349100 		sd	s1,8(sp)
  19              		.cfi_offset 1, -8
  20              		.cfi_offset 8, -16
  21              		.cfi_offset 9, -24
  22 0010 13040102 		addi	s0,sp,32
  23              		.cfi_def_cfa 8, 0
  51:src/tcb.cpp   ****     RiscV::popSppSpie();
  24              		.loc 1 51 5
  25              		.loc 1 51 22 is_stmt 0
  26 0014 97000000 		call	_ZN5RiscV10popSppSpieEv@plt
  26      E7800000 
  27              	.LVL0:
  52:src/tcb.cpp   ****     running->body(running->args);
  28              		.loc 1 52 5 is_stmt 1
  29              		.loc 1 52 14 is_stmt 0
  30 001c 97040000 		lla	s1,.LANCHOR0
  30      93840400 
  31 0024 83B70400 		ld	a5,0(s1)
  32 0028 03B70700 		ld	a4,0(a5)
  33              		.loc 1 52 18
  34 002c 03B58700 		ld	a0,8(a5)
  35 0030 E7000700 		jalr	a4
  36              	.LVL1:
  53:src/tcb.cpp   ****     running->setFinished(true);
  37              		.loc 1 53 5 is_stmt 1
  38              		.loc 1 53 25 is_stmt 0
  39 0034 83B70400 		ld	a5,0(s1)
  40              	.LVL2:
  41              	.LBB28:
  42              	.LBB29:
  43              		.file 2 "src/../h/tcb.hpp"
   1:src/../h/tcb.hpp **** //
   2:src/../h/tcb.hpp **** // Created by os on 9/9/22.
   3:src/../h/tcb.hpp **** //
   4:src/../h/tcb.hpp **** 
   5:src/../h/tcb.hpp **** #ifndef OSMIUM_TCB_HPP
   6:src/../h/tcb.hpp **** #define OSMIUM_TCB_HPP
   7:src/../h/tcb.hpp **** 
   8:src/../h/tcb.hpp **** #include "../lib/hw.h"
   9:src/../h/tcb.hpp **** //#include "../h/scheduler.hpp"
  10:src/../h/tcb.hpp **** #include "riscv.hpp"
  11:src/../h/tcb.hpp **** #include "memory_allocator.hpp"
  12:src/../h/tcb.hpp **** 
  13:src/../h/tcb.hpp **** class Scheduler;
  14:src/../h/tcb.hpp **** 
  15:src/../h/tcb.hpp **** 
  16:src/../h/tcb.hpp **** class TCB {
  17:src/../h/tcb.hpp **** public:
GAS LISTING /tmp/ccH7Hwz1.s 			page 3


  18:src/../h/tcb.hpp ****     using Body = void (*)(void*);
  19:src/../h/tcb.hpp **** 
  20:src/../h/tcb.hpp ****     static TCB* createTCB(Body body, void* args);
  21:src/../h/tcb.hpp **** 
  22:src/../h/tcb.hpp ****     static TCB* createDeactivatedTCB(Body body, void* args);
  23:src/../h/tcb.hpp **** 
  24:src/../h/tcb.hpp ****     static TCB* createSupervisorTCB(Body body, void* args);
  25:src/../h/tcb.hpp **** 
  26:src/../h/tcb.hpp ****     bool isFinished() const { return finished; }
  27:src/../h/tcb.hpp **** 
  28:src/../h/tcb.hpp ****     void setFinished(bool val) { finished = val; }
  44              		.loc 2 28 34 is_stmt 1
  45              		.loc 2 28 43 is_stmt 0
  46 0038 13071000 		li	a4,1
  47 003c 238CE700 		sb	a4,24(a5)
  48              	.LVL3:
  49              	.LBE29:
  50              	.LBE28:
  54:src/tcb.cpp   ****     //thread_exit();
  55:src/tcb.cpp   ****     thread_dispatch();
  51              		.loc 1 55 5 is_stmt 1
  52              		.loc 1 55 20 is_stmt 0
  53 0040 97000000 		call	thread_dispatch@plt
  53      E7800000 
  54              	.LVL4:
  56:src/tcb.cpp   **** }
  55              		.loc 1 56 1
  56 0048 83308101 		ld	ra,24(sp)
  57              		.cfi_restore 1
  58 004c 03340101 		ld	s0,16(sp)
  59              		.cfi_restore 8
  60              		.cfi_def_cfa 2, 32
  61 0050 83348100 		ld	s1,8(sp)
  62              		.cfi_restore 9
  63 0054 13010102 		addi	sp,sp,32
  64              		.cfi_def_cfa_offset 0
  65 0058 67800000 		jr	ra
  66              		.cfi_endproc
  67              	.LFE58:
  69              		.align	2
  70              		.globl	_ZN3TCB14sThreadWrapperEv
  72              	_ZN3TCB14sThreadWrapperEv:
  73              	.LFB59:
  57:src/tcb.cpp   **** 
  58:src/tcb.cpp   **** void TCB::sThreadWrapper() {
  74              		.loc 1 58 28 is_stmt 1
  75              		.cfi_startproc
  76 005c 130101FE 		addi	sp,sp,-32
  77              		.cfi_def_cfa_offset 32
  78 0060 233C1100 		sd	ra,24(sp)
  79 0064 23388100 		sd	s0,16(sp)
  80 0068 23349100 		sd	s1,8(sp)
  81              		.cfi_offset 1, -8
  82              		.cfi_offset 8, -16
  83              		.cfi_offset 9, -24
  84 006c 13040102 		addi	s0,sp,32
  85              		.cfi_def_cfa 8, 0
GAS LISTING /tmp/ccH7Hwz1.s 			page 4


  59:src/tcb.cpp   ****     RiscV::setSstatus(0x0000000000000001UL << 8);
  86              		.loc 1 59 5
  87              	.LVL5:
  88              	.LBB30:
  89              	.LBB31:
  90              		.file 3 "src/../h/riscv.hpp"
   1:src/../h/riscv.hpp **** //
   2:src/../h/riscv.hpp **** // Created by os on 9/6/22.
   3:src/../h/riscv.hpp **** //
   4:src/../h/riscv.hpp **** 
   5:src/../h/riscv.hpp **** #ifndef OSMIUM_RISCV_HPP
   6:src/../h/riscv.hpp **** #define OSMIUM_RISCV_HPP
   7:src/../h/riscv.hpp **** 
   8:src/../h/riscv.hpp **** 
   9:src/../h/riscv.hpp **** #include "../lib/hw.h"
  10:src/../h/riscv.hpp **** 
  11:src/../h/riscv.hpp **** class RiscV {
  12:src/../h/riscv.hpp **** public:
  13:src/../h/riscv.hpp ****     // pop spp and spie sstatus bits
  14:src/../h/riscv.hpp ****     static void popSppSpie();
  15:src/../h/riscv.hpp **** 
  16:src/../h/riscv.hpp ****     //push x3...x31 registers on stack
  17:src/../h/riscv.hpp ****     static void pushRegisters();
  18:src/../h/riscv.hpp **** 
  19:src/../h/riscv.hpp ****     //pop x3...x31 registers from stack
  20:src/../h/riscv.hpp ****     static void popRegisters();
  21:src/../h/riscv.hpp **** 
  22:src/../h/riscv.hpp ****     //read from scause register
  23:src/../h/riscv.hpp ****     static uint64 readScause();
  24:src/../h/riscv.hpp **** 
  25:src/../h/riscv.hpp ****     //write to scause register
  26:src/../h/riscv.hpp ****     static void writeScause(uint64 scause);
  27:src/../h/riscv.hpp **** 
  28:src/../h/riscv.hpp ****     //read from sepc register
  29:src/../h/riscv.hpp ****     static uint64 readSepc();
  30:src/../h/riscv.hpp **** 
  31:src/../h/riscv.hpp ****     //write to sepc register
  32:src/../h/riscv.hpp ****     static void writeSepc(uint64 sepc);
  33:src/../h/riscv.hpp **** 
  34:src/../h/riscv.hpp ****     //read from stvec register
  35:src/../h/riscv.hpp ****     static uint64 readStvec();
  36:src/../h/riscv.hpp **** 
  37:src/../h/riscv.hpp ****     //write to stvec register
  38:src/../h/riscv.hpp ****     static void writeStvec(uint64 stvec);
  39:src/../h/riscv.hpp **** 
  40:src/../h/riscv.hpp ****     enum SSTATUS
  41:src/../h/riscv.hpp ****     {
  42:src/../h/riscv.hpp ****         SIE = (1 << 1), //supervisor interrupt enable
  43:src/../h/riscv.hpp ****         SPIE = (1 << 5),//supervisor previous interrupt enable
  44:src/../h/riscv.hpp ****         SPP = (1 << 8), //supervisor previous privilege
  45:src/../h/riscv.hpp ****     };
  46:src/../h/riscv.hpp **** 
  47:src/../h/riscv.hpp ****     //set bit-mask bits in the sstatus register
  48:src/../h/riscv.hpp ****     static void setSstatus(uint64 mask);
  49:src/../h/riscv.hpp **** 
  50:src/../h/riscv.hpp ****     //clear bit-mask bits in the sstatus register
  51:src/../h/riscv.hpp ****     static void clearSstatus(uint64 mask);
GAS LISTING /tmp/ccH7Hwz1.s 			page 5


  52:src/../h/riscv.hpp **** 
  53:src/../h/riscv.hpp ****     //read from sstatus register
  54:src/../h/riscv.hpp ****     static uint64 readSstatus();
  55:src/../h/riscv.hpp **** 
  56:src/../h/riscv.hpp ****     //write to sstatus register
  57:src/../h/riscv.hpp ****     static void writeSstatus(uint64 sstatus);
  58:src/../h/riscv.hpp **** 
  59:src/../h/riscv.hpp ****     enum SIP
  60:src/../h/riscv.hpp ****     {
  61:src/../h/riscv.hpp ****         SSIP = (1 << 1), //supervisor software interrupt pending
  62:src/../h/riscv.hpp ****         STIP = (1 << 5), //supervisor timer interrupt pending
  63:src/../h/riscv.hpp ****                          //(timer is configured to throw a software interrupt, so this is not used)
  64:src/../h/riscv.hpp ****         SEIP = (1 << 9), //supervisor external interrupt pending
  65:src/../h/riscv.hpp ****     };
  66:src/../h/riscv.hpp **** 
  67:src/../h/riscv.hpp ****     //set bit-mask bits in the sip register
  68:src/../h/riscv.hpp ****     static void setSip(uint64 mask);
  69:src/../h/riscv.hpp **** 
  70:src/../h/riscv.hpp ****     //clear bit-mask bits in the sip register
  71:src/../h/riscv.hpp ****     static void clearSip(uint64 mask);
  72:src/../h/riscv.hpp **** 
  73:src/../h/riscv.hpp ****     //read from sip register
  74:src/../h/riscv.hpp ****     static uint64 readSip();
  75:src/../h/riscv.hpp **** 
  76:src/../h/riscv.hpp ****     //write to sip register
  77:src/../h/riscv.hpp ****     static void writeSip(uint64 Sip);
  78:src/../h/riscv.hpp **** private:
  79:src/../h/riscv.hpp **** 
  80:src/../h/riscv.hpp **** };
  81:src/../h/riscv.hpp **** 
  82:src/../h/riscv.hpp **** inline uint64 RiscV::readScause() {
  83:src/../h/riscv.hpp ****     uint64 volatile scause;
  84:src/../h/riscv.hpp ****     asm volatile("csrr %[scause], scause": [scause] "=r" (scause));
  85:src/../h/riscv.hpp ****     return scause;
  86:src/../h/riscv.hpp **** }
  87:src/../h/riscv.hpp **** 
  88:src/../h/riscv.hpp **** inline void RiscV::writeScause(uint64 scause) {
  89:src/../h/riscv.hpp ****     asm volatile("csrw scause, %[scause]":: [scause] "r" (scause));
  90:src/../h/riscv.hpp **** }
  91:src/../h/riscv.hpp **** 
  92:src/../h/riscv.hpp **** inline uint64 RiscV::readSepc() {
  93:src/../h/riscv.hpp ****     uint64 volatile sepc;
  94:src/../h/riscv.hpp ****     asm volatile("csrr %[sepc], sepc": [sepc] "=r" (sepc));
  95:src/../h/riscv.hpp ****     return sepc;
  96:src/../h/riscv.hpp **** }
  97:src/../h/riscv.hpp **** 
  98:src/../h/riscv.hpp **** inline void RiscV::writeSepc(uint64 sepc) {
  99:src/../h/riscv.hpp ****     asm volatile("csrw sepc, %[sepc]":: [sepc] "r" (sepc));
 100:src/../h/riscv.hpp **** }
 101:src/../h/riscv.hpp **** 
 102:src/../h/riscv.hpp **** inline uint64 RiscV::readStvec() {
 103:src/../h/riscv.hpp ****     uint64 volatile stvec;
 104:src/../h/riscv.hpp ****     asm volatile("csrr %[stvec], stvec": [stvec] "=r" (stvec));
 105:src/../h/riscv.hpp ****     return stvec;
 106:src/../h/riscv.hpp **** }
 107:src/../h/riscv.hpp **** 
 108:src/../h/riscv.hpp **** inline void RiscV::writeStvec(uint64 stvec) {
GAS LISTING /tmp/ccH7Hwz1.s 			page 6


 109:src/../h/riscv.hpp ****     asm volatile("csrw stvec, %[stvec]":: [stvec] "r" (stvec));
 110:src/../h/riscv.hpp **** }
 111:src/../h/riscv.hpp **** 
 112:src/../h/riscv.hpp **** inline void RiscV::setSstatus(uint64 mask) {
 113:src/../h/riscv.hpp ****     asm volatile("csrs sstatus, %[mask]":: [mask] "r" (mask));
  91              		.loc 3 113 5
  92              		.loc 3 113 62 is_stmt 0
  93 0070 93070010 		li	a5,256
  94              	#APP
  95              	# 113 "src/../h/riscv.hpp" 1
 114              	}
  96              		csrs sstatus, a5
  97              	# 0 "" 2
  98              	.LVL6:
  99              	#NO_APP
 100              	.LBE31:
 101              	.LBE30:
  60:src/tcb.cpp   ****     RiscV::setSstatus(0x0000000000000001UL << 5);
 102              		.loc 1 60 5 is_stmt 1
 103              	.LBB32:
 104              	.LBB33:
 113:src/../h/riscv.hpp **** }
 105              		.loc 3 113 5
 113:src/../h/riscv.hpp **** }
 106              		.loc 3 113 62 is_stmt 0
 107 0078 93070002 		li	a5,32
 108              	#APP
 109              	# 113 "src/../h/riscv.hpp" 1
 110              		csrs sstatus, a5
 111              	# 0 "" 2
 112              	.LVL7:
 113              	#NO_APP
 114              	.LBE33:
 115              	.LBE32:
  61:src/tcb.cpp   ****     RiscV::setSstatus(RiscV::SIE);
 116              		.loc 1 61 5 is_stmt 1
 117              	.LBB34:
 118              	.LBB35:
 113:src/../h/riscv.hpp **** }
 119              		.loc 3 113 5
 113:src/../h/riscv.hpp **** }
 120              		.loc 3 113 62 is_stmt 0
 121 0080 93072000 		li	a5,2
 122              	#APP
 123              	# 113 "src/../h/riscv.hpp" 1
 124              		csrs sstatus, a5
 125              	# 0 "" 2
 126              	.LVL8:
 127              	#NO_APP
 128              	.LBE35:
 129              	.LBE34:
  62:src/tcb.cpp   ****     RiscV::popSppSpie();
 130              		.loc 1 62 5 is_stmt 1
 131              		.loc 1 62 22 is_stmt 0
 132 0088 97000000 		call	_ZN5RiscV10popSppSpieEv@plt
 132      E7800000 
 133              	.LVL9:
GAS LISTING /tmp/ccH7Hwz1.s 			page 7


  63:src/tcb.cpp   ****     running->body(running->args);
 134              		.loc 1 63 5 is_stmt 1
 135              		.loc 1 63 14 is_stmt 0
 136 0090 97040000 		lla	s1,.LANCHOR0
 136      93840400 
 137 0098 83B70400 		ld	a5,0(s1)
 138 009c 03B70700 		ld	a4,0(a5)
 139              		.loc 1 63 18
 140 00a0 03B58700 		ld	a0,8(a5)
 141 00a4 E7000700 		jalr	a4
 142              	.LVL10:
  64:src/tcb.cpp   ****     running->setFinished(true);
 143              		.loc 1 64 5 is_stmt 1
 144              		.loc 1 64 25 is_stmt 0
 145 00a8 83B70400 		ld	a5,0(s1)
 146              	.LVL11:
 147              	.LBB36:
 148              	.LBB37:
 149              		.loc 2 28 34 is_stmt 1
 150              		.loc 2 28 43 is_stmt 0
 151 00ac 13071000 		li	a4,1
 152 00b0 238CE700 		sb	a4,24(a5)
 153              	.LVL12:
 154              	.LBE37:
 155              	.LBE36:
  65:src/tcb.cpp   ****     //thread_exit();
  66:src/tcb.cpp   ****     thread_dispatch();
 156              		.loc 1 66 5 is_stmt 1
 157              		.loc 1 66 20 is_stmt 0
 158 00b4 97000000 		call	thread_dispatch@plt
 158      E7800000 
 159              	.LVL13:
  67:src/tcb.cpp   **** }
 160              		.loc 1 67 1
 161 00bc 83308101 		ld	ra,24(sp)
 162              		.cfi_restore 1
 163 00c0 03340101 		ld	s0,16(sp)
 164              		.cfi_restore 8
 165              		.cfi_def_cfa 2, 32
 166 00c4 83348100 		ld	s1,8(sp)
 167              		.cfi_restore 9
 168 00c8 13010102 		addi	sp,sp,32
 169              		.cfi_def_cfa_offset 0
 170 00cc 67800000 		jr	ra
 171              		.cfi_endproc
 172              	.LFE59:
 174              		.align	2
 175              		.globl	_ZN3TCBC2EPFvPvES0_mbb
 177              	_ZN3TCBC2EPFvPvES0_mbb:
 178              	.LFB55:
  26:src/tcb.cpp   **** : body(body),
 179              		.loc 1 26 1 is_stmt 1
 180              		.cfi_startproc
 181              	.LVL14:
 182 00d0 130101FC 		addi	sp,sp,-64
 183              		.cfi_def_cfa_offset 64
 184 00d4 233C1102 		sd	ra,56(sp)
GAS LISTING /tmp/ccH7Hwz1.s 			page 8


 185 00d8 23388102 		sd	s0,48(sp)
 186 00dc 23349102 		sd	s1,40(sp)
 187 00e0 23302103 		sd	s2,32(sp)
 188 00e4 233C3101 		sd	s3,24(sp)
 189 00e8 23384101 		sd	s4,16(sp)
 190 00ec 23345101 		sd	s5,8(sp)
 191              		.cfi_offset 1, -8
 192              		.cfi_offset 8, -16
 193              		.cfi_offset 9, -24
 194              		.cfi_offset 18, -32
 195              		.cfi_offset 19, -40
 196              		.cfi_offset 20, -48
 197              		.cfi_offset 21, -56
 198 00f0 13040104 		addi	s0,sp,64
 199              		.cfi_def_cfa 8, 0
 200 00f4 93040500 		mv	s1,a0
 201 00f8 13890500 		mv	s2,a1
 202 00fc 93890600 		mv	s3,a3
 203 0100 130A0700 		mv	s4,a4
 204 0104 938A0700 		mv	s5,a5
 205              	.LBB38:
  36:src/tcb.cpp   **** {
 206              		.loc 1 36 10 is_stmt 0
 207 0108 2330B500 		sd	a1,0(a0)
 208 010c 2334C500 		sd	a2,8(a0)
  29:src/tcb.cpp   **** finished(false),
 209              		.loc 1 29 23
 210 0110 63880506 		beqz	a1,.L11
  29:src/tcb.cpp   **** finished(false),
 211              		.loc 1 29 59 discriminator 1
 212 0114 37850000 		li	a0,32768
 213              	.LVL15:
 214 0118 97000000 		call	_ZN15MemoryAllocator8allocateEm@plt
 214      E7800000 
 215              	.LVL16:
 216              	.L6:
  36:src/tcb.cpp   **** {
 217              		.loc 1 36 10
 218 0120 23B8A400 		sd	a0,16(s1)
 219 0124 238C0400 		sb	zero,24(s1)
 220 0128 A38C0400 		sb	zero,25(s1)
 221 012c 23B03403 		sd	s3,32(s1)
  34:src/tcb.cpp   ****     stack != nullptr ? (uint64) &stack[DEFAULT_STACK_SIZE] : 0
 222              		.loc 1 34 21
 223 0130 63020906 		beqz	s2,.L12
  34:src/tcb.cpp   ****     stack != nullptr ? (uint64) &stack[DEFAULT_STACK_SIZE] : 0
 224              		.loc 1 34 21 discriminator 1
 225 0134 638A0A04 		beqz	s5,.L13
  34:src/tcb.cpp   ****     stack != nullptr ? (uint64) &stack[DEFAULT_STACK_SIZE] : 0
 226              		.loc 1 34 21
 227 0138 97070000 		lla	a5,_ZN3TCB14sThreadWrapperEv
 227      93870700 
 228              	.L7:
  36:src/tcb.cpp   **** {
 229              		.loc 1 36 10
 230 0140 23B4F402 		sd	a5,40(s1)
  35:src/tcb.cpp   ****         })
GAS LISTING /tmp/ccH7Hwz1.s 			page 9


 231              		.loc 1 35 22
 232 0144 630C0504 		beqz	a0,.L14
  35:src/tcb.cpp   ****         })
 233              		.loc 1 35 33 discriminator 1
 234 0148 B7870000 		li	a5,32768
 235 014c 3305F500 		add	a0,a0,a5
 236              	.L9:
  36:src/tcb.cpp   **** {
 237              		.loc 1 36 10
 238 0150 23B8A402 		sd	a0,48(s1)
  38:src/tcb.cpp   **** }
 239              		.loc 1 38 5 is_stmt 1
 240 0154 63040900 		beqz	s2,.L5
  38:src/tcb.cpp   **** }
 241              		.loc 1 38 25 is_stmt 0 discriminator 1
 242 0158 63160A04 		bnez	s4,.L16
 243              	.L5:
 244              	.LBE38:
  39:src/tcb.cpp   **** 
 245              		.loc 1 39 1
 246 015c 83308103 		ld	ra,56(sp)
 247              		.cfi_remember_state
 248              		.cfi_restore 1
 249 0160 03340103 		ld	s0,48(sp)
 250              		.cfi_restore 8
 251              		.cfi_def_cfa 2, 64
 252 0164 83348102 		ld	s1,40(sp)
 253              		.cfi_restore 9
 254              	.LVL17:
 255 0168 03390102 		ld	s2,32(sp)
 256              		.cfi_restore 18
 257              	.LVL18:
 258 016c 83398101 		ld	s3,24(sp)
 259              		.cfi_restore 19
 260              	.LVL19:
 261 0170 033A0101 		ld	s4,16(sp)
 262              		.cfi_restore 20
 263 0174 833A8100 		ld	s5,8(sp)
 264              		.cfi_restore 21
 265 0178 13010104 		addi	sp,sp,64
 266              		.cfi_def_cfa_offset 0
 267 017c 67800000 		jr	ra
 268              	.LVL20:
 269              	.L11:
 270              		.cfi_restore_state
 271              	.LBB39:
  29:src/tcb.cpp   **** finished(false),
 272              		.loc 1 29 23
 273 0180 13050000 		li	a0,0
 274 0184 6FF0DFF9 		j	.L6
 275              	.LVL21:
 276              	.L13:
  34:src/tcb.cpp   ****     stack != nullptr ? (uint64) &stack[DEFAULT_STACK_SIZE] : 0
 277              		.loc 1 34 21
 278 0188 97070000 		lla	a5,_ZN3TCB13threadWrapperEv
 278      93870700 
 279 0190 6FF01FFB 		j	.L7
GAS LISTING /tmp/ccH7Hwz1.s 			page 10


 280              	.L12:
 281 0194 93070000 		li	a5,0
 282 0198 6FF09FFA 		j	.L7
 283              	.L14:
  35:src/tcb.cpp   ****         })
 284              		.loc 1 35 22
 285 019c 13050000 		li	a0,0
 286 01a0 6FF01FFB 		j	.L9
 287              	.L16:
  38:src/tcb.cpp   **** }
 288              		.loc 1 38 35 is_stmt 1 discriminator 2
  38:src/tcb.cpp   **** }
 289              		.loc 1 38 49 is_stmt 0 discriminator 2
 290 01a4 13850400 		mv	a0,s1
 291 01a8 97000000 		call	_ZN9Scheduler3putEP3TCB@plt
 291      E7800000 
 292              	.LVL22:
 293              	.LBE39:
  39:src/tcb.cpp   **** 
 294              		.loc 1 39 1 discriminator 2
 295 01b0 6FF0DFFA 		j	.L5
 296              		.cfi_endproc
 297              	.LFE55:
 299              		.globl	_ZN3TCBC1EPFvPvES0_mbb
 300              		.set	_ZN3TCBC1EPFvPvES0_mbb,_ZN3TCBC2EPFvPvES0_mbb
 301              		.align	2
 302              		.globl	_ZN3TCB9createTCBEPFvPvES0_
 304              	_ZN3TCB9createTCBEPFvPvES0_:
 305              	.LFB51:
  13:src/tcb.cpp   ****     return new TCB(body, args, DEFAULT_TIME_SLICE, 1, 0);
 306              		.loc 1 13 49 is_stmt 1
 307              		.cfi_startproc
 308              		.cfi_personality 0x9b,DW.ref.__gxx_personality_v0
 309              		.cfi_lsda 0x1b,.LLSDA51
 310              	.LVL23:
 311 01b4 130101FD 		addi	sp,sp,-48
 312              		.cfi_def_cfa_offset 48
 313 01b8 23341102 		sd	ra,40(sp)
 314 01bc 23308102 		sd	s0,32(sp)
 315 01c0 233C9100 		sd	s1,24(sp)
 316 01c4 23382101 		sd	s2,16(sp)
 317 01c8 23343101 		sd	s3,8(sp)
 318              		.cfi_offset 1, -8
 319              		.cfi_offset 8, -16
 320              		.cfi_offset 9, -24
 321              		.cfi_offset 18, -32
 322              		.cfi_offset 19, -40
 323 01cc 13040103 		addi	s0,sp,48
 324              		.cfi_def_cfa 8, 0
 325 01d0 13090500 		mv	s2,a0
 326 01d4 93890500 		mv	s3,a1
  14:src/tcb.cpp   **** }
 327              		.loc 1 14 5
 328              	.LVL24:
 329              	.LBB40:
 330              	.LBB41:
  29:src/../h/tcb.hpp **** 
GAS LISTING /tmp/ccH7Hwz1.s 			page 11


  30:src/../h/tcb.hpp ****     bool isBlocked() const { return blocked; }
  31:src/../h/tcb.hpp **** 
  32:src/../h/tcb.hpp ****     void setBlocked(bool val) { blocked = val; }
  33:src/../h/tcb.hpp **** 
  34:src/../h/tcb.hpp ****     uint64 getTimeSlice() const { return timeSlice; }
  35:src/../h/tcb.hpp **** 
  36:src/../h/tcb.hpp ****     static TCB* running;
  37:src/../h/tcb.hpp **** 
  38:src/../h/tcb.hpp ****     //static void yield();
  39:src/../h/tcb.hpp **** 
  40:src/../h/tcb.hpp ****     static void dispatch();
  41:src/../h/tcb.hpp **** 
  42:src/../h/tcb.hpp ****     static void incTimeSliceCounter() { timeSliceCounter++; }
  43:src/../h/tcb.hpp ****     static uint64 getTimeSliceCounter() { return timeSliceCounter; }
  44:src/../h/tcb.hpp ****     static void resetTimeSliceCounter() { timeSliceCounter = 0; }
  45:src/../h/tcb.hpp **** 
  46:src/../h/tcb.hpp ****     ~TCB() { MemoryAllocator::free(stack); }
  47:src/../h/tcb.hpp **** 
  48:src/../h/tcb.hpp ****     void* operator new(size_t size) {
  49:src/../h/tcb.hpp ****         return MemoryAllocator::allocate(size);
 331              		.loc 2 49 9
 332              		.loc 2 49 41 is_stmt 0
 333 01d8 13058003 		li	a0,56
 334              	.LVL25:
 335              	.LEHB0:
 336 01dc 97000000 		call	_ZN15MemoryAllocator8allocateEm@plt
 336      E7800000 
 337              	.LVL26:
 338              	.LEHE0:
 339 01e4 93040500 		mv	s1,a0
 340              	.LVL27:
 341              	.LBE41:
 342              	.LBE40:
  14:src/tcb.cpp   **** }
 343              		.loc 1 14 56
 344 01e8 93070000 		li	a5,0
 345 01ec 13071000 		li	a4,1
 346 01f0 93062000 		li	a3,2
 347 01f4 13860900 		mv	a2,s3
 348 01f8 93050900 		mv	a1,s2
 349              	.LEHB1:
 350 01fc 97000000 		call	_ZN3TCBC1EPFvPvES0_mbb
 350      E7800000 
 351              	.LVL28:
 352              	.LEHE1:
 353 0204 6F000002 		j	.L22
 354              	.L19:
 355 0208 13090500 		mv	s2,a0
 356              	.LVL29:
 357              	.LBB42:
 358              	.LBB43:
  50:src/../h/tcb.hpp ****     }
  51:src/../h/tcb.hpp **** 
  52:src/../h/tcb.hpp ****     void* operator new[](size_t size) {
  53:src/../h/tcb.hpp ****         return MemoryAllocator::allocate(size);
  54:src/../h/tcb.hpp ****     }
  55:src/../h/tcb.hpp **** 
GAS LISTING /tmp/ccH7Hwz1.s 			page 12


  56:src/../h/tcb.hpp ****     void operator delete(void* ptr) {
  57:src/../h/tcb.hpp ****         MemoryAllocator::free(ptr);
 359              		.loc 2 57 9 is_stmt 1
 360              		.loc 2 57 30 is_stmt 0
 361 020c 13850400 		mv	a0,s1
 362 0210 97000000 		call	_ZN15MemoryAllocator4freeEPv@plt
 362      E7800000 
 363              	.LVL30:
 364 0218 13050900 		mv	a0,s2
 365              	.LEHB2:
 366 021c 97000000 		call	_Unwind_Resume@plt
 366      E7800000 
 367              	.LVL31:
 368              	.LEHE2:
 369              	.L22:
 370              	.LBE43:
 371              	.LBE42:
  15:src/tcb.cpp   **** 
 372              		.loc 1 15 1
 373 0224 13850400 		mv	a0,s1
 374 0228 83308102 		ld	ra,40(sp)
 375              		.cfi_restore 1
 376 022c 03340102 		ld	s0,32(sp)
 377              		.cfi_restore 8
 378              		.cfi_def_cfa 2, 48
 379 0230 83348101 		ld	s1,24(sp)
 380              		.cfi_restore 9
 381 0234 03390101 		ld	s2,16(sp)
 382              		.cfi_restore 18
 383              	.LVL32:
 384 0238 83398100 		ld	s3,8(sp)
 385              		.cfi_restore 19
 386              	.LVL33:
 387 023c 13010103 		addi	sp,sp,48
 388              		.cfi_def_cfa_offset 0
 389 0240 67800000 		jr	ra
 390              		.cfi_endproc
 391              	.LFE51:
 392              		.globl	__gxx_personality_v0
 393              		.section	.gcc_except_table,"a",@progbits
 394              	.LLSDA51:
 395 0000 FF       		.byte	0xff
 396 0001 FF       		.byte	0xff
 397 0002 03       		.byte	0x3
 398 0003 27       		.byte	0x27
 399 0004 00000000 		.4byte	.LEHB0-.LFB51
 400 0008 00000000 		.4byte	.LEHE0-.LEHB0
 401 000c 00000000 		.4byte	0
 402 0010 00       		.byte	0
 403 0011 00000000 		.4byte	.LEHB1-.LFB51
 404 0015 00000000 		.4byte	.LEHE1-.LEHB1
 405 0019 00000000 		.4byte	.L19-.LFB51
 406 001d 00       		.byte	0
 407 001e 00000000 		.4byte	.LEHB2-.LFB51
 408 0022 00000000 		.4byte	.LEHE2-.LEHB2
 409 0026 00000000 		.4byte	0
 410 002a 00       		.byte	0
GAS LISTING /tmp/ccH7Hwz1.s 			page 13


 411              		.text
 413              		.align	2
 414              		.globl	_ZN3TCB20createDeactivatedTCBEPFvPvES0_
 416              	_ZN3TCB20createDeactivatedTCBEPFvPvES0_:
 417              	.LFB52:
  17:src/tcb.cpp   ****     return new TCB(body, args, DEFAULT_TIME_SLICE, 0, 0);
 418              		.loc 1 17 60 is_stmt 1
 419              		.cfi_startproc
 420              		.cfi_personality 0x9b,DW.ref.__gxx_personality_v0
 421              		.cfi_lsda 0x1b,.LLSDA52
 422              	.LVL34:
 423 0244 130101FD 		addi	sp,sp,-48
 424              		.cfi_def_cfa_offset 48
 425 0248 23341102 		sd	ra,40(sp)
 426 024c 23308102 		sd	s0,32(sp)
 427 0250 233C9100 		sd	s1,24(sp)
 428 0254 23382101 		sd	s2,16(sp)
 429 0258 23343101 		sd	s3,8(sp)
 430              		.cfi_offset 1, -8
 431              		.cfi_offset 8, -16
 432              		.cfi_offset 9, -24
 433              		.cfi_offset 18, -32
 434              		.cfi_offset 19, -40
 435 025c 13040103 		addi	s0,sp,48
 436              		.cfi_def_cfa 8, 0
 437 0260 13090500 		mv	s2,a0
 438 0264 93890500 		mv	s3,a1
  18:src/tcb.cpp   **** }
 439              		.loc 1 18 5
 440              	.LVL35:
 441              	.LBB44:
 442              	.LBB45:
  49:src/../h/tcb.hpp ****     }
 443              		.loc 2 49 9
  49:src/../h/tcb.hpp ****     }
 444              		.loc 2 49 41 is_stmt 0
 445 0268 13058003 		li	a0,56
 446              	.LVL36:
 447              	.LEHB3:
 448 026c 97000000 		call	_ZN15MemoryAllocator8allocateEm@plt
 448      E7800000 
 449              	.LVL37:
 450              	.LEHE3:
 451 0274 93040500 		mv	s1,a0
 452              	.LVL38:
 453              	.LBE45:
 454              	.LBE44:
  18:src/tcb.cpp   **** }
 455              		.loc 1 18 56
 456 0278 93070000 		li	a5,0
 457 027c 13070000 		li	a4,0
 458 0280 93062000 		li	a3,2
 459 0284 13860900 		mv	a2,s3
 460 0288 93050900 		mv	a1,s2
 461              	.LEHB4:
 462 028c 97000000 		call	_ZN3TCBC1EPFvPvES0_mbb
 462      E7800000 
GAS LISTING /tmp/ccH7Hwz1.s 			page 14


 463              	.LVL39:
 464              	.LEHE4:
 465 0294 6F000002 		j	.L28
 466              	.L25:
 467 0298 13090500 		mv	s2,a0
 468              	.LVL40:
 469              	.LBB46:
 470              	.LBB47:
 471              		.loc 2 57 9 is_stmt 1
 472              		.loc 2 57 30 is_stmt 0
 473 029c 13850400 		mv	a0,s1
 474 02a0 97000000 		call	_ZN15MemoryAllocator4freeEPv@plt
 474      E7800000 
 475              	.LVL41:
 476 02a8 13050900 		mv	a0,s2
 477              	.LEHB5:
 478 02ac 97000000 		call	_Unwind_Resume@plt
 478      E7800000 
 479              	.LVL42:
 480              	.LEHE5:
 481              	.L28:
 482              	.LBE47:
 483              	.LBE46:
  19:src/tcb.cpp   **** 
 484              		.loc 1 19 1
 485 02b4 13850400 		mv	a0,s1
 486 02b8 83308102 		ld	ra,40(sp)
 487              		.cfi_restore 1
 488 02bc 03340102 		ld	s0,32(sp)
 489              		.cfi_restore 8
 490              		.cfi_def_cfa 2, 48
 491 02c0 83348101 		ld	s1,24(sp)
 492              		.cfi_restore 9
 493 02c4 03390101 		ld	s2,16(sp)
 494              		.cfi_restore 18
 495              	.LVL43:
 496 02c8 83398100 		ld	s3,8(sp)
 497              		.cfi_restore 19
 498              	.LVL44:
 499 02cc 13010103 		addi	sp,sp,48
 500              		.cfi_def_cfa_offset 0
 501 02d0 67800000 		jr	ra
 502              		.cfi_endproc
 503              	.LFE52:
 504              		.section	.gcc_except_table
 505              	.LLSDA52:
 506 002b FF       		.byte	0xff
 507 002c FF       		.byte	0xff
 508 002d 03       		.byte	0x3
 509 002e 27       		.byte	0x27
 510 002f 00000000 		.4byte	.LEHB3-.LFB52
 511 0033 00000000 		.4byte	.LEHE3-.LEHB3
 512 0037 00000000 		.4byte	0
 513 003b 00       		.byte	0
 514 003c 00000000 		.4byte	.LEHB4-.LFB52
 515 0040 00000000 		.4byte	.LEHE4-.LEHB4
 516 0044 00000000 		.4byte	.L25-.LFB52
GAS LISTING /tmp/ccH7Hwz1.s 			page 15


 517 0048 00       		.byte	0
 518 0049 00000000 		.4byte	.LEHB5-.LFB52
 519 004d 00000000 		.4byte	.LEHE5-.LEHB5
 520 0051 00000000 		.4byte	0
 521 0055 00       		.byte	0
 522              		.text
 524              		.align	2
 525              		.globl	_ZN3TCB19createSupervisorTCBEPFvPvES0_
 527              	_ZN3TCB19createSupervisorTCBEPFvPvES0_:
 528              	.LFB53:
  21:src/tcb.cpp   ****     return new TCB
 529              		.loc 1 21 59 is_stmt 1
 530              		.cfi_startproc
 531              		.cfi_personality 0x9b,DW.ref.__gxx_personality_v0
 532              		.cfi_lsda 0x1b,.LLSDA53
 533              	.LVL45:
 534 02d4 130101FD 		addi	sp,sp,-48
 535              		.cfi_def_cfa_offset 48
 536 02d8 23341102 		sd	ra,40(sp)
 537 02dc 23308102 		sd	s0,32(sp)
 538 02e0 233C9100 		sd	s1,24(sp)
 539 02e4 23382101 		sd	s2,16(sp)
 540 02e8 23343101 		sd	s3,8(sp)
 541              		.cfi_offset 1, -8
 542              		.cfi_offset 8, -16
 543              		.cfi_offset 9, -24
 544              		.cfi_offset 18, -32
 545              		.cfi_offset 19, -40
 546 02ec 13040103 		addi	s0,sp,48
 547              		.cfi_def_cfa 8, 0
 548 02f0 13090500 		mv	s2,a0
 549 02f4 93890500 		mv	s3,a1
  22:src/tcb.cpp   ****     (body, args,DEFAULT_TIME_SLICE, true, true);
 550              		.loc 1 22 5
 551              	.LVL46:
 552              	.LBB48:
 553              	.LBB49:
  49:src/../h/tcb.hpp ****     }
 554              		.loc 2 49 9
  49:src/../h/tcb.hpp ****     }
 555              		.loc 2 49 41 is_stmt 0
 556 02f8 13058003 		li	a0,56
 557              	.LVL47:
 558              	.LEHB6:
 559 02fc 97000000 		call	_ZN15MemoryAllocator8allocateEm@plt
 559      E7800000 
 560              	.LVL48:
 561              	.LEHE6:
 562 0304 93040500 		mv	s1,a0
 563              	.LVL49:
 564              	.LBE49:
 565              	.LBE48:
  23:src/tcb.cpp   **** }
 566              		.loc 1 23 47
 567 0308 93071000 		li	a5,1
 568 030c 13071000 		li	a4,1
 569 0310 93062000 		li	a3,2
GAS LISTING /tmp/ccH7Hwz1.s 			page 16


 570 0314 13860900 		mv	a2,s3
 571 0318 93050900 		mv	a1,s2
 572              	.LEHB7:
 573 031c 97000000 		call	_ZN3TCBC1EPFvPvES0_mbb
 573      E7800000 
 574              	.LVL50:
 575              	.LEHE7:
 576 0324 6F000002 		j	.L34
 577              	.L31:
 578 0328 13090500 		mv	s2,a0
 579              	.LVL51:
 580              	.LBB50:
 581              	.LBB51:
 582              		.loc 2 57 9 is_stmt 1
 583              		.loc 2 57 30 is_stmt 0
 584 032c 13850400 		mv	a0,s1
 585 0330 97000000 		call	_ZN15MemoryAllocator4freeEPv@plt
 585      E7800000 
 586              	.LVL52:
 587 0338 13050900 		mv	a0,s2
 588              	.LEHB8:
 589 033c 97000000 		call	_Unwind_Resume@plt
 589      E7800000 
 590              	.LVL53:
 591              	.LEHE8:
 592              	.L34:
 593              	.LBE51:
 594              	.LBE50:
  24:src/tcb.cpp   **** 
 595              		.loc 1 24 1
 596 0344 13850400 		mv	a0,s1
 597 0348 83308102 		ld	ra,40(sp)
 598              		.cfi_restore 1
 599 034c 03340102 		ld	s0,32(sp)
 600              		.cfi_restore 8
 601              		.cfi_def_cfa 2, 48
 602 0350 83348101 		ld	s1,24(sp)
 603              		.cfi_restore 9
 604 0354 03390101 		ld	s2,16(sp)
 605              		.cfi_restore 18
 606              	.LVL54:
 607 0358 83398100 		ld	s3,8(sp)
 608              		.cfi_restore 19
 609              	.LVL55:
 610 035c 13010103 		addi	sp,sp,48
 611              		.cfi_def_cfa_offset 0
 612 0360 67800000 		jr	ra
 613              		.cfi_endproc
 614              	.LFE53:
 615              		.section	.gcc_except_table
 616              	.LLSDA53:
 617 0056 FF       		.byte	0xff
 618 0057 FF       		.byte	0xff
 619 0058 03       		.byte	0x3
 620 0059 27       		.byte	0x27
 621 005a 00000000 		.4byte	.LEHB6-.LFB53
 622 005e 00000000 		.4byte	.LEHE6-.LEHB6
GAS LISTING /tmp/ccH7Hwz1.s 			page 17


 623 0062 00000000 		.4byte	0
 624 0066 00       		.byte	0
 625 0067 00000000 		.4byte	.LEHB7-.LFB53
 626 006b 00000000 		.4byte	.LEHE7-.LEHB7
 627 006f 00000000 		.4byte	.L31-.LFB53
 628 0073 00       		.byte	0
 629 0074 00000000 		.4byte	.LEHB8-.LFB53
 630 0078 00000000 		.4byte	.LEHE8-.LEHB8
 631 007c 00000000 		.4byte	0
 632 0080 00       		.byte	0
 633              		.text
 635              		.align	2
 636              		.globl	_ZN3TCB8dispatchEv
 638              	_ZN3TCB8dispatchEv:
 639              	.LFB57:
  42:src/tcb.cpp   ****     TCB *old = running;
 640              		.loc 1 42 22 is_stmt 1
 641              		.cfi_startproc
 642 0364 130101FE 		addi	sp,sp,-32
 643              		.cfi_def_cfa_offset 32
 644 0368 233C1100 		sd	ra,24(sp)
 645 036c 23388100 		sd	s0,16(sp)
 646 0370 23349100 		sd	s1,8(sp)
 647              		.cfi_offset 1, -8
 648              		.cfi_offset 8, -16
 649              		.cfi_offset 9, -24
 650 0374 13040102 		addi	s0,sp,32
 651              		.cfi_def_cfa 8, 0
  43:src/tcb.cpp   ****     if (!old->isFinished() && !old->isBlocked()) { Scheduler::put(old); }
 652              		.loc 1 43 5
  43:src/tcb.cpp   ****     if (!old->isFinished() && !old->isBlocked()) { Scheduler::put(old); }
 653              		.loc 1 43 10 is_stmt 0
 654 0378 97040000 		ld	s1,.LANCHOR0
 654      83B40400 
 655              	.LVL56:
  44:src/tcb.cpp   ****     running = Scheduler::get();
 656              		.loc 1 44 5 is_stmt 1
 657              	.LBB52:
 658              	.LBB53:
  26:src/../h/tcb.hpp **** 
 659              		.loc 2 26 31
  26:src/../h/tcb.hpp **** 
 660              		.loc 2 26 38 is_stmt 0
 661 0380 83C78401 		lbu	a5,24(s1)
 662              	.LVL57:
 663              	.LBE53:
 664              	.LBE52:
  44:src/tcb.cpp   ****     running = Scheduler::get();
 665              		.loc 1 44 28
 666 0384 63960700 		bnez	a5,.L36
 667              	.LVL58:
 668              	.LBB54:
 669              	.LBB55:
  30:src/../h/tcb.hpp **** 
 670              		.loc 2 30 30 is_stmt 1
  30:src/../h/tcb.hpp **** 
 671              		.loc 2 30 37 is_stmt 0
GAS LISTING /tmp/ccH7Hwz1.s 			page 18


 672 0388 83C79401 		lbu	a5,25(s1)
 673              	.LVL59:
 674              	.LBE55:
 675              	.LBE54:
  44:src/tcb.cpp   ****     running = Scheduler::get();
 676              		.loc 1 44 28
 677 038c 638C0702 		beqz	a5,.L38
 678              	.L36:
  45:src/tcb.cpp   **** 
 679              		.loc 1 45 5 is_stmt 1
  45:src/tcb.cpp   **** 
 680              		.loc 1 45 29 is_stmt 0
 681 0390 97000000 		call	_ZN9Scheduler3getEv@plt
 681      E7800000 
 682              	.LVL60:
  45:src/tcb.cpp   **** 
 683              		.loc 1 45 13
 684 0398 97070000 		sd	a0,.LANCHOR0,a5
 684      23B0A700 
  47:src/tcb.cpp   **** }
 685              		.loc 1 47 5 is_stmt 1
  47:src/tcb.cpp   **** }
 686              		.loc 1 47 23 is_stmt 0
 687 03a0 93058502 		addi	a1,a0,40
 688 03a4 13858402 		addi	a0,s1,40
 689 03a8 97000000 		call	_ZN3TCB13contextSwitchEPNS_7ContextES1_@plt
 689      E7800000 
 690              	.LVL61:
  48:src/tcb.cpp   **** 
 691              		.loc 1 48 1
 692 03b0 83308101 		ld	ra,24(sp)
 693              		.cfi_remember_state
 694              		.cfi_restore 1
 695 03b4 03340101 		ld	s0,16(sp)
 696              		.cfi_restore 8
 697              		.cfi_def_cfa 2, 32
 698 03b8 83348100 		ld	s1,8(sp)
 699              		.cfi_restore 9
 700              	.LVL62:
 701 03bc 13010102 		addi	sp,sp,32
 702              		.cfi_def_cfa_offset 0
 703 03c0 67800000 		jr	ra
 704              	.LVL63:
 705              	.L38:
 706              		.cfi_restore_state
  44:src/tcb.cpp   ****     running = Scheduler::get();
 707              		.loc 1 44 52 is_stmt 1
  44:src/tcb.cpp   ****     running = Scheduler::get();
 708              		.loc 1 44 66 is_stmt 0
 709 03c4 13850400 		mv	a0,s1
 710 03c8 97000000 		call	_ZN9Scheduler3putEP3TCB@plt
 710      E7800000 
 711              	.LVL64:
 712 03d0 6FF01FFC 		j	.L36
 713              		.cfi_endproc
 714              	.LFE57:
 716              		.globl	_ZN3TCB16timeSliceCounterE
GAS LISTING /tmp/ccH7Hwz1.s 			page 19


 717              		.globl	_ZN3TCB7runningE
 718              		.bss
 719              		.align	3
 720              		.set	.LANCHOR0,. + 0
 723              	_ZN3TCB7runningE:
 724 0000 00000000 		.zero	8
 724      00000000 
 727              	_ZN3TCB16timeSliceCounterE:
 728 0008 00000000 		.zero	8
 728      00000000 
 729              		.text
 730              	.Letext0:
 731              		.file 4 "src/../h/../lib/hw.h"
 732              		.file 5 "src/../h/memory_allocator.hpp"
 733              		.file 6 "src/../h/scheduler.hpp"
 734              		.file 7 "src/../h/syscall_c.h"
 4128              		.align	3
 4131              	DW.ref.__gxx_personality_v0:
 4132 0000 00000000 		.dword	__gxx_personality_v0
 4132      00000000 
 4133              		.ident	"GCC: (Ubuntu 9.4.0-1ubuntu1~20.04) 9.4.0"
 4134              		.section	.note.GNU-stack,"",@progbits
GAS LISTING /tmp/ccH7Hwz1.s 			page 20


DEFINED SYMBOLS
                            *ABS*:0000000000000000 tcb.cpp
     /tmp/ccH7Hwz1.s:9      .text:0000000000000000 _ZN3TCB13threadWrapperEv
     /tmp/ccH7Hwz1.s:13     .text:0000000000000000 .L0 
     /tmp/ccH7Hwz1.s:14     .text:0000000000000000 .L0 
     /tmp/ccH7Hwz1.s:15     .text:0000000000000004 .L0 
     /tmp/ccH7Hwz1.s:19     .text:0000000000000010 .L0 
     /tmp/ccH7Hwz1.s:20     .text:0000000000000010 .L0 
     /tmp/ccH7Hwz1.s:21     .text:0000000000000010 .L0 
     /tmp/ccH7Hwz1.s:23     .text:0000000000000014 .L0 
     /tmp/ccH7Hwz1.s:25     .text:0000000000000014 .L0 
     /tmp/ccH7Hwz1.s:26     .text:0000000000000014 .L0 
     /tmp/ccH7Hwz1.s:29     .text:000000000000001c .L0 
     /tmp/ccH7Hwz1.s:30     .text:000000000000001c .L0 
     /tmp/ccH7Hwz1.s:34     .text:000000000000002c .L0 
     /tmp/ccH7Hwz1.s:38     .text:0000000000000034 .L0 
     /tmp/ccH7Hwz1.s:39     .text:0000000000000034 .L0 
     /tmp/ccH7Hwz1.s:45     .text:0000000000000038 .L0 
     /tmp/ccH7Hwz1.s:46     .text:0000000000000038 .L0 
     /tmp/ccH7Hwz1.s:52     .text:0000000000000040 .L0 
     /tmp/ccH7Hwz1.s:53     .text:0000000000000040 .L0 
     /tmp/ccH7Hwz1.s:56     .text:0000000000000048 .L0 
     /tmp/ccH7Hwz1.s:57     .text:000000000000004c .L0 
     /tmp/ccH7Hwz1.s:59     .text:0000000000000050 .L0 
     /tmp/ccH7Hwz1.s:60     .text:0000000000000050 .L0 
     /tmp/ccH7Hwz1.s:62     .text:0000000000000054 .L0 
     /tmp/ccH7Hwz1.s:64     .text:0000000000000058 .L0 
     /tmp/ccH7Hwz1.s:66     .text:000000000000005c .L0 
     /tmp/ccH7Hwz1.s:72     .text:000000000000005c _ZN3TCB14sThreadWrapperEv
     /tmp/ccH7Hwz1.s:75     .text:000000000000005c .L0 
     /tmp/ccH7Hwz1.s:76     .text:000000000000005c .L0 
     /tmp/ccH7Hwz1.s:77     .text:0000000000000060 .L0 
     /tmp/ccH7Hwz1.s:81     .text:000000000000006c .L0 
     /tmp/ccH7Hwz1.s:82     .text:000000000000006c .L0 
     /tmp/ccH7Hwz1.s:83     .text:000000000000006c .L0 
     /tmp/ccH7Hwz1.s:85     .text:0000000000000070 .L0 
     /tmp/ccH7Hwz1.s:91     .text:0000000000000070 .L0 
     /tmp/ccH7Hwz1.s:92     .text:0000000000000070 .L0 
     /tmp/ccH7Hwz1.s:93     .text:0000000000000070 .L0 
     /tmp/ccH7Hwz1.s:105    .text:0000000000000078 .L0 
     /tmp/ccH7Hwz1.s:106    .text:0000000000000078 .L0 
     /tmp/ccH7Hwz1.s:107    .text:0000000000000078 .L0 
     /tmp/ccH7Hwz1.s:119    .text:0000000000000080 .L0 
     /tmp/ccH7Hwz1.s:120    .text:0000000000000080 .L0 
     /tmp/ccH7Hwz1.s:121    .text:0000000000000080 .L0 
     /tmp/ccH7Hwz1.s:131    .text:0000000000000088 .L0 
     /tmp/ccH7Hwz1.s:132    .text:0000000000000088 .L0 
     /tmp/ccH7Hwz1.s:135    .text:0000000000000090 .L0 
     /tmp/ccH7Hwz1.s:136    .text:0000000000000090 .L0 
     /tmp/ccH7Hwz1.s:140    .text:00000000000000a0 .L0 
     /tmp/ccH7Hwz1.s:144    .text:00000000000000a8 .L0 
     /tmp/ccH7Hwz1.s:145    .text:00000000000000a8 .L0 
     /tmp/ccH7Hwz1.s:150    .text:00000000000000ac .L0 
     /tmp/ccH7Hwz1.s:151    .text:00000000000000ac .L0 
     /tmp/ccH7Hwz1.s:157    .text:00000000000000b4 .L0 
     /tmp/ccH7Hwz1.s:158    .text:00000000000000b4 .L0 
     /tmp/ccH7Hwz1.s:161    .text:00000000000000bc .L0 
GAS LISTING /tmp/ccH7Hwz1.s 			page 21


     /tmp/ccH7Hwz1.s:162    .text:00000000000000c0 .L0 
     /tmp/ccH7Hwz1.s:164    .text:00000000000000c4 .L0 
     /tmp/ccH7Hwz1.s:165    .text:00000000000000c4 .L0 
     /tmp/ccH7Hwz1.s:167    .text:00000000000000c8 .L0 
     /tmp/ccH7Hwz1.s:169    .text:00000000000000cc .L0 
     /tmp/ccH7Hwz1.s:171    .text:00000000000000d0 .L0 
     /tmp/ccH7Hwz1.s:177    .text:00000000000000d0 _ZN3TCBC2EPFvPvES0_mbb
     /tmp/ccH7Hwz1.s:180    .text:00000000000000d0 .L0 
     /tmp/ccH7Hwz1.s:182    .text:00000000000000d0 .L0 
     /tmp/ccH7Hwz1.s:183    .text:00000000000000d4 .L0 
     /tmp/ccH7Hwz1.s:191    .text:00000000000000f0 .L0 
     /tmp/ccH7Hwz1.s:192    .text:00000000000000f0 .L0 
     /tmp/ccH7Hwz1.s:193    .text:00000000000000f0 .L0 
     /tmp/ccH7Hwz1.s:194    .text:00000000000000f0 .L0 
     /tmp/ccH7Hwz1.s:195    .text:00000000000000f0 .L0 
     /tmp/ccH7Hwz1.s:196    .text:00000000000000f0 .L0 
     /tmp/ccH7Hwz1.s:197    .text:00000000000000f0 .L0 
     /tmp/ccH7Hwz1.s:199    .text:00000000000000f4 .L0 
     /tmp/ccH7Hwz1.s:207    .text:0000000000000108 .L0 
     /tmp/ccH7Hwz1.s:210    .text:0000000000000110 .L0 
     /tmp/ccH7Hwz1.s:212    .text:0000000000000114 .L0 
     /tmp/ccH7Hwz1.s:218    .text:0000000000000120 .L0 
     /tmp/ccH7Hwz1.s:223    .text:0000000000000130 .L0 
     /tmp/ccH7Hwz1.s:225    .text:0000000000000134 .L0 
     /tmp/ccH7Hwz1.s:227    .text:0000000000000138 .L0 
     /tmp/ccH7Hwz1.s:230    .text:0000000000000140 .L0 
     /tmp/ccH7Hwz1.s:232    .text:0000000000000144 .L0 
     /tmp/ccH7Hwz1.s:234    .text:0000000000000148 .L0 
     /tmp/ccH7Hwz1.s:238    .text:0000000000000150 .L0 
     /tmp/ccH7Hwz1.s:240    .text:0000000000000154 .L0 
     /tmp/ccH7Hwz1.s:242    .text:0000000000000158 .L0 
     /tmp/ccH7Hwz1.s:246    .text:000000000000015c .L0 
     /tmp/ccH7Hwz1.s:247    .text:0000000000000160 .L0 
     /tmp/ccH7Hwz1.s:248    .text:0000000000000160 .L0 
     /tmp/ccH7Hwz1.s:250    .text:0000000000000164 .L0 
     /tmp/ccH7Hwz1.s:251    .text:0000000000000164 .L0 
     /tmp/ccH7Hwz1.s:253    .text:0000000000000168 .L0 
     /tmp/ccH7Hwz1.s:256    .text:000000000000016c .L0 
     /tmp/ccH7Hwz1.s:259    .text:0000000000000170 .L0 
     /tmp/ccH7Hwz1.s:262    .text:0000000000000174 .L0 
     /tmp/ccH7Hwz1.s:264    .text:0000000000000178 .L0 
     /tmp/ccH7Hwz1.s:266    .text:000000000000017c .L0 
     /tmp/ccH7Hwz1.s:270    .text:0000000000000180 .L0 
     /tmp/ccH7Hwz1.s:273    .text:0000000000000180 .L0 
     /tmp/ccH7Hwz1.s:278    .text:0000000000000188 .L0 
     /tmp/ccH7Hwz1.s:285    .text:000000000000019c .L0 
     /tmp/ccH7Hwz1.s:289    .text:00000000000001a4 .L0 
     /tmp/ccH7Hwz1.s:290    .text:00000000000001a4 .L0 
     /tmp/ccH7Hwz1.s:295    .text:00000000000001b0 .L0 
     /tmp/ccH7Hwz1.s:296    .text:00000000000001b4 .L0 
     /tmp/ccH7Hwz1.s:177    .text:00000000000000d0 _ZN3TCBC1EPFvPvES0_mbb
     /tmp/ccH7Hwz1.s:304    .text:00000000000001b4 _ZN3TCB9createTCBEPFvPvES0_
     /tmp/ccH7Hwz1.s:307    .text:00000000000001b4 .L0 
     /tmp/ccH7Hwz1.s:4131   .data.rel.local.DW.ref.__gxx_personality_v0:0000000000000000 DW.ref.__gxx_personality_v0
     /tmp/ccH7Hwz1.s:311    .text:00000000000001b4 .L0 
     /tmp/ccH7Hwz1.s:312    .text:00000000000001b8 .L0 
     /tmp/ccH7Hwz1.s:318    .text:00000000000001cc .L0 
GAS LISTING /tmp/ccH7Hwz1.s 			page 22


     /tmp/ccH7Hwz1.s:319    .text:00000000000001cc .L0 
     /tmp/ccH7Hwz1.s:320    .text:00000000000001cc .L0 
     /tmp/ccH7Hwz1.s:321    .text:00000000000001cc .L0 
     /tmp/ccH7Hwz1.s:322    .text:00000000000001cc .L0 
     /tmp/ccH7Hwz1.s:324    .text:00000000000001d0 .L0 
     /tmp/ccH7Hwz1.s:331    .text:00000000000001d8 .L0 
     /tmp/ccH7Hwz1.s:332    .text:00000000000001d8 .L0 
     /tmp/ccH7Hwz1.s:333    .text:00000000000001d8 .L0 
     /tmp/ccH7Hwz1.s:344    .text:00000000000001e8 .L0 
     /tmp/ccH7Hwz1.s:360    .text:000000000000020c .L0 
     /tmp/ccH7Hwz1.s:361    .text:000000000000020c .L0 
     /tmp/ccH7Hwz1.s:373    .text:0000000000000224 .L0 
     /tmp/ccH7Hwz1.s:375    .text:000000000000022c .L0 
     /tmp/ccH7Hwz1.s:377    .text:0000000000000230 .L0 
     /tmp/ccH7Hwz1.s:378    .text:0000000000000230 .L0 
     /tmp/ccH7Hwz1.s:380    .text:0000000000000234 .L0 
     /tmp/ccH7Hwz1.s:382    .text:0000000000000238 .L0 
     /tmp/ccH7Hwz1.s:385    .text:000000000000023c .L0 
     /tmp/ccH7Hwz1.s:388    .text:0000000000000240 .L0 
     /tmp/ccH7Hwz1.s:390    .text:0000000000000244 .L0 
     /tmp/ccH7Hwz1.s:416    .text:0000000000000244 _ZN3TCB20createDeactivatedTCBEPFvPvES0_
     /tmp/ccH7Hwz1.s:419    .text:0000000000000244 .L0 
     /tmp/ccH7Hwz1.s:423    .text:0000000000000244 .L0 
     /tmp/ccH7Hwz1.s:424    .text:0000000000000248 .L0 
     /tmp/ccH7Hwz1.s:430    .text:000000000000025c .L0 
     /tmp/ccH7Hwz1.s:431    .text:000000000000025c .L0 
     /tmp/ccH7Hwz1.s:432    .text:000000000000025c .L0 
     /tmp/ccH7Hwz1.s:433    .text:000000000000025c .L0 
     /tmp/ccH7Hwz1.s:434    .text:000000000000025c .L0 
     /tmp/ccH7Hwz1.s:436    .text:0000000000000260 .L0 
     /tmp/ccH7Hwz1.s:443    .text:0000000000000268 .L0 
     /tmp/ccH7Hwz1.s:444    .text:0000000000000268 .L0 
     /tmp/ccH7Hwz1.s:445    .text:0000000000000268 .L0 
     /tmp/ccH7Hwz1.s:456    .text:0000000000000278 .L0 
     /tmp/ccH7Hwz1.s:472    .text:000000000000029c .L0 
     /tmp/ccH7Hwz1.s:473    .text:000000000000029c .L0 
     /tmp/ccH7Hwz1.s:485    .text:00000000000002b4 .L0 
     /tmp/ccH7Hwz1.s:487    .text:00000000000002bc .L0 
     /tmp/ccH7Hwz1.s:489    .text:00000000000002c0 .L0 
     /tmp/ccH7Hwz1.s:490    .text:00000000000002c0 .L0 
     /tmp/ccH7Hwz1.s:492    .text:00000000000002c4 .L0 
     /tmp/ccH7Hwz1.s:494    .text:00000000000002c8 .L0 
     /tmp/ccH7Hwz1.s:497    .text:00000000000002cc .L0 
     /tmp/ccH7Hwz1.s:500    .text:00000000000002d0 .L0 
     /tmp/ccH7Hwz1.s:502    .text:00000000000002d4 .L0 
     /tmp/ccH7Hwz1.s:527    .text:00000000000002d4 _ZN3TCB19createSupervisorTCBEPFvPvES0_
     /tmp/ccH7Hwz1.s:530    .text:00000000000002d4 .L0 
     /tmp/ccH7Hwz1.s:534    .text:00000000000002d4 .L0 
     /tmp/ccH7Hwz1.s:535    .text:00000000000002d8 .L0 
     /tmp/ccH7Hwz1.s:541    .text:00000000000002ec .L0 
     /tmp/ccH7Hwz1.s:542    .text:00000000000002ec .L0 
     /tmp/ccH7Hwz1.s:543    .text:00000000000002ec .L0 
     /tmp/ccH7Hwz1.s:544    .text:00000000000002ec .L0 
     /tmp/ccH7Hwz1.s:545    .text:00000000000002ec .L0 
     /tmp/ccH7Hwz1.s:547    .text:00000000000002f0 .L0 
     /tmp/ccH7Hwz1.s:554    .text:00000000000002f8 .L0 
     /tmp/ccH7Hwz1.s:555    .text:00000000000002f8 .L0 
GAS LISTING /tmp/ccH7Hwz1.s 			page 23


     /tmp/ccH7Hwz1.s:556    .text:00000000000002f8 .L0 
     /tmp/ccH7Hwz1.s:567    .text:0000000000000308 .L0 
     /tmp/ccH7Hwz1.s:583    .text:000000000000032c .L0 
     /tmp/ccH7Hwz1.s:584    .text:000000000000032c .L0 
     /tmp/ccH7Hwz1.s:596    .text:0000000000000344 .L0 
     /tmp/ccH7Hwz1.s:598    .text:000000000000034c .L0 
     /tmp/ccH7Hwz1.s:600    .text:0000000000000350 .L0 
     /tmp/ccH7Hwz1.s:601    .text:0000000000000350 .L0 
     /tmp/ccH7Hwz1.s:603    .text:0000000000000354 .L0 
     /tmp/ccH7Hwz1.s:605    .text:0000000000000358 .L0 
     /tmp/ccH7Hwz1.s:608    .text:000000000000035c .L0 
     /tmp/ccH7Hwz1.s:611    .text:0000000000000360 .L0 
     /tmp/ccH7Hwz1.s:613    .text:0000000000000364 .L0 
     /tmp/ccH7Hwz1.s:638    .text:0000000000000364 _ZN3TCB8dispatchEv
     /tmp/ccH7Hwz1.s:641    .text:0000000000000364 .L0 
     /tmp/ccH7Hwz1.s:642    .text:0000000000000364 .L0 
     /tmp/ccH7Hwz1.s:643    .text:0000000000000368 .L0 
     /tmp/ccH7Hwz1.s:647    .text:0000000000000374 .L0 
     /tmp/ccH7Hwz1.s:648    .text:0000000000000374 .L0 
     /tmp/ccH7Hwz1.s:649    .text:0000000000000374 .L0 
     /tmp/ccH7Hwz1.s:651    .text:0000000000000378 .L0 
     /tmp/ccH7Hwz1.s:653    .text:0000000000000378 .L0 
     /tmp/ccH7Hwz1.s:654    .text:0000000000000378 .L0 
     /tmp/ccH7Hwz1.s:659    .text:0000000000000380 .L0 
     /tmp/ccH7Hwz1.s:660    .text:0000000000000380 .L0 
     /tmp/ccH7Hwz1.s:661    .text:0000000000000380 .L0 
     /tmp/ccH7Hwz1.s:666    .text:0000000000000384 .L0 
     /tmp/ccH7Hwz1.s:671    .text:0000000000000388 .L0 
     /tmp/ccH7Hwz1.s:672    .text:0000000000000388 .L0 
     /tmp/ccH7Hwz1.s:677    .text:000000000000038c .L0 
     /tmp/ccH7Hwz1.s:680    .text:0000000000000390 .L0 
     /tmp/ccH7Hwz1.s:681    .text:0000000000000390 .L0 
     /tmp/ccH7Hwz1.s:684    .text:0000000000000398 .L0 
     /tmp/ccH7Hwz1.s:686    .text:00000000000003a0 .L0 
     /tmp/ccH7Hwz1.s:687    .text:00000000000003a0 .L0 
     /tmp/ccH7Hwz1.s:692    .text:00000000000003b0 .L0 
     /tmp/ccH7Hwz1.s:693    .text:00000000000003b4 .L0 
     /tmp/ccH7Hwz1.s:694    .text:00000000000003b4 .L0 
     /tmp/ccH7Hwz1.s:696    .text:00000000000003b8 .L0 
     /tmp/ccH7Hwz1.s:697    .text:00000000000003b8 .L0 
     /tmp/ccH7Hwz1.s:699    .text:00000000000003bc .L0 
     /tmp/ccH7Hwz1.s:702    .text:00000000000003c0 .L0 
     /tmp/ccH7Hwz1.s:706    .text:00000000000003c4 .L0 
     /tmp/ccH7Hwz1.s:708    .text:00000000000003c4 .L0 
     /tmp/ccH7Hwz1.s:709    .text:00000000000003c4 .L0 
     /tmp/ccH7Hwz1.s:713    .text:00000000000003d4 .L0 
     /tmp/ccH7Hwz1.s:727    .bss:0000000000000008 _ZN3TCB16timeSliceCounterE
     /tmp/ccH7Hwz1.s:723    .bss:0000000000000000 _ZN3TCB7runningE
     /tmp/ccH7Hwz1.s:720    .bss:0000000000000000 .LANCHOR0
     /tmp/ccH7Hwz1.s:735    .text:00000000000003d4 .L0 
     /tmp/ccH7Hwz1.s:30     .text:000000000000001c .L0 
     /tmp/ccH7Hwz1.s:136    .text:0000000000000090 .L0 
     /tmp/ccH7Hwz1.s:227    .text:0000000000000138 .L0 
     /tmp/ccH7Hwz1.s:278    .text:0000000000000188 .L0 
     /tmp/ccH7Hwz1.s:654    .text:0000000000000378 .L0 
     /tmp/ccH7Hwz1.s:684    .text:0000000000000398 .L0 
     /tmp/ccH7Hwz1.s:269    .text:0000000000000180 .L11
GAS LISTING /tmp/ccH7Hwz1.s 			page 24


     /tmp/ccH7Hwz1.s:280    .text:0000000000000194 .L12
     /tmp/ccH7Hwz1.s:276    .text:0000000000000188 .L13
     /tmp/ccH7Hwz1.s:283    .text:000000000000019c .L14
     /tmp/ccH7Hwz1.s:243    .text:000000000000015c .L5
     /tmp/ccH7Hwz1.s:287    .text:00000000000001a4 .L16
     /tmp/ccH7Hwz1.s:216    .text:0000000000000120 .L6
     /tmp/ccH7Hwz1.s:228    .text:0000000000000140 .L7
     /tmp/ccH7Hwz1.s:236    .text:0000000000000150 .L9
     /tmp/ccH7Hwz1.s:369    .text:0000000000000224 .L22
     /tmp/ccH7Hwz1.s:481    .text:00000000000002b4 .L28
     /tmp/ccH7Hwz1.s:592    .text:0000000000000344 .L34
     /tmp/ccH7Hwz1.s:678    .text:0000000000000390 .L36
     /tmp/ccH7Hwz1.s:705    .text:00000000000003c4 .L38
     /tmp/ccH7Hwz1.s:335    .text:00000000000001dc .LEHB0
     /tmp/ccH7Hwz1.s:305    .text:00000000000001b4 .LFB51
     /tmp/ccH7Hwz1.s:338    .text:00000000000001e4 .LEHE0
     /tmp/ccH7Hwz1.s:349    .text:00000000000001fc .LEHB1
     /tmp/ccH7Hwz1.s:352    .text:0000000000000204 .LEHE1
     /tmp/ccH7Hwz1.s:354    .text:0000000000000208 .L19
     /tmp/ccH7Hwz1.s:365    .text:000000000000021c .LEHB2
     /tmp/ccH7Hwz1.s:368    .text:0000000000000224 .LEHE2
     /tmp/ccH7Hwz1.s:447    .text:000000000000026c .LEHB3
     /tmp/ccH7Hwz1.s:417    .text:0000000000000244 .LFB52
     /tmp/ccH7Hwz1.s:450    .text:0000000000000274 .LEHE3
     /tmp/ccH7Hwz1.s:461    .text:000000000000028c .LEHB4
     /tmp/ccH7Hwz1.s:464    .text:0000000000000294 .LEHE4
     /tmp/ccH7Hwz1.s:466    .text:0000000000000298 .L25
     /tmp/ccH7Hwz1.s:477    .text:00000000000002ac .LEHB5
     /tmp/ccH7Hwz1.s:480    .text:00000000000002b4 .LEHE5
     /tmp/ccH7Hwz1.s:558    .text:00000000000002fc .LEHB6
     /tmp/ccH7Hwz1.s:528    .text:00000000000002d4 .LFB53
     /tmp/ccH7Hwz1.s:561    .text:0000000000000304 .LEHE6
     /tmp/ccH7Hwz1.s:572    .text:000000000000031c .LEHB7
     /tmp/ccH7Hwz1.s:575    .text:0000000000000324 .LEHE7
     /tmp/ccH7Hwz1.s:577    .text:0000000000000328 .L31
     /tmp/ccH7Hwz1.s:588    .text:000000000000033c .LEHB8
     /tmp/ccH7Hwz1.s:591    .text:0000000000000344 .LEHE8
     /tmp/ccH7Hwz1.s:2329   .debug_abbrev:0000000000000000 .Ldebug_abbrev0
     /tmp/ccH7Hwz1.s:4079   .debug_str:0000000000000859 .LASF139
     /tmp/ccH7Hwz1.s:3955   .debug_str:0000000000000496 .LASF140
     /tmp/ccH7Hwz1.s:3969   .debug_str:0000000000000509 .LASF141
     /tmp/ccH7Hwz1.s:5      .text:0000000000000000 .Ltext0
     /tmp/ccH7Hwz1.s:730    .text:00000000000003d4 .Letext0
     /tmp/ccH7Hwz1.s:3815   .debug_line:0000000000000000 .Ldebug_line0
     /tmp/ccH7Hwz1.s:3981   .debug_str:0000000000000574 .LASF0
     /tmp/ccH7Hwz1.s:4001   .debug_str:0000000000000609 .LASF1
     /tmp/ccH7Hwz1.s:3959   .debug_str:00000000000004a8 .LASF2
     /tmp/ccH7Hwz1.s:3929   .debug_str:00000000000003fe .LASF4
     /tmp/ccH7Hwz1.s:4059   .debug_str:00000000000007e7 .LASF3
     /tmp/ccH7Hwz1.s:3845   .debug_str:00000000000000bd .LASF5
     /tmp/ccH7Hwz1.s:3881   .debug_str:000000000000020e .LASF6
     /tmp/ccH7Hwz1.s:4005   .debug_str:0000000000000626 .LASF7
     /tmp/ccH7Hwz1.s:3979   .debug_str:0000000000000561 .LASF8
     /tmp/ccH7Hwz1.s:4091   .debug_str:0000000000000981 .LASF9
     /tmp/ccH7Hwz1.s:3913   .debug_str:000000000000031e .LASF10
     /tmp/ccH7Hwz1.s:4023   .debug_str:00000000000006a7 .LASF11
     /tmp/ccH7Hwz1.s:4085   .debug_str:000000000000093c .LASF12
GAS LISTING /tmp/ccH7Hwz1.s 			page 25


     /tmp/ccH7Hwz1.s:3847   .debug_str:00000000000000c4 .LASF13
     /tmp/ccH7Hwz1.s:3825   .debug_str:000000000000003d .LASF14
     /tmp/ccH7Hwz1.s:3861   .debug_str:0000000000000141 .LASF15
     /tmp/ccH7Hwz1.s:4049   .debug_str:0000000000000772 .LASF16
     /tmp/ccH7Hwz1.s:3873   .debug_str:00000000000001aa .LASF17
     /tmp/ccH7Hwz1.s:3957   .debug_str:00000000000004a2 .LASF51
     /tmp/ccH7Hwz1.s:3839   .debug_str:000000000000008e .LASF142
     /tmp/ccH7Hwz1.s:4029   .debug_str:00000000000006df .LASF18
     /tmp/ccH7Hwz1.s:4045   .debug_str:000000000000075b .LASF19
     /tmp/ccH7Hwz1.s:3903   .debug_str:00000000000002bc .LASF21
     /tmp/ccH7Hwz1.s:3841   .debug_str:0000000000000096 .LASF20
     /tmp/ccH7Hwz1.s:4095   .debug_str:00000000000009a9 .LASF22
     /tmp/ccH7Hwz1.s:4069   .debug_str:000000000000082a .LASF23
     /tmp/ccH7Hwz1.s:4053   .debug_str:0000000000000797 .LASF24
     /tmp/ccH7Hwz1.s:3829   .debug_str:0000000000000057 .LASF25
     /tmp/ccH7Hwz1.s:4007   .debug_str:0000000000000639 .LASF27
     /tmp/ccH7Hwz1.s:4047   .debug_str:0000000000000766 .LASF29
     /tmp/ccH7Hwz1.s:3877   .debug_str:00000000000001d5 .LASF31
     /tmp/ccH7Hwz1.s:4027   .debug_str:00000000000006d6 .LASF26
     /tmp/ccH7Hwz1.s:3875   .debug_str:00000000000001c0 .LASF28
     /tmp/ccH7Hwz1.s:4067   .debug_str:0000000000000820 .LASF30
     /tmp/ccH7Hwz1.s:4031   .debug_str:00000000000006e4 .LASF32
     /tmp/ccH7Hwz1.s:4003   .debug_str:000000000000061c .LASF33
     /tmp/ccH7Hwz1.s:3909   .debug_str:00000000000002ff .LASF34
     /tmp/ccH7Hwz1.s:4077   .debug_str:000000000000084e .LASF35
     /tmp/ccH7Hwz1.s:3853   .debug_str:00000000000000fc .LASF36
     /tmp/ccH7Hwz1.s:3887   .debug_str:000000000000024b .LASF37
     /tmp/ccH7Hwz1.s:3943   .debug_str:0000000000000437 .LASF38
     /tmp/ccH7Hwz1.s:4073   .debug_str:000000000000083c .LASF39
     /tmp/ccH7Hwz1.s:3965   .debug_str:00000000000004de .LASF40
     /tmp/ccH7Hwz1.s:3931   .debug_str:0000000000000405 .LASF41
     /tmp/ccH7Hwz1.s:4113   .debug_str:0000000000000a62 .LASF42
     /tmp/ccH7Hwz1.s:4017   .debug_str:000000000000068a .LASF43
     /tmp/ccH7Hwz1.s:3893   .debug_str:000000000000027d .LASF44
     /tmp/ccH7Hwz1.s:3975   .debug_str:0000000000000540 .LASF45
     /tmp/ccH7Hwz1.s:3871   .debug_str:0000000000000197 .LASF46
     /tmp/ccH7Hwz1.s:3973   .debug_str:0000000000000537 .LASF47
     /tmp/ccH7Hwz1.s:3905   .debug_str:00000000000002d4 .LASF48
     /tmp/ccH7Hwz1.s:4117   .debug_str:0000000000000a8f .LASF49
     /tmp/ccH7Hwz1.s:4115   .debug_str:0000000000000a7b .LASF50
     /tmp/ccH7Hwz1.s:4105   .debug_str:0000000000000a20 .LASF111
     /tmp/ccH7Hwz1.s:4083   .debug_str:0000000000000927 .LASF113
     /tmp/ccH7Hwz1.s:3997   .debug_str:00000000000005e8 .LASF52
     /tmp/ccH7Hwz1.s:3901   .debug_str:00000000000002b4 .LASF143
     /tmp/ccH7Hwz1.s:4071   .debug_str:0000000000000837 .LASF53
     /tmp/ccH7Hwz1.s:4107   .debug_str:0000000000000a29 .LASF54
     /tmp/ccH7Hwz1.s:4121   .debug_str:0000000000000aa3 .LASF55
     /tmp/ccH7Hwz1.s:3995   .debug_str:00000000000005df .LASF66
     /tmp/ccH7Hwz1.s:3879   .debug_str:00000000000001ee .LASF68
     /tmp/ccH7Hwz1.s:3895   .debug_str:0000000000000297 .LASF56
     /tmp/ccH7Hwz1.s:4043   .debug_str:000000000000073e .LASF57
     /tmp/ccH7Hwz1.s:3989   .debug_str:00000000000005a7 .LASF58
     /tmp/ccH7Hwz1.s:3891   .debug_str:000000000000025e .LASF59
     /tmp/ccH7Hwz1.s:3911   .debug_str:0000000000000315 .LASF102
     /tmp/ccH7Hwz1.s:4033   .debug_str:00000000000006fa .LASF60
     /tmp/ccH7Hwz1.s:4025   .debug_str:00000000000006b6 .LASF61
     /tmp/ccH7Hwz1.s:3857   .debug_str:000000000000011d .LASF62
GAS LISTING /tmp/ccH7Hwz1.s 			page 26


     /tmp/ccH7Hwz1.s:3883   .debug_str:0000000000000215 .LASF63
     /tmp/ccH7Hwz1.s:3855   .debug_str:0000000000000114 .LASF64
     /tmp/ccH7Hwz1.s:3993   .debug_str:00000000000005bf .LASF65
     /tmp/ccH7Hwz1.s:4041   .debug_str:0000000000000733 .LASF144
     /tmp/ccH7Hwz1.s:4109   .debug_str:0000000000000a2e .LASF145
     /tmp/ccH7Hwz1.s:3833   .debug_str:000000000000006c .LASF146
     /tmp/ccH7Hwz1.s:4063   .debug_str:0000000000000806 .LASF67
     /tmp/ccH7Hwz1.s:3963   .debug_str:00000000000004c2 .LASF69
     /tmp/ccH7Hwz1.s:4039   .debug_str:000000000000072e .LASF147
     /tmp/ccH7Hwz1.s:3865   .debug_str:000000000000015d .LASF70
     /tmp/ccH7Hwz1.s:3917   .debug_str:0000000000000338 .LASF71
     /tmp/ccH7Hwz1.s:3851   .debug_str:00000000000000e8 .LASF72
     /tmp/ccH7Hwz1.s:3919   .debug_str:0000000000000360 .LASF73
     /tmp/ccH7Hwz1.s:4009   .debug_str:0000000000000651 .LASF76
     /tmp/ccH7Hwz1.s:3867   .debug_str:0000000000000172 .LASF78
     /tmp/ccH7Hwz1.s:3961   .debug_str:00000000000004b6 .LASF74
     /tmp/ccH7Hwz1.s:3925   .debug_str:00000000000003bf .LASF75
     /tmp/ccH7Hwz1.s:3831   .debug_str:0000000000000062 .LASF77
     /tmp/ccH7Hwz1.s:3945   .debug_str:000000000000044f .LASF79
     /tmp/ccH7Hwz1.s:3933   .debug_str:0000000000000411 .LASF80
     /tmp/ccH7Hwz1.s:4087   .debug_str:000000000000094b .LASF81
     /tmp/ccH7Hwz1.s:3951   .debug_str:000000000000047c .LASF82
     /tmp/ccH7Hwz1.s:3843   .debug_str:00000000000000a4 .LASF83
     /tmp/ccH7Hwz1.s:3889   .debug_str:0000000000000256 .LASF148
     /tmp/ccH7Hwz1.s:3985   .debug_str:0000000000000598 .LASF84
     /tmp/ccH7Hwz1.s:3897   .debug_str:000000000000029c .LASF85
     /tmp/ccH7Hwz1.s:4013   .debug_str:0000000000000667 .LASF86
     /tmp/ccH7Hwz1.s:4035   .debug_str:0000000000000703 .LASF87
     /tmp/ccH7Hwz1.s:3849   .debug_str:00000000000000d4 .LASF88
     /tmp/ccH7Hwz1.s:4097   .debug_str:00000000000009c4 .LASF89
     /tmp/ccH7Hwz1.s:3907   .debug_str:00000000000002e9 .LASF90
     /tmp/ccH7Hwz1.s:3923   .debug_str:000000000000039e .LASF91
     /tmp/ccH7Hwz1.s:3885   .debug_str:0000000000000246 .LASF92
     /tmp/ccH7Hwz1.s:4037   .debug_str:0000000000000722 .LASF93
     /tmp/ccH7Hwz1.s:4103   .debug_str:0000000000000a13 .LASF94
     /tmp/ccH7Hwz1.s:4119   .debug_str:0000000000000a97 .LASF95
     /tmp/ccH7Hwz1.s:3991   .debug_str:00000000000005af .LASF96
     /tmp/ccH7Hwz1.s:3915   .debug_str:000000000000032c .LASF97
     /tmp/ccH7Hwz1.s:4065   .debug_str:0000000000000810 .LASF98
     /tmp/ccH7Hwz1.s:4061   .debug_str:00000000000007f9 .LASF99
     /tmp/ccH7Hwz1.s:4123   .debug_str:0000000000000aa8 .LASF100
     /tmp/ccH7Hwz1.s:3953   .debug_str:0000000000000489 .LASF101
     /tmp/ccH7Hwz1.s:4099   .debug_str:00000000000009e3 .LASF123
     /tmp/ccH7Hwz1.s:3967   .debug_str:00000000000004f8 .LASF103
     /tmp/ccH7Hwz1.s:3937   .debug_str:0000000000000425 .LASF104
     /tmp/ccH7Hwz1.s:3941   .debug_str:0000000000000432 .LASF105
     /tmp/ccH7Hwz1.s:3987   .debug_str:00000000000005a1 .LASF106
     /tmp/ccH7Hwz1.s:3935   .debug_str:000000000000041c .LASF107
     /tmp/ccH7Hwz1.s:3819   .debug_str:0000000000000007 .LASF108
     /tmp/ccH7Hwz1.s:4081   .debug_str:000000000000091d .LASF109
     /tmp/ccH7Hwz1.s:3939   .debug_str:000000000000042a .LASF110
     /tmp/ccH7Hwz1.s:3869   .debug_str:0000000000000189 .LASF112
     /tmp/ccH7Hwz1.s:3927   .debug_str:00000000000003d6 .LASF114
     /tmp/ccH7Hwz1.s:3947   .debug_str:0000000000000464 .LASF115
     /tmp/ccH7Hwz1.s:4101   .debug_str:00000000000009fa .LASF117
     /tmp/ccH7Hwz1.s:3835   .debug_str:0000000000000074 .LASF116
     /tmp/ccH7Hwz1.s:3977   .debug_str:0000000000000547 .LASF118
GAS LISTING /tmp/ccH7Hwz1.s 			page 27


     /tmp/ccH7Hwz1.s:3899   .debug_str:00000000000002af .LASF119
     /tmp/ccH7Hwz1.s:4021   .debug_str:000000000000069d .LASF120
     /tmp/ccH7Hwz1.s:3837   .debug_str:0000000000000083 .LASF121
     /tmp/ccH7Hwz1.s:3971   .debug_str:000000000000052c .LASF122
     /tmp/ccH7Hwz1.s:3821   .debug_str:000000000000000f .LASF149
     /tmp/ccH7Hwz1.s:3859   .debug_str:0000000000000129 .LASF124
     /tmp/ccH7Hwz1.s:4015   .debug_str:000000000000067b .LASF125
     /tmp/ccH7Hwz1.s:4089   .debug_str:0000000000000961 .LASF126
     /tmp/ccH7Hwz1.s:3827   .debug_str:000000000000004d .LASF127
     /tmp/ccH7Hwz1.s:3823   .debug_str:0000000000000023 .LASF128
     /tmp/ccH7Hwz1.s:3817   .debug_str:0000000000000000 .LASF129
     /tmp/ccH7Hwz1.s:3921   .debug_str:0000000000000387 .LASF130
     /tmp/ccH7Hwz1.s:3949   .debug_str:0000000000000472 .LASF131
     /tmp/ccH7Hwz1.s:4057   .debug_str:00000000000007cc .LASF132
     /tmp/ccH7Hwz1.s:3999   .debug_str:00000000000005f8 .LASF133
     /tmp/ccH7Hwz1.s:4055   .debug_str:00000000000007b1 .LASF134
     /tmp/ccH7Hwz1.s:73     .text:000000000000005c .LFB59
     /tmp/ccH7Hwz1.s:172    .text:00000000000000d0 .LFE59
     /tmp/ccH7Hwz1.s:88     .text:0000000000000070 .LBB30
     /tmp/ccH7Hwz1.s:101    .text:0000000000000078 .LBE30
     /tmp/ccH7Hwz1.s:3383   .debug_loc:0000000000000000 .LLST2
     /tmp/ccH7Hwz1.s:103    .text:0000000000000078 .LBB32
     /tmp/ccH7Hwz1.s:115    .text:0000000000000080 .LBE32
     /tmp/ccH7Hwz1.s:3392   .debug_loc:0000000000000026 .LLST3
     /tmp/ccH7Hwz1.s:117    .text:0000000000000080 .LBB34
     /tmp/ccH7Hwz1.s:129    .text:0000000000000088 .LBE34
     /tmp/ccH7Hwz1.s:3401   .debug_loc:000000000000004b .LLST4
     /tmp/ccH7Hwz1.s:147    .text:00000000000000ac .LBB36
     /tmp/ccH7Hwz1.s:155    .text:00000000000000b4 .LBE36
     /tmp/ccH7Hwz1.s:3409   .debug_loc:000000000000006f .LLST5
     /tmp/ccH7Hwz1.s:3417   .debug_loc:0000000000000093 .LLST6
     /tmp/ccH7Hwz1.s:133    .text:0000000000000090 .LVL9
     /tmp/ccH7Hwz1.s:159    .text:00000000000000bc .LVL13
     /tmp/ccH7Hwz1.s:10     .text:0000000000000000 .LFB58
     /tmp/ccH7Hwz1.s:67     .text:000000000000005c .LFE58
     /tmp/ccH7Hwz1.s:41     .text:0000000000000038 .LBB28
     /tmp/ccH7Hwz1.s:50     .text:0000000000000040 .LBE28
     /tmp/ccH7Hwz1.s:3424   .debug_loc:00000000000000b6 .LLST0
     /tmp/ccH7Hwz1.s:3432   .debug_loc:00000000000000da .LLST1
     /tmp/ccH7Hwz1.s:27     .text:000000000000001c .LVL0
     /tmp/ccH7Hwz1.s:54     .text:0000000000000048 .LVL4
     /tmp/ccH7Hwz1.s:639    .text:0000000000000364 .LFB57
     /tmp/ccH7Hwz1.s:714    .text:00000000000003d4 .LFE57
     /tmp/ccH7Hwz1.s:3439   .debug_loc:00000000000000fd .LLST25
     /tmp/ccH7Hwz1.s:657    .text:0000000000000380 .LBB52
     /tmp/ccH7Hwz1.s:664    .text:0000000000000384 .LBE52
     /tmp/ccH7Hwz1.s:3450   .debug_loc:0000000000000133 .LLST26
     /tmp/ccH7Hwz1.s:668    .text:0000000000000388 .LBB54
     /tmp/ccH7Hwz1.s:675    .text:000000000000038c .LBE54
     /tmp/ccH7Hwz1.s:3457   .debug_loc:0000000000000156 .LLST27
     /tmp/ccH7Hwz1.s:682    .text:0000000000000398 .LVL60
     /tmp/ccH7Hwz1.s:690    .text:00000000000003b0 .LVL61
     /tmp/ccH7Hwz1.s:711    .text:00000000000003d0 .LVL64
     /tmp/ccH7Hwz1.s:4111   .debug_str:0000000000000a5d .LASF137
     /tmp/ccH7Hwz1.s:4019   .debug_str:0000000000000697 .LASF135
     /tmp/ccH7Hwz1.s:4011   .debug_str:000000000000065c .LASF136
     /tmp/ccH7Hwz1.s:3983   .debug_str:0000000000000581 .LASF150
GAS LISTING /tmp/ccH7Hwz1.s 			page 28


     /tmp/ccH7Hwz1.s:178    .text:00000000000000d0 .LFB55
     /tmp/ccH7Hwz1.s:297    .text:00000000000001b4 .LFE55
     /tmp/ccH7Hwz1.s:3464   .debug_loc:0000000000000179 .LLST7
     /tmp/ccH7Hwz1.s:3486   .debug_loc:00000000000001d8 .LLST8
     /tmp/ccH7Hwz1.s:3512   .debug_loc:000000000000024a .LLST9
     /tmp/ccH7Hwz1.s:3537   .debug_loc:00000000000002ac .LLST10
     /tmp/ccH7Hwz1.s:3563   .debug_loc:000000000000031e .LLST11
     /tmp/ccH7Hwz1.s:3588   .debug_loc:0000000000000380 .LLST12
     /tmp/ccH7Hwz1.s:215    .text:0000000000000120 .LVL16
     /tmp/ccH7Hwz1.s:292    .text:00000000000001b0 .LVL22
     /tmp/ccH7Hwz1.s:614    .text:0000000000000364 .LFE53
     /tmp/ccH7Hwz1.s:3613   .debug_loc:00000000000003e2 .LLST21
     /tmp/ccH7Hwz1.s:3642   .debug_loc:0000000000000457 .LLST22
     /tmp/ccH7Hwz1.s:552    .text:00000000000002f8 .LBB48
     /tmp/ccH7Hwz1.s:565    .text:0000000000000308 .LBE48
     /tmp/ccH7Hwz1.s:3660   .debug_loc:00000000000004a3 .LLST23
     /tmp/ccH7Hwz1.s:560    .text:0000000000000304 .LVL48
     /tmp/ccH7Hwz1.s:580    .text:000000000000032c .LBB50
     /tmp/ccH7Hwz1.s:594    .text:0000000000000344 .LBE50
     /tmp/ccH7Hwz1.s:3669   .debug_loc:00000000000004c8 .LLST24
     /tmp/ccH7Hwz1.s:586    .text:0000000000000338 .LVL52
     /tmp/ccH7Hwz1.s:574    .text:0000000000000324 .LVL50
     /tmp/ccH7Hwz1.s:590    .text:0000000000000344 .LVL53
     /tmp/ccH7Hwz1.s:503    .text:00000000000002d4 .LFE52
     /tmp/ccH7Hwz1.s:3676   .debug_loc:00000000000004eb .LLST17
     /tmp/ccH7Hwz1.s:3705   .debug_loc:0000000000000560 .LLST18
     /tmp/ccH7Hwz1.s:441    .text:0000000000000268 .LBB44
     /tmp/ccH7Hwz1.s:454    .text:0000000000000278 .LBE44
     /tmp/ccH7Hwz1.s:3723   .debug_loc:00000000000005ac .LLST19
     /tmp/ccH7Hwz1.s:449    .text:0000000000000274 .LVL37
     /tmp/ccH7Hwz1.s:469    .text:000000000000029c .LBB46
     /tmp/ccH7Hwz1.s:483    .text:00000000000002b4 .LBE46
     /tmp/ccH7Hwz1.s:3732   .debug_loc:00000000000005d1 .LLST20
     /tmp/ccH7Hwz1.s:475    .text:00000000000002a8 .LVL41
     /tmp/ccH7Hwz1.s:463    .text:0000000000000294 .LVL39
     /tmp/ccH7Hwz1.s:479    .text:00000000000002b4 .LVL42
     /tmp/ccH7Hwz1.s:391    .text:0000000000000244 .LFE51
     /tmp/ccH7Hwz1.s:3739   .debug_loc:00000000000005f4 .LLST13
     /tmp/ccH7Hwz1.s:3768   .debug_loc:0000000000000669 .LLST14
     /tmp/ccH7Hwz1.s:329    .text:00000000000001d8 .LBB40
     /tmp/ccH7Hwz1.s:342    .text:00000000000001e8 .LBE40
     /tmp/ccH7Hwz1.s:3786   .debug_loc:00000000000006b5 .LLST15
     /tmp/ccH7Hwz1.s:337    .text:00000000000001e4 .LVL26
     /tmp/ccH7Hwz1.s:357    .text:000000000000020c .LBB42
     /tmp/ccH7Hwz1.s:371    .text:0000000000000224 .LBE42
     /tmp/ccH7Hwz1.s:3795   .debug_loc:00000000000006da .LLST16
     /tmp/ccH7Hwz1.s:363    .text:0000000000000218 .LVL30
     /tmp/ccH7Hwz1.s:351    .text:0000000000000204 .LVL28
     /tmp/ccH7Hwz1.s:367    .text:0000000000000224 .LVL31
     /tmp/ccH7Hwz1.s:4075   .debug_str:0000000000000849 .LASF138
     /tmp/ccH7Hwz1.s:3863   .debug_str:000000000000014d .LASF151
     /tmp/ccH7Hwz1.s:4051   .debug_str:0000000000000788 .LASF152
     /tmp/ccH7Hwz1.s:4093   .debug_str:0000000000000991 .LASF153
     /tmp/ccH7Hwz1.s:87     .text:0000000000000070 .LVL5
     /tmp/ccH7Hwz1.s:98     .text:0000000000000078 .LVL6
     /tmp/ccH7Hwz1.s:112    .text:0000000000000080 .LVL7
     /tmp/ccH7Hwz1.s:126    .text:0000000000000088 .LVL8
GAS LISTING /tmp/ccH7Hwz1.s 			page 29


     /tmp/ccH7Hwz1.s:146    .text:00000000000000ac .LVL11
     /tmp/ccH7Hwz1.s:153    .text:00000000000000b4 .LVL12
     /tmp/ccH7Hwz1.s:40     .text:0000000000000038 .LVL2
     /tmp/ccH7Hwz1.s:48     .text:0000000000000040 .LVL3
     /tmp/ccH7Hwz1.s:655    .text:0000000000000380 .LVL56
     /tmp/ccH7Hwz1.s:700    .text:00000000000003bc .LVL62
     /tmp/ccH7Hwz1.s:704    .text:00000000000003c4 .LVL63
     /tmp/ccH7Hwz1.s:662    .text:0000000000000384 .LVL57
     /tmp/ccH7Hwz1.s:667    .text:0000000000000388 .LVL58
     /tmp/ccH7Hwz1.s:673    .text:000000000000038c .LVL59
     /tmp/ccH7Hwz1.s:181    .text:00000000000000d0 .LVL14
     /tmp/ccH7Hwz1.s:213    .text:0000000000000118 .LVL15
     /tmp/ccH7Hwz1.s:254    .text:0000000000000168 .LVL17
     /tmp/ccH7Hwz1.s:268    .text:0000000000000180 .LVL20
     /tmp/ccH7Hwz1.s:257    .text:000000000000016c .LVL18
     /tmp/ccH7Hwz1.s:275    .text:0000000000000188 .LVL21
     /tmp/ccH7Hwz1.s:260    .text:0000000000000170 .LVL19
     /tmp/ccH7Hwz1.s:533    .text:00000000000002d4 .LVL45
     /tmp/ccH7Hwz1.s:557    .text:00000000000002fc .LVL47
     /tmp/ccH7Hwz1.s:579    .text:000000000000032c .LVL51
     /tmp/ccH7Hwz1.s:606    .text:0000000000000358 .LVL54
     /tmp/ccH7Hwz1.s:609    .text:000000000000035c .LVL55
     /tmp/ccH7Hwz1.s:551    .text:00000000000002f8 .LVL46
     /tmp/ccH7Hwz1.s:563    .text:0000000000000308 .LVL49
     /tmp/ccH7Hwz1.s:422    .text:0000000000000244 .LVL34
     /tmp/ccH7Hwz1.s:446    .text:000000000000026c .LVL36
     /tmp/ccH7Hwz1.s:468    .text:000000000000029c .LVL40
     /tmp/ccH7Hwz1.s:495    .text:00000000000002c8 .LVL43
     /tmp/ccH7Hwz1.s:498    .text:00000000000002cc .LVL44
     /tmp/ccH7Hwz1.s:440    .text:0000000000000268 .LVL35
     /tmp/ccH7Hwz1.s:452    .text:0000000000000278 .LVL38
     /tmp/ccH7Hwz1.s:310    .text:00000000000001b4 .LVL23
     /tmp/ccH7Hwz1.s:334    .text:00000000000001dc .LVL25
     /tmp/ccH7Hwz1.s:356    .text:000000000000020c .LVL29
     /tmp/ccH7Hwz1.s:383    .text:0000000000000238 .LVL32
     /tmp/ccH7Hwz1.s:386    .text:000000000000023c .LVL33
     /tmp/ccH7Hwz1.s:328    .text:00000000000001d8 .LVL24
     /tmp/ccH7Hwz1.s:340    .text:00000000000001e8 .LVL27
     /tmp/ccH7Hwz1.s:736    .debug_info:0000000000000000 .Ldebug_info0
     /tmp/ccH7Hwz1.s:394    .gcc_except_table:0000000000000000 .LLSDA51
     /tmp/ccH7Hwz1.s:505    .gcc_except_table:000000000000002b .LLSDA52
     /tmp/ccH7Hwz1.s:616    .gcc_except_table:0000000000000056 .LLSDA53

UNDEFINED SYMBOLS
_ZN5RiscV10popSppSpieEv
thread_dispatch
_ZN15MemoryAllocator8allocateEm
_ZN9Scheduler3putEP3TCB
_ZN15MemoryAllocator4freeEPv
_Unwind_Resume
__gxx_personality_v0
_ZN9Scheduler3getEv
_ZN3TCB13contextSwitchEPNS_7ContextES1_
