GAS LISTING /tmp/ccKktFyE.s 			page 1


   1              		.file	"thread.cpp"
   2              		.option pic
   3              		.option norelax
   4              		.text
   5              	.Ltext0:
   6              		.section	.text._ZN6Thread3runEv,"axG",@progbits,_ZN6Thread3runEv,comdat
   7              		.align	2
   8              		.weak	_ZN6Thread3runEv
  10              	_ZN6Thread3runEv:
  11              	.LFB0:
  12              		.file 1 "src/../h/syscall_cpp.hpp"
   1:src/../h/syscall_cpp.hpp **** //
   2:src/../h/syscall_cpp.hpp **** // Created by os on 8/10/22.
   3:src/../h/syscall_cpp.hpp **** //
   4:src/../h/syscall_cpp.hpp **** 
   5:src/../h/syscall_cpp.hpp **** #ifndef OSMIUM_SYSCALL_CPP_HPP
   6:src/../h/syscall_cpp.hpp **** #define OSMIUM_SYSCALL_CPP_HPP
   7:src/../h/syscall_cpp.hpp **** 
   8:src/../h/syscall_cpp.hpp **** #include "../lib/hw.h"
   9:src/../h/syscall_cpp.hpp **** #include "syscall_c.h"
  10:src/../h/syscall_cpp.hpp **** 
  11:src/../h/syscall_cpp.hpp **** void *operator new(size_t size);
  12:src/../h/syscall_cpp.hpp **** 
  13:src/../h/syscall_cpp.hpp **** void operator delete(void *ptr);
  14:src/../h/syscall_cpp.hpp **** 
  15:src/../h/syscall_cpp.hpp **** 
  16:src/../h/syscall_cpp.hpp **** class Thread {
  17:src/../h/syscall_cpp.hpp **** public:
  18:src/../h/syscall_cpp.hpp ****     Thread(void (*body)(void *), void *arg);
  19:src/../h/syscall_cpp.hpp **** 
  20:src/../h/syscall_cpp.hpp ****     virtual ~Thread();
  21:src/../h/syscall_cpp.hpp **** 
  22:src/../h/syscall_cpp.hpp ****     int start();
  23:src/../h/syscall_cpp.hpp **** 
  24:src/../h/syscall_cpp.hpp ****     static void dispatch();
  25:src/../h/syscall_cpp.hpp **** 
  26:src/../h/syscall_cpp.hpp ****     static int sleep(time_t);
  27:src/../h/syscall_cpp.hpp **** 
  28:src/../h/syscall_cpp.hpp **** protected:
  29:src/../h/syscall_cpp.hpp ****     Thread();
  30:src/../h/syscall_cpp.hpp **** 
  31:src/../h/syscall_cpp.hpp ****     virtual void run() {}
  13              		.loc 1 31 18
  14              		.cfi_startproc
  15              	.LVL0:
  16 0000 130101FF 		addi	sp,sp,-16
  17              		.cfi_def_cfa_offset 16
  18 0004 23348100 		sd	s0,8(sp)
  19              		.cfi_offset 8, -8
  20 0008 13040101 		addi	s0,sp,16
  21              		.cfi_def_cfa 8, 0
  22              		.loc 1 31 25 is_stmt 0
  23 000c 03348100 		ld	s0,8(sp)
  24              		.cfi_restore 8
  25              		.cfi_def_cfa 2, 16
  26 0010 13010101 		addi	sp,sp,16
  27              		.cfi_def_cfa_offset 0
GAS LISTING /tmp/ccKktFyE.s 			page 2


  28 0014 67800000 		jr	ra
  29              		.cfi_endproc
  30              	.LFE0:
  32              		.text
  33              		.align	2
  34              		.globl	_ZN6ThreadD2Ev
  36              	_ZN6ThreadD2Ev:
  37              	.LFB6:
  38              		.file 2 "src/thread.cpp"
   1:src/thread.cpp **** //
   2:src/thread.cpp **** // Created by os on 9/9/22.
   3:src/thread.cpp **** //
   4:src/thread.cpp **** 
   5:src/thread.cpp **** #include "../h/syscall_cpp.hpp"
   6:src/thread.cpp **** 
   7:src/thread.cpp **** Thread::Thread(void (*body)(void *), void *arg) {
   8:src/thread.cpp **** 
   9:src/thread.cpp **** }
  10:src/thread.cpp **** 
  11:src/thread.cpp **** Thread::~Thread() {
  39              		.loc 2 11 1 is_stmt 1
  40              		.cfi_startproc
  41              	.LVL1:
  42 0000 130101FF 		addi	sp,sp,-16
  43              		.cfi_def_cfa_offset 16
  44 0004 23348100 		sd	s0,8(sp)
  45              		.cfi_offset 8, -8
  46 0008 13040101 		addi	s0,sp,16
  47              		.cfi_def_cfa 8, 0
  12:src/thread.cpp **** 
  13:src/thread.cpp **** }
  48              		.loc 2 13 1 is_stmt 0
  49 000c 03348100 		ld	s0,8(sp)
  50              		.cfi_restore 8
  51              		.cfi_def_cfa 2, 16
  52 0010 13010101 		addi	sp,sp,16
  53              		.cfi_def_cfa_offset 0
  54 0014 67800000 		jr	ra
  55              		.cfi_endproc
  56              	.LFE6:
  58              		.globl	_ZN6ThreadD1Ev
  59              		.set	_ZN6ThreadD1Ev,_ZN6ThreadD2Ev
  60              		.align	2
  61              		.globl	_ZN6ThreadD0Ev
  63              	_ZN6ThreadD0Ev:
  64              	.LFB8:
  11:src/thread.cpp **** 
  65              		.loc 2 11 1 is_stmt 1
  66              		.cfi_startproc
  67              	.LVL2:
  68 0018 130101FF 		addi	sp,sp,-16
  69              		.cfi_def_cfa_offset 16
  70 001c 23341100 		sd	ra,8(sp)
  71 0020 23308100 		sd	s0,0(sp)
  72              		.cfi_offset 1, -8
  73              		.cfi_offset 8, -16
  74 0024 13040101 		addi	s0,sp,16
GAS LISTING /tmp/ccKktFyE.s 			page 3


  75              		.cfi_def_cfa 8, 0
  76              		.loc 2 13 1 is_stmt 0
  77 0028 97000000 		call	_ZdlPv@plt
  77      E7800000 
  78              	.LVL3:
  79 0030 83308100 		ld	ra,8(sp)
  80              		.cfi_restore 1
  81 0034 03340100 		ld	s0,0(sp)
  82              		.cfi_restore 8
  83              		.cfi_def_cfa 2, 16
  84 0038 13010101 		addi	sp,sp,16
  85              		.cfi_def_cfa_offset 0
  86 003c 67800000 		jr	ra
  87              		.cfi_endproc
  88              	.LFE8:
  90              		.align	2
  91              		.globl	_ZN6ThreadC2EPFvPvES0_
  93              	_ZN6ThreadC2EPFvPvES0_:
  94              	.LFB3:
   7:src/thread.cpp **** 
  95              		.loc 2 7 1 is_stmt 1
  96              		.cfi_startproc
  97              	.LVL4:
  98 0040 130101FF 		addi	sp,sp,-16
  99              		.cfi_def_cfa_offset 16
 100 0044 23348100 		sd	s0,8(sp)
 101              		.cfi_offset 8, -8
 102 0048 13040101 		addi	s0,sp,16
 103              		.cfi_def_cfa 8, 0
 104              	.LBB2:
   7:src/thread.cpp **** 
 105              		.loc 2 7 47 is_stmt 0
 106 004c 97070000 		lla	a5,_ZTV6Thread+16
 106      93870700 
 107 0054 2330F500 		sd	a5,0(a0)
 108              	.LBE2:
   9:src/thread.cpp **** 
 109              		.loc 2 9 1
 110 0058 03348100 		ld	s0,8(sp)
 111              		.cfi_restore 8
 112              		.cfi_def_cfa 2, 16
 113 005c 13010101 		addi	sp,sp,16
 114              		.cfi_def_cfa_offset 0
 115 0060 67800000 		jr	ra
 116              		.cfi_endproc
 117              	.LFE3:
 119              		.globl	_ZN6ThreadC1EPFvPvES0_
 120              		.set	_ZN6ThreadC1EPFvPvES0_,_ZN6ThreadC2EPFvPvES0_
 121              		.align	2
 122              		.globl	_ZN6Thread5startEv
 124              	_ZN6Thread5startEv:
 125              	.LFB9:
  14:src/thread.cpp **** 
  15:src/thread.cpp **** int Thread::start() {
 126              		.loc 2 15 21 is_stmt 1
 127              		.cfi_startproc
 128              	.LVL5:
GAS LISTING /tmp/ccKktFyE.s 			page 4


 129 0064 130101FF 		addi	sp,sp,-16
 130              		.cfi_def_cfa_offset 16
 131 0068 23348100 		sd	s0,8(sp)
 132              		.cfi_offset 8, -8
 133 006c 13040101 		addi	s0,sp,16
 134              		.cfi_def_cfa 8, 0
  16:src/thread.cpp ****     return 0;
 135              		.loc 2 16 5
  17:src/thread.cpp **** }
 136              		.loc 2 17 1 is_stmt 0
 137 0070 13050000 		li	a0,0
 138              	.LVL6:
 139 0074 03348100 		ld	s0,8(sp)
 140              		.cfi_restore 8
 141              		.cfi_def_cfa 2, 16
 142 0078 13010101 		addi	sp,sp,16
 143              		.cfi_def_cfa_offset 0
 144 007c 67800000 		jr	ra
 145              		.cfi_endproc
 146              	.LFE9:
 148              		.align	2
 149              		.globl	_ZN6Thread8dispatchEv
 151              	_ZN6Thread8dispatchEv:
 152              	.LFB10:
  18:src/thread.cpp **** 
  19:src/thread.cpp **** void Thread::dispatch() {
 153              		.loc 2 19 25 is_stmt 1
 154              		.cfi_startproc
 155 0080 130101FF 		addi	sp,sp,-16
 156              		.cfi_def_cfa_offset 16
 157 0084 23348100 		sd	s0,8(sp)
 158              		.cfi_offset 8, -8
 159 0088 13040101 		addi	s0,sp,16
 160              		.cfi_def_cfa 8, 0
  20:src/thread.cpp **** 
  21:src/thread.cpp **** }
 161              		.loc 2 21 1 is_stmt 0
 162 008c 03348100 		ld	s0,8(sp)
 163              		.cfi_restore 8
 164              		.cfi_def_cfa 2, 16
 165 0090 13010101 		addi	sp,sp,16
 166              		.cfi_def_cfa_offset 0
 167 0094 67800000 		jr	ra
 168              		.cfi_endproc
 169              	.LFE10:
 171              		.align	2
 172              		.globl	_ZN6Thread5sleepEm
 174              	_ZN6Thread5sleepEm:
 175              	.LFB11:
  22:src/thread.cpp **** 
  23:src/thread.cpp **** int Thread::sleep(time_t) {
 176              		.loc 2 23 27 is_stmt 1
 177              		.cfi_startproc
 178 0098 130101FF 		addi	sp,sp,-16
 179              		.cfi_def_cfa_offset 16
 180 009c 23348100 		sd	s0,8(sp)
 181              		.cfi_offset 8, -8
GAS LISTING /tmp/ccKktFyE.s 			page 5


 182 00a0 13040101 		addi	s0,sp,16
 183              		.cfi_def_cfa 8, 0
  24:src/thread.cpp ****     return 0;
 184              		.loc 2 24 5
  25:src/thread.cpp **** }
 185              		.loc 2 25 1 is_stmt 0
 186 00a4 13050000 		li	a0,0
 187 00a8 03348100 		ld	s0,8(sp)
 188              		.cfi_restore 8
 189              		.cfi_def_cfa 2, 16
 190 00ac 13010101 		addi	sp,sp,16
 191              		.cfi_def_cfa_offset 0
 192 00b0 67800000 		jr	ra
 193              		.cfi_endproc
 194              	.LFE11:
 196              		.align	2
 197              		.globl	_ZN6ThreadC2Ev
 199              	_ZN6ThreadC2Ev:
 200              	.LFB13:
  26:src/thread.cpp **** 
  27:src/thread.cpp **** Thread::Thread() {
 201              		.loc 2 27 1 is_stmt 1
 202              		.cfi_startproc
 203              	.LVL7:
 204 00b4 130101FF 		addi	sp,sp,-16
 205              		.cfi_def_cfa_offset 16
 206 00b8 23348100 		sd	s0,8(sp)
 207              		.cfi_offset 8, -8
 208 00bc 13040101 		addi	s0,sp,16
 209              		.cfi_def_cfa 8, 0
 210              	.LBB3:
 211              		.loc 2 27 16 is_stmt 0
 212 00c0 97070000 		lla	a5,_ZTV6Thread+16
 212      93870700 
 213 00c8 2330F500 		sd	a5,0(a0)
 214              	.LBE3:
  28:src/thread.cpp **** 
  29:src/thread.cpp **** }
 215              		.loc 2 29 1
 216 00cc 03348100 		ld	s0,8(sp)
 217              		.cfi_restore 8
 218              		.cfi_def_cfa 2, 16
 219 00d0 13010101 		addi	sp,sp,16
 220              		.cfi_def_cfa_offset 0
 221 00d4 67800000 		jr	ra
 222              		.cfi_endproc
 223              	.LFE13:
 225              		.globl	_ZN6ThreadC1Ev
 226              		.set	_ZN6ThreadC1Ev,_ZN6ThreadC2Ev
 227              		.weak	_ZTV6Thread
 228              		.section	.data.rel.ro.local._ZTV6Thread,"awG",@progbits,_ZTV6Thread,comdat
 229              		.align	3
 232              	_ZTV6Thread:
 233 0000 00000000 		.dword	0
 233      00000000 
 234 0008 00000000 		.dword	0
 234      00000000 
GAS LISTING /tmp/ccKktFyE.s 			page 6


 235 0010 00000000 		.dword	_ZN6ThreadD1Ev
 235      00000000 
 236 0018 00000000 		.dword	_ZN6ThreadD0Ev
 236      00000000 
 237 0020 00000000 		.dword	_ZN6Thread3runEv
 237      00000000 
 238              		.text
 239              	.Letext0:
 240              		.file 3 "src/../h/../lib/hw.h"
 241              		.file 4 "src/../h/syscall_c.h"
GAS LISTING /tmp/ccKktFyE.s 			page 7

