GAS LISTING /tmp/ccKktFyE.s 			page 1


   1              		.file	"thread.cpp"
   2              		.option pic
   3              		.option norelax
   4              		.text
   5              	.Ltext0:
   6              		.section	.text._ZN6Thread3runEv,"axG",@progbits,_ZN6Thread3runEv,comdat
   7              		.align	2
   8              		.weak	_ZN6Thread3runEv
  10              	_ZN6Thread3runEv:
  11              	.LFB0:
  12              		.file 1 "src/../h/syscall_cpp.hpp"
   1:src/../h/syscall_cpp.hpp **** //
   2:src/../h/syscall_cpp.hpp **** // Created by os on 8/10/22.
   3:src/../h/syscall_cpp.hpp **** //
   4:src/../h/syscall_cpp.hpp **** 
   5:src/../h/syscall_cpp.hpp **** #ifndef OSMIUM_SYSCALL_CPP_HPP
   6:src/../h/syscall_cpp.hpp **** #define OSMIUM_SYSCALL_CPP_HPP
   7:src/../h/syscall_cpp.hpp **** 
   8:src/../h/syscall_cpp.hpp **** #include "../lib/hw.h"
   9:src/../h/syscall_cpp.hpp **** #include "syscall_c.h"
  10:src/../h/syscall_cpp.hpp **** 
  11:src/../h/syscall_cpp.hpp **** void *operator new(size_t size);
  12:src/../h/syscall_cpp.hpp **** 
  13:src/../h/syscall_cpp.hpp **** void operator delete(void *ptr);
  14:src/../h/syscall_cpp.hpp **** 
  15:src/../h/syscall_cpp.hpp **** 
  16:src/../h/syscall_cpp.hpp **** class Thread {
  17:src/../h/syscall_cpp.hpp **** public:
  18:src/../h/syscall_cpp.hpp ****     Thread(void (*body)(void *), void *arg);
  19:src/../h/syscall_cpp.hpp **** 
  20:src/../h/syscall_cpp.hpp ****     virtual ~Thread();
  21:src/../h/syscall_cpp.hpp **** 
  22:src/../h/syscall_cpp.hpp ****     int start();
  23:src/../h/syscall_cpp.hpp **** 
  24:src/../h/syscall_cpp.hpp ****     static void dispatch();
  25:src/../h/syscall_cpp.hpp **** 
  26:src/../h/syscall_cpp.hpp ****     static int sleep(time_t);
  27:src/../h/syscall_cpp.hpp **** 
  28:src/../h/syscall_cpp.hpp **** protected:
  29:src/../h/syscall_cpp.hpp ****     Thread();
  30:src/../h/syscall_cpp.hpp **** 
  31:src/../h/syscall_cpp.hpp ****     virtual void run() {}
  13              		.loc 1 31 18
  14              		.cfi_startproc
  15              	.LVL0:
  16 0000 130101FF 		addi	sp,sp,-16
  17              		.cfi_def_cfa_offset 16
  18 0004 23348100 		sd	s0,8(sp)
  19              		.cfi_offset 8, -8
  20 0008 13040101 		addi	s0,sp,16
  21              		.cfi_def_cfa 8, 0
  22              		.loc 1 31 25 is_stmt 0
  23 000c 03348100 		ld	s0,8(sp)
  24              		.cfi_restore 8
  25              		.cfi_def_cfa 2, 16
  26 0010 13010101 		addi	sp,sp,16
  27              		.cfi_def_cfa_offset 0
GAS LISTING /tmp/ccKktFyE.s 			page 2


  28 0014 67800000 		jr	ra
  29              		.cfi_endproc
  30              	.LFE0:
  32              		.text
  33              		.align	2
  34              		.globl	_ZN6ThreadD2Ev
  36              	_ZN6ThreadD2Ev:
  37              	.LFB6:
  38              		.file 2 "src/thread.cpp"
   1:src/thread.cpp **** //
   2:src/thread.cpp **** // Created by os on 9/9/22.
   3:src/thread.cpp **** //
   4:src/thread.cpp **** 
   5:src/thread.cpp **** #include "../h/syscall_cpp.hpp"
   6:src/thread.cpp **** 
   7:src/thread.cpp **** Thread::Thread(void (*body)(void *), void *arg) {
   8:src/thread.cpp **** 
   9:src/thread.cpp **** }
  10:src/thread.cpp **** 
  11:src/thread.cpp **** Thread::~Thread() {
  39              		.loc 2 11 1 is_stmt 1
  40              		.cfi_startproc
  41              	.LVL1:
  42 0000 130101FF 		addi	sp,sp,-16
  43              		.cfi_def_cfa_offset 16
  44 0004 23348100 		sd	s0,8(sp)
  45              		.cfi_offset 8, -8
  46 0008 13040101 		addi	s0,sp,16
  47              		.cfi_def_cfa 8, 0
  12:src/thread.cpp **** 
  13:src/thread.cpp **** }
  48              		.loc 2 13 1 is_stmt 0
  49 000c 03348100 		ld	s0,8(sp)
  50              		.cfi_restore 8
  51              		.cfi_def_cfa 2, 16
  52 0010 13010101 		addi	sp,sp,16
  53              		.cfi_def_cfa_offset 0
  54 0014 67800000 		jr	ra
  55              		.cfi_endproc
  56              	.LFE6:
  58              		.globl	_ZN6ThreadD1Ev
  59              		.set	_ZN6ThreadD1Ev,_ZN6ThreadD2Ev
  60              		.align	2
  61              		.globl	_ZN6ThreadD0Ev
  63              	_ZN6ThreadD0Ev:
  64              	.LFB8:
  11:src/thread.cpp **** 
  65              		.loc 2 11 1 is_stmt 1
  66              		.cfi_startproc
  67              	.LVL2:
  68 0018 130101FF 		addi	sp,sp,-16
  69              		.cfi_def_cfa_offset 16
  70 001c 23341100 		sd	ra,8(sp)
  71 0020 23308100 		sd	s0,0(sp)
  72              		.cfi_offset 1, -8
  73              		.cfi_offset 8, -16
  74 0024 13040101 		addi	s0,sp,16
GAS LISTING /tmp/ccKktFyE.s 			page 3


  75              		.cfi_def_cfa 8, 0
  76              		.loc 2 13 1 is_stmt 0
  77 0028 97000000 		call	_ZdlPv@plt
  77      E7800000 
  78              	.LVL3:
  79 0030 83308100 		ld	ra,8(sp)
  80              		.cfi_restore 1
  81 0034 03340100 		ld	s0,0(sp)
  82              		.cfi_restore 8
  83              		.cfi_def_cfa 2, 16
  84 0038 13010101 		addi	sp,sp,16
  85              		.cfi_def_cfa_offset 0
  86 003c 67800000 		jr	ra
  87              		.cfi_endproc
  88              	.LFE8:
  90              		.align	2
  91              		.globl	_ZN6ThreadC2EPFvPvES0_
  93              	_ZN6ThreadC2EPFvPvES0_:
  94              	.LFB3:
   7:src/thread.cpp **** 
  95              		.loc 2 7 1 is_stmt 1
  96              		.cfi_startproc
  97              	.LVL4:
  98 0040 130101FF 		addi	sp,sp,-16
  99              		.cfi_def_cfa_offset 16
 100 0044 23348100 		sd	s0,8(sp)
 101              		.cfi_offset 8, -8
 102 0048 13040101 		addi	s0,sp,16
 103              		.cfi_def_cfa 8, 0
 104              	.LBB2:
   7:src/thread.cpp **** 
 105              		.loc 2 7 47 is_stmt 0
 106 004c 97070000 		lla	a5,_ZTV6Thread+16
 106      93870700 
 107 0054 2330F500 		sd	a5,0(a0)
 108              	.LBE2:
   9:src/thread.cpp **** 
 109              		.loc 2 9 1
 110 0058 03348100 		ld	s0,8(sp)
 111              		.cfi_restore 8
 112              		.cfi_def_cfa 2, 16
 113 005c 13010101 		addi	sp,sp,16
 114              		.cfi_def_cfa_offset 0
 115 0060 67800000 		jr	ra
 116              		.cfi_endproc
 117              	.LFE3:
 119              		.globl	_ZN6ThreadC1EPFvPvES0_
 120              		.set	_ZN6ThreadC1EPFvPvES0_,_ZN6ThreadC2EPFvPvES0_
 121              		.align	2
 122              		.globl	_ZN6Thread5startEv
 124              	_ZN6Thread5startEv:
 125              	.LFB9:
  14:src/thread.cpp **** 
  15:src/thread.cpp **** int Thread::start() {
 126              		.loc 2 15 21 is_stmt 1
 127              		.cfi_startproc
 128              	.LVL5:
GAS LISTING /tmp/ccKktFyE.s 			page 4


 129 0064 130101FF 		addi	sp,sp,-16
 130              		.cfi_def_cfa_offset 16
 131 0068 23348100 		sd	s0,8(sp)
 132              		.cfi_offset 8, -8
 133 006c 13040101 		addi	s0,sp,16
 134              		.cfi_def_cfa 8, 0
  16:src/thread.cpp ****     return 0;
 135              		.loc 2 16 5
  17:src/thread.cpp **** }
 136              		.loc 2 17 1 is_stmt 0
 137 0070 13050000 		li	a0,0
 138              	.LVL6:
 139 0074 03348100 		ld	s0,8(sp)
 140              		.cfi_restore 8
 141              		.cfi_def_cfa 2, 16
 142 0078 13010101 		addi	sp,sp,16
 143              		.cfi_def_cfa_offset 0
 144 007c 67800000 		jr	ra
 145              		.cfi_endproc
 146              	.LFE9:
 148              		.align	2
 149              		.globl	_ZN6Thread8dispatchEv
 151              	_ZN6Thread8dispatchEv:
 152              	.LFB10:
  18:src/thread.cpp **** 
  19:src/thread.cpp **** void Thread::dispatch() {
 153              		.loc 2 19 25 is_stmt 1
 154              		.cfi_startproc
 155 0080 130101FF 		addi	sp,sp,-16
 156              		.cfi_def_cfa_offset 16
 157 0084 23348100 		sd	s0,8(sp)
 158              		.cfi_offset 8, -8
 159 0088 13040101 		addi	s0,sp,16
 160              		.cfi_def_cfa 8, 0
  20:src/thread.cpp **** 
  21:src/thread.cpp **** }
 161              		.loc 2 21 1 is_stmt 0
 162 008c 03348100 		ld	s0,8(sp)
 163              		.cfi_restore 8
 164              		.cfi_def_cfa 2, 16
 165 0090 13010101 		addi	sp,sp,16
 166              		.cfi_def_cfa_offset 0
 167 0094 67800000 		jr	ra
 168              		.cfi_endproc
 169              	.LFE10:
 171              		.align	2
 172              		.globl	_ZN6Thread5sleepEm
 174              	_ZN6Thread5sleepEm:
 175              	.LFB11:
  22:src/thread.cpp **** 
  23:src/thread.cpp **** int Thread::sleep(time_t) {
 176              		.loc 2 23 27 is_stmt 1
 177              		.cfi_startproc
 178 0098 130101FF 		addi	sp,sp,-16
 179              		.cfi_def_cfa_offset 16
 180 009c 23348100 		sd	s0,8(sp)
 181              		.cfi_offset 8, -8
GAS LISTING /tmp/ccKktFyE.s 			page 5


 182 00a0 13040101 		addi	s0,sp,16
 183              		.cfi_def_cfa 8, 0
  24:src/thread.cpp ****     return 0;
 184              		.loc 2 24 5
  25:src/thread.cpp **** }
 185              		.loc 2 25 1 is_stmt 0
 186 00a4 13050000 		li	a0,0
 187 00a8 03348100 		ld	s0,8(sp)
 188              		.cfi_restore 8
 189              		.cfi_def_cfa 2, 16
 190 00ac 13010101 		addi	sp,sp,16
 191              		.cfi_def_cfa_offset 0
 192 00b0 67800000 		jr	ra
 193              		.cfi_endproc
 194              	.LFE11:
 196              		.align	2
 197              		.globl	_ZN6ThreadC2Ev
 199              	_ZN6ThreadC2Ev:
 200              	.LFB13:
  26:src/thread.cpp **** 
  27:src/thread.cpp **** Thread::Thread() {
 201              		.loc 2 27 1 is_stmt 1
 202              		.cfi_startproc
 203              	.LVL7:
 204 00b4 130101FF 		addi	sp,sp,-16
 205              		.cfi_def_cfa_offset 16
 206 00b8 23348100 		sd	s0,8(sp)
 207              		.cfi_offset 8, -8
 208 00bc 13040101 		addi	s0,sp,16
 209              		.cfi_def_cfa 8, 0
 210              	.LBB3:
 211              		.loc 2 27 16 is_stmt 0
 212 00c0 97070000 		lla	a5,_ZTV6Thread+16
 212      93870700 
 213 00c8 2330F500 		sd	a5,0(a0)
 214              	.LBE3:
  28:src/thread.cpp **** 
  29:src/thread.cpp **** }
 215              		.loc 2 29 1
 216 00cc 03348100 		ld	s0,8(sp)
 217              		.cfi_restore 8
 218              		.cfi_def_cfa 2, 16
 219 00d0 13010101 		addi	sp,sp,16
 220              		.cfi_def_cfa_offset 0
 221 00d4 67800000 		jr	ra
 222              		.cfi_endproc
 223              	.LFE13:
 225              		.globl	_ZN6ThreadC1Ev
 226              		.set	_ZN6ThreadC1Ev,_ZN6ThreadC2Ev
 227              		.weak	_ZTV6Thread
 228              		.section	.data.rel.ro.local._ZTV6Thread,"awG",@progbits,_ZTV6Thread,comdat
 229              		.align	3
 232              	_ZTV6Thread:
 233 0000 00000000 		.dword	0
 233      00000000 
 234 0008 00000000 		.dword	0
 234      00000000 
GAS LISTING /tmp/ccKktFyE.s 			page 6


 235 0010 00000000 		.dword	_ZN6ThreadD1Ev
 235      00000000 
 236 0018 00000000 		.dword	_ZN6ThreadD0Ev
 236      00000000 
 237 0020 00000000 		.dword	_ZN6Thread3runEv
 237      00000000 
 238              		.text
 239              	.Letext0:
 240              		.file 3 "src/../h/../lib/hw.h"
 241              		.file 4 "src/../h/syscall_c.h"
GAS LISTING /tmp/ccKktFyE.s 			page 7


DEFINED SYMBOLS
                            *ABS*:0000000000000000 thread.cpp
     /tmp/ccKktFyE.s:10     .text._ZN6Thread3runEv:0000000000000000 _ZN6Thread3runEv
     /tmp/ccKktFyE.s:14     .text._ZN6Thread3runEv:0000000000000000 .L0 
     /tmp/ccKktFyE.s:16     .text._ZN6Thread3runEv:0000000000000000 .L0 
     /tmp/ccKktFyE.s:17     .text._ZN6Thread3runEv:0000000000000004 .L0 
     /tmp/ccKktFyE.s:19     .text._ZN6Thread3runEv:0000000000000008 .L0 
     /tmp/ccKktFyE.s:21     .text._ZN6Thread3runEv:000000000000000c .L0 
     /tmp/ccKktFyE.s:23     .text._ZN6Thread3runEv:000000000000000c .L0 
     /tmp/ccKktFyE.s:24     .text._ZN6Thread3runEv:0000000000000010 .L0 
     /tmp/ccKktFyE.s:25     .text._ZN6Thread3runEv:0000000000000010 .L0 
     /tmp/ccKktFyE.s:27     .text._ZN6Thread3runEv:0000000000000014 .L0 
     /tmp/ccKktFyE.s:29     .text._ZN6Thread3runEv:0000000000000018 .L0 
     /tmp/ccKktFyE.s:36     .text:0000000000000000 _ZN6ThreadD2Ev
     /tmp/ccKktFyE.s:40     .text:0000000000000000 .L0 
     /tmp/ccKktFyE.s:42     .text:0000000000000000 .L0 
     /tmp/ccKktFyE.s:43     .text:0000000000000004 .L0 
     /tmp/ccKktFyE.s:45     .text:0000000000000008 .L0 
     /tmp/ccKktFyE.s:47     .text:000000000000000c .L0 
     /tmp/ccKktFyE.s:49     .text:000000000000000c .L0 
     /tmp/ccKktFyE.s:50     .text:0000000000000010 .L0 
     /tmp/ccKktFyE.s:51     .text:0000000000000010 .L0 
     /tmp/ccKktFyE.s:53     .text:0000000000000014 .L0 
     /tmp/ccKktFyE.s:55     .text:0000000000000018 .L0 
     /tmp/ccKktFyE.s:36     .text:0000000000000000 _ZN6ThreadD1Ev
     /tmp/ccKktFyE.s:63     .text:0000000000000018 _ZN6ThreadD0Ev
     /tmp/ccKktFyE.s:66     .text:0000000000000018 .L0 
     /tmp/ccKktFyE.s:68     .text:0000000000000018 .L0 
     /tmp/ccKktFyE.s:69     .text:000000000000001c .L0 
     /tmp/ccKktFyE.s:72     .text:0000000000000024 .L0 
     /tmp/ccKktFyE.s:73     .text:0000000000000024 .L0 
     /tmp/ccKktFyE.s:75     .text:0000000000000028 .L0 
     /tmp/ccKktFyE.s:77     .text:0000000000000028 .L0 
     /tmp/ccKktFyE.s:80     .text:0000000000000034 .L0 
     /tmp/ccKktFyE.s:82     .text:0000000000000038 .L0 
     /tmp/ccKktFyE.s:83     .text:0000000000000038 .L0 
     /tmp/ccKktFyE.s:85     .text:000000000000003c .L0 
     /tmp/ccKktFyE.s:87     .text:0000000000000040 .L0 
     /tmp/ccKktFyE.s:93     .text:0000000000000040 _ZN6ThreadC2EPFvPvES0_
     /tmp/ccKktFyE.s:96     .text:0000000000000040 .L0 
     /tmp/ccKktFyE.s:98     .text:0000000000000040 .L0 
     /tmp/ccKktFyE.s:99     .text:0000000000000044 .L0 
     /tmp/ccKktFyE.s:101    .text:0000000000000048 .L0 
     /tmp/ccKktFyE.s:103    .text:000000000000004c .L0 
     /tmp/ccKktFyE.s:232    .data.rel.ro.local._ZTV6Thread:0000000000000000 _ZTV6Thread
     /tmp/ccKktFyE.s:106    .text:000000000000004c .L0 
     /tmp/ccKktFyE.s:110    .text:0000000000000058 .L0 
     /tmp/ccKktFyE.s:111    .text:000000000000005c .L0 
     /tmp/ccKktFyE.s:112    .text:000000000000005c .L0 
     /tmp/ccKktFyE.s:114    .text:0000000000000060 .L0 
     /tmp/ccKktFyE.s:116    .text:0000000000000064 .L0 
     /tmp/ccKktFyE.s:93     .text:0000000000000040 _ZN6ThreadC1EPFvPvES0_
     /tmp/ccKktFyE.s:124    .text:0000000000000064 _ZN6Thread5startEv
     /tmp/ccKktFyE.s:127    .text:0000000000000064 .L0 
     /tmp/ccKktFyE.s:129    .text:0000000000000064 .L0 
     /tmp/ccKktFyE.s:130    .text:0000000000000068 .L0 
     /tmp/ccKktFyE.s:132    .text:000000000000006c .L0 
GAS LISTING /tmp/ccKktFyE.s 			page 8


     /tmp/ccKktFyE.s:134    .text:0000000000000070 .L0 
     /tmp/ccKktFyE.s:136    .text:0000000000000070 .L0 
     /tmp/ccKktFyE.s:137    .text:0000000000000070 .L0 
     /tmp/ccKktFyE.s:140    .text:0000000000000078 .L0 
     /tmp/ccKktFyE.s:141    .text:0000000000000078 .L0 
     /tmp/ccKktFyE.s:143    .text:000000000000007c .L0 
     /tmp/ccKktFyE.s:145    .text:0000000000000080 .L0 
     /tmp/ccKktFyE.s:151    .text:0000000000000080 _ZN6Thread8dispatchEv
     /tmp/ccKktFyE.s:154    .text:0000000000000080 .L0 
     /tmp/ccKktFyE.s:155    .text:0000000000000080 .L0 
     /tmp/ccKktFyE.s:156    .text:0000000000000084 .L0 
     /tmp/ccKktFyE.s:158    .text:0000000000000088 .L0 
     /tmp/ccKktFyE.s:160    .text:000000000000008c .L0 
     /tmp/ccKktFyE.s:162    .text:000000000000008c .L0 
     /tmp/ccKktFyE.s:163    .text:0000000000000090 .L0 
     /tmp/ccKktFyE.s:164    .text:0000000000000090 .L0 
     /tmp/ccKktFyE.s:166    .text:0000000000000094 .L0 
     /tmp/ccKktFyE.s:168    .text:0000000000000098 .L0 
     /tmp/ccKktFyE.s:174    .text:0000000000000098 _ZN6Thread5sleepEm
     /tmp/ccKktFyE.s:177    .text:0000000000000098 .L0 
     /tmp/ccKktFyE.s:178    .text:0000000000000098 .L0 
     /tmp/ccKktFyE.s:179    .text:000000000000009c .L0 
     /tmp/ccKktFyE.s:181    .text:00000000000000a0 .L0 
     /tmp/ccKktFyE.s:183    .text:00000000000000a4 .L0 
     /tmp/ccKktFyE.s:185    .text:00000000000000a4 .L0 
     /tmp/ccKktFyE.s:186    .text:00000000000000a4 .L0 
     /tmp/ccKktFyE.s:188    .text:00000000000000ac .L0 
     /tmp/ccKktFyE.s:189    .text:00000000000000ac .L0 
     /tmp/ccKktFyE.s:191    .text:00000000000000b0 .L0 
     /tmp/ccKktFyE.s:193    .text:00000000000000b4 .L0 
     /tmp/ccKktFyE.s:199    .text:00000000000000b4 _ZN6ThreadC2Ev
     /tmp/ccKktFyE.s:202    .text:00000000000000b4 .L0 
     /tmp/ccKktFyE.s:204    .text:00000000000000b4 .L0 
     /tmp/ccKktFyE.s:205    .text:00000000000000b8 .L0 
     /tmp/ccKktFyE.s:207    .text:00000000000000bc .L0 
     /tmp/ccKktFyE.s:209    .text:00000000000000c0 .L0 
     /tmp/ccKktFyE.s:212    .text:00000000000000c0 .L0 
     /tmp/ccKktFyE.s:216    .text:00000000000000cc .L0 
     /tmp/ccKktFyE.s:217    .text:00000000000000d0 .L0 
     /tmp/ccKktFyE.s:218    .text:00000000000000d0 .L0 
     /tmp/ccKktFyE.s:220    .text:00000000000000d4 .L0 
     /tmp/ccKktFyE.s:222    .text:00000000000000d8 .L0 
     /tmp/ccKktFyE.s:199    .text:00000000000000b4 _ZN6ThreadC1Ev
     /tmp/ccKktFyE.s:32     .text._ZN6Thread3runEv:0000000000000018 .L0 
     /tmp/ccKktFyE.s:242    .text:00000000000000d8 .L0 
     /tmp/ccKktFyE.s:106    .text:000000000000004c .L0 
     /tmp/ccKktFyE.s:212    .text:00000000000000c0 .L0 
     /tmp/ccKktFyE.s:724    .debug_abbrev:0000000000000000 .Ldebug_abbrev0
     /tmp/ccKktFyE.s:1499   .debug_str:000000000000017e .LASF32
     /tmp/ccKktFyE.s:1535   .debug_str:0000000000000319 .LASF33
     /tmp/ccKktFyE.s:1537   .debug_str:0000000000000328 .LASF34
     /tmp/ccKktFyE.s:1437   .debug_ranges:0000000000000000 .Ldebug_ranges0
     /tmp/ccKktFyE.s:1445   .debug_line:0000000000000000 .Ldebug_line0
     /tmp/ccKktFyE.s:1503   .debug_str:0000000000000251 .LASF0
     /tmp/ccKktFyE.s:1489   .debug_str:000000000000013f .LASF1
     /tmp/ccKktFyE.s:1481   .debug_str:00000000000000fa .LASF2
     /tmp/ccKktFyE.s:1459   .debug_str:0000000000000055 .LASF4
GAS LISTING /tmp/ccKktFyE.s 			page 9


     /tmp/ccKktFyE.s:1487   .debug_str:000000000000012d .LASF3
     /tmp/ccKktFyE.s:1453   .debug_str:0000000000000029 .LASF5
     /tmp/ccKktFyE.s:1513   .debug_str:0000000000000288 .LASF6
     /tmp/ccKktFyE.s:1451   .debug_str:0000000000000016 .LASF7
     /tmp/ccKktFyE.s:1475   .debug_str:00000000000000d1 .LASF8
     /tmp/ccKktFyE.s:1515   .debug_str:000000000000028f .LASF9
     /tmp/ccKktFyE.s:1457   .debug_str:0000000000000047 .LASF10
     /tmp/ccKktFyE.s:1541   .debug_str:0000000000000351 .LASF11
     /tmp/ccKktFyE.s:1477   .debug_str:00000000000000e4 .LASF12
     /tmp/ccKktFyE.s:1533   .debug_str:0000000000000309 .LASF13
     /tmp/ccKktFyE.s:1521   .debug_str:00000000000002be .LASF14
     /tmp/ccKktFyE.s:1491   .debug_str:0000000000000152 .LASF15
     /tmp/ccKktFyE.s:1469   .debug_str:0000000000000093 .LASF16
     /tmp/ccKktFyE.s:1517   .debug_str:000000000000029f .LASF17
     /tmp/ccKktFyE.s:1519   .debug_str:00000000000002b5 .LASF18
     /tmp/ccKktFyE.s:1511   .debug_str:0000000000000283 .LASF19
     /tmp/ccKktFyE.s:1479   .debug_str:00000000000000f3 .LASF20
     /tmp/ccKktFyE.s:1531   .debug_str:00000000000002f7 .LASF35
     /tmp/ccKktFyE.s:1447   .debug_str:0000000000000000 .LASF36
     /tmp/ccKktFyE.s:1471   .debug_str:00000000000000a9 .LASF22
     /tmp/ccKktFyE.s:1493   .debug_str:000000000000015e .LASF37
     /tmp/ccKktFyE.s:1501   .debug_str:0000000000000242 .LASF38
     /tmp/ccKktFyE.s:1505   .debug_str:000000000000025e .LASF39
     /tmp/ccKktFyE.s:1465   .debug_str:0000000000000071 .LASF40
     /tmp/ccKktFyE.s:1449   .debug_str:000000000000000d .LASF41
     /tmp/ccKktFyE.s:1483   .debug_str:0000000000000108 .LASF42
     /tmp/ccKktFyE.s:1539   .debug_str:000000000000034b .LASF21
     /tmp/ccKktFyE.s:1497   .debug_str:000000000000016b .LASF23
     /tmp/ccKktFyE.s:1485   .debug_str:000000000000011e .LASF24
     /tmp/ccKktFyE.s:1473   .debug_str:00000000000000c0 .LASF43
     /tmp/ccKktFyE.s:1523   .debug_str:00000000000002ce .LASF44
     /tmp/ccKktFyE.s:1463   .debug_str:0000000000000061 .LASF45
     /tmp/ccKktFyE.s:1461   .debug_str:000000000000005c .LASF25
     /tmp/ccKktFyE.s:1507   .debug_str:0000000000000264 .LASF27
     /tmp/ccKktFyE.s:200    .text:00000000000000b4 .LFB13
     /tmp/ccKktFyE.s:223    .text:00000000000000d8 .LFE13
     /tmp/ccKktFyE.s:175    .text:0000000000000098 .LFB11
     /tmp/ccKktFyE.s:194    .text:00000000000000b4 .LFE11
     /tmp/ccKktFyE.s:152    .text:0000000000000080 .LFB10
     /tmp/ccKktFyE.s:169    .text:0000000000000098 .LFE10
     /tmp/ccKktFyE.s:125    .text:0000000000000064 .LFB9
     /tmp/ccKktFyE.s:146    .text:0000000000000080 .LFE9
     /tmp/ccKktFyE.s:1394   .debug_loc:0000000000000000 .LLST1
     /tmp/ccKktFyE.s:1525   .debug_str:00000000000002d7 .LASF26
     /tmp/ccKktFyE.s:1467   .debug_str:0000000000000084 .LASF28
     /tmp/ccKktFyE.s:64     .text:0000000000000018 .LFB8
     /tmp/ccKktFyE.s:88     .text:0000000000000040 .LFE8
     /tmp/ccKktFyE.s:1408   .debug_loc:0000000000000039 .LLST0
     /tmp/ccKktFyE.s:78     .text:0000000000000030 .LVL3
     /tmp/ccKktFyE.s:1529   .debug_str:00000000000002e8 .LASF29
     /tmp/ccKktFyE.s:37     .text:0000000000000000 .LFB6
     /tmp/ccKktFyE.s:56     .text:0000000000000018 .LFE6
     /tmp/ccKktFyE.s:1495   .debug_str:0000000000000166 .LASF30
     /tmp/ccKktFyE.s:1455   .debug_str:0000000000000030 .LASF31
     /tmp/ccKktFyE.s:94     .text:0000000000000040 .LFB3
     /tmp/ccKktFyE.s:117    .text:0000000000000064 .LFE3
     /tmp/ccKktFyE.s:11     .text._ZN6Thread3runEv:0000000000000000 .LFB0
GAS LISTING /tmp/ccKktFyE.s 			page 10


     /tmp/ccKktFyE.s:30     .text._ZN6Thread3runEv:0000000000000018 .LFE0
     /tmp/ccKktFyE.s:1527   .debug_str:00000000000002e1 .LASF46
     /tmp/ccKktFyE.s:1509   .debug_str:0000000000000273 .LASF47
     /tmp/ccKktFyE.s:128    .text:0000000000000064 .LVL5
     /tmp/ccKktFyE.s:138    .text:0000000000000074 .LVL6
     /tmp/ccKktFyE.s:67     .text:0000000000000018 .LVL2
     /tmp/ccKktFyE.s:243    .debug_info:0000000000000000 .Ldebug_info0
     /tmp/ccKktFyE.s:5      .text:0000000000000000 .Ltext0
     /tmp/ccKktFyE.s:239    .text:00000000000000d8 .Letext0

UNDEFINED SYMBOLS
_ZdlPv
