GAS LISTING /tmp/ccPxKdZe.s 			page 1


   1              		.file	"uart_consumer.cpp"
   2              		.option pic
   3              		.option norelax
   4              		.text
   5              	.Ltext0:
   6              		.align	2
   7              		.globl	_Z13uart_consumerv
   9              	_Z13uart_consumerv:
  10              	.LFB73:
  11              		.file 1 "src/uart_consumer.cpp"
   1:src/uart_consumer.cpp **** //
   2:src/uart_consumer.cpp **** // Created by os on 2/13/23.
   3:src/uart_consumer.cpp **** //
   4:src/uart_consumer.cpp **** 
   5:src/uart_consumer.cpp **** #include "../h/uart_consumer.hpp"
   6:src/uart_consumer.cpp **** #include "../h/uart.hpp"
   7:src/uart_consumer.cpp **** #include "../h/kernel.hpp"
   8:src/uart_consumer.cpp **** //#include "../h/tcb.hpp"
   9:src/uart_consumer.cpp **** 
  10:src/uart_consumer.cpp **** void uart_consumer() {
  12              		.loc 1 10 22
  13              		.cfi_startproc
  14 0000 130101FF 		addi	sp,sp,-16
  15              		.cfi_def_cfa_offset 16
  16 0004 23341100 		sd	ra,8(sp)
  17 0008 23308100 		sd	s0,0(sp)
  18              		.cfi_offset 1, -8
  19              		.cfi_offset 8, -16
  20 000c 13040101 		addi	s0,sp,16
  21              		.cfi_def_cfa 8, 0
  22              	.L3:
  11:src/uart_consumer.cpp ****     while(!Kernel::isFinished()) {
  23              		.loc 1 11 5
  24              		.loc 1 11 11
  25              		.loc 1 11 30 is_stmt 0
  26 0010 97000000 		call	_ZN6Kernel10isFinishedEv@plt
  26      E7800000 
  27              	.LVL0:
  28              		.loc 1 11 11
  29 0018 63160502 		bnez	a0,.L1
  30              	.L5:
  31              	.LBB2:
  12:src/uart_consumer.cpp ****         while (Uart::getStatus() & Uart::TX) {
  32              		.loc 1 12 9 is_stmt 1
  33              		.loc 1 12 42
  34              		.loc 1 12 31 is_stmt 0
  35 001c 97000000 		call	_ZN4Uart9getStatusEv@plt
  35      E7800000 
  36              	.LVL1:
  37              		.loc 1 12 42
  38 0024 13750502 		andi	a0,a0,32
  39 0028 E30405FE 		beqz	a0,.L3
  40              	.LBB3:
  13:src/uart_consumer.cpp ****             //__print_string("h");
  14:src/uart_consumer.cpp ****             char c = Uart::txGet();
  41              		.loc 1 14 13 is_stmt 1
  42              		.loc 1 14 33 is_stmt 0
GAS LISTING /tmp/ccPxKdZe.s 			page 2


  43 002c 97000000 		call	_ZN4Uart5txGetEv@plt
  43      E7800000 
  44              	.LVL2:
  15:src/uart_consumer.cpp ****             if (c == 0) break;
  45              		.loc 1 15 13 is_stmt 1
  46 0034 E30E05FC 		beqz	a0,.L3
  16:src/uart_consumer.cpp **** 
  17:src/uart_consumer.cpp ****             Uart::txSend(c);
  47              		.loc 1 17 13
  48              		.loc 1 17 25 is_stmt 0
  49 0038 97000000 		call	_ZN4Uart6txSendEc@plt
  49      E7800000 
  50              	.LVL3:
  51              	.LBE3:
  12:src/uart_consumer.cpp ****             //__print_string("h");
  52              		.loc 1 12 9
  53 0040 6FF0DFFD 		j	.L5
  54              	.L1:
  55              	.LBE2:
  18:src/uart_consumer.cpp ****             //TCB::dispatch();
  19:src/uart_consumer.cpp ****         }
  20:src/uart_consumer.cpp ****     }
  21:src/uart_consumer.cpp **** }
  56              		.loc 1 21 1
  57 0044 83308100 		ld	ra,8(sp)
  58              		.cfi_restore 1
  59 0048 03340100 		ld	s0,0(sp)
  60              		.cfi_restore 8
  61              		.cfi_def_cfa 2, 16
  62 004c 13010101 		addi	sp,sp,16
  63              		.cfi_def_cfa_offset 0
  64 0050 67800000 		jr	ra
  65              		.cfi_endproc
  66              	.LFE73:
  68              	.Letext0:
  69              		.file 2 "src/../h/../lib/hw.h"
  70              		.file 3 "src/../h/tcb.hpp"
  71              		.file 4 "src/../h/sem.hpp"
  72              		.file 5 "src/../h/list.hpp"
  73              		.file 6 "src/../h/uart.hpp"
  74              		.file 7 "src/../h/kernel.hpp"
  75              		.file 8 "src/../h/syscall_c.h"
GAS LISTING /tmp/ccPxKdZe.s 			page 3

