GAS LISTING /tmp/cckheMQD.s 			page 1


   1              		.file	"uart.cpp"
   2              		.option pic
   3              		.option norelax
   4              		.text
   5              	.Ltext0:
   6              		.align	2
   8              	_Z41__static_initialization_and_destruction_0ii:
   9              	.LFB88:
  10              		.file 1 "src/uart.cpp"
   1:src/uart.cpp  **** //
   2:src/uart.cpp  **** // Created by os on 9/12/22.
   3:src/uart.cpp  **** //
   4:src/uart.cpp  **** 
   5:src/uart.cpp  **** #include "../h/uart.hpp"
   6:src/uart.cpp  **** #include "../h/kernel.hpp"
   7:src/uart.cpp  **** 
   8:src/uart.cpp  **** char Uart::rx_buffer[Uart::BUFFER_SIZE] = {0};
   9:src/uart.cpp  **** char Uart::tx_buffer[Uart::BUFFER_SIZE] = {0};
  10:src/uart.cpp  **** 
  11:src/uart.cpp  **** Sem* Uart::tx_not_empty = nullptr;   // blocks the user thread until chars arrive in the input buff
  12:src/uart.cpp  **** Sem* Uart::tx_not_full = nullptr;
  13:src/uart.cpp  **** // Sem* input_not_full;
  14:src/uart.cpp  **** Sem* Uart::rx_not_empty = nullptr;  // blocks the system thread until chars arrive in the output bu
  15:src/uart.cpp  **** Sem* Uart::rx_not_full = nullptr;
  16:src/uart.cpp  **** //Sem* output_not_full;
  17:src/uart.cpp  **** Sem* Uart::tx_request = nullptr;
  18:src/uart.cpp  **** Sem* Uart::rx_request = nullptr;
  19:src/uart.cpp  **** 
  20:src/uart.cpp  **** volatile char* Uart::STATUS = (char*) CONSOLE_STATUS;
  21:src/uart.cpp  **** volatile char* Uart::RX_DATA = (char*) CONSOLE_RX_DATA;
  22:src/uart.cpp  **** volatile char* Uart::TX_DATA = (char*) CONSOLE_TX_DATA;
  23:src/uart.cpp  **** 
  24:src/uart.cpp  **** /* output buffer */
  25:src/uart.cpp  **** int Uart::txFront  = 0;
  26:src/uart.cpp  **** int Uart::txRear = 0;
  27:src/uart.cpp  **** volatile int Uart::txSize = 0;
  28:src/uart.cpp  **** 
  29:src/uart.cpp  **** /* input buffer */
  30:src/uart.cpp  **** int Uart::rxFront = 0;
  31:src/uart.cpp  **** int Uart::rxRear  = 0;
  32:src/uart.cpp  **** int Uart::rxSize  = 0;
  33:src/uart.cpp  **** 
  34:src/uart.cpp  **** void Uart::initUart() {
  35:src/uart.cpp  ****     rx_not_empty = Sem::createSem(0);
  36:src/uart.cpp  ****     rx_not_full = Sem::createSem(BUFFER_SIZE);
  37:src/uart.cpp  ****     rx_request = Sem::createSem(0);
  38:src/uart.cpp  **** 
  39:src/uart.cpp  ****     tx_not_empty = Sem::createSem(0);
  40:src/uart.cpp  ****     tx_not_full = Sem::createSem(BUFFER_SIZE);
  41:src/uart.cpp  ****     tx_request = Sem::createSem(0);
  42:src/uart.cpp  **** }
  43:src/uart.cpp  **** 
  44:src/uart.cpp  **** 
  45:src/uart.cpp  **** uint8 Uart::getStatus() {
  46:src/uart.cpp  ****     uint8 ret = *((uint8*) CONSOLE_STATUS);
  47:src/uart.cpp  ****     return ret;
  48:src/uart.cpp  **** }
GAS LISTING /tmp/cckheMQD.s 			page 2


  49:src/uart.cpp  **** 
  50:src/uart.cpp  **** /* remove and return a char from the input (rx) buffer
  51:src/uart.cpp  ****  * blocks if the buffer is empty
  52:src/uart.cpp  ****  */
  53:src/uart.cpp  **** char Uart::rxGet() {
  54:src/uart.cpp  ****     char c;
  55:src/uart.cpp  ****     rx_not_empty->semWait();
  56:src/uart.cpp  ****     c = rx_buffer[rxFront];
  57:src/uart.cpp  ****     rxFront = (rxFront + 1) & (BUFFER_SIZE - 1);
  58:src/uart.cpp  ****     rxSize--;
  59:src/uart.cpp  ****     //rx_not_full->semSignal();
  60:src/uart.cpp  ****     return c;
  61:src/uart.cpp  **** }
  62:src/uart.cpp  **** 
  63:src/uart.cpp  **** void Uart::rxPut(char c) {
  64:src/uart.cpp  ****     //char c = *RX_DATA;
  65:src/uart.cpp  ****     rx_not_full->semWait(); // wait producer
  66:src/uart.cpp  ****     rx_buffer[txRear] = c;
  67:src/uart.cpp  ****     rxRear = (rxRear + 1) & (BUFFER_SIZE - 1);
  68:src/uart.cpp  ****     rxSize++;
  69:src/uart.cpp  ****     rx_not_empty->semSignal(); // signal consumer
  70:src/uart.cpp  **** }
  71:src/uart.cpp  **** 
  72:src/uart.cpp  **** /* receive a char from the UART controler
  73:src/uart.cpp  ****  * place it in the input (rx) buffer
  74:src/uart.cpp  ****  * returns 0 if succesful; -1 if the buffer is full
  75:src/uart.cpp  ****  */
  76:src/uart.cpp  **** char Uart::rxReceive() {
  77:src/uart.cpp  ****     //return *RX_DATA;
  78:src/uart.cpp  ****     if (rxSize >= BUFFER_SIZE) return -1;
  79:src/uart.cpp  ****     char c = *(char*) CONSOLE_RX_DATA;
  80:src/uart.cpp  ****     rx_buffer[rxRear] = c;
  81:src/uart.cpp  ****     rxRear = (rxRear + 1) & (BUFFER_SIZE - 1);
  82:src/uart.cpp  ****     rxSize++;
  83:src/uart.cpp  ****     rx_not_empty->semSignal();
  84:src/uart.cpp  ****     //__print_string("rx\n");
  85:src/uart.cpp  ****     return 0;
  86:src/uart.cpp  **** }
  87:src/uart.cpp  **** 
  88:src/uart.cpp  **** /* remove and return a char from the output (tx) buffer
  89:src/uart.cpp  ****  * blocks if the buffer is empty
  90:src/uart.cpp  ****  */
  91:src/uart.cpp  **** char Uart::txGet() {
  92:src/uart.cpp  ****     char c;
  93:src/uart.cpp  ****     //tx_not_empty->semWait(); // wait consumer
  94:src/uart.cpp  ****     while(txSize == 0) {
  95:src/uart.cpp  ****         if (Kernel::isFinished()) return 0;
  96:src/uart.cpp  ****         thread_dispatch();
  97:src/uart.cpp  ****     }
  98:src/uart.cpp  ****     c = tx_buffer[txFront];
  99:src/uart.cpp  ****     txFront = (txFront + 1) & (BUFFER_SIZE - 1);
 100:src/uart.cpp  ****     txSize--;
 101:src/uart.cpp  ****     tx_not_full->semSignal(); // signal producer
 102:src/uart.cpp  ****     return c;
 103:src/uart.cpp  **** }
 104:src/uart.cpp  **** 
 105:src/uart.cpp  **** /* put a char in the output (tx) buffer
GAS LISTING /tmp/cckheMQD.s 			page 3


 106:src/uart.cpp  ****  * blocks if the buffer is full
 107:src/uart.cpp  ****  */
 108:src/uart.cpp  **** void Uart::txPut(char c) {
 109:src/uart.cpp  ****     //char c = *RX_DATA;
 110:src/uart.cpp  ****     tx_not_full->semWait(); // wait producer
 111:src/uart.cpp  ****     tx_buffer[txRear] = c;
 112:src/uart.cpp  ****     txRear = (txRear + 1) & (BUFFER_SIZE - 1);
 113:src/uart.cpp  ****     txSize++;
 114:src/uart.cpp  ****     tx_not_empty->semSignal(); // signal consumer
 115:src/uart.cpp  **** }
 116:src/uart.cpp  **** 
 117:src/uart.cpp  **** /* wrapper function to put a char in the TX_DATA register
 118:src/uart.cpp  ****  */
 119:src/uart.cpp  **** void Uart::txSend(char c) {
 120:src/uart.cpp  ****     *(char*)CONSOLE_TX_DATA = c;
 121:src/uart.cpp  **** }
 122:src/uart.cpp  **** 
 123:src/uart.cpp  **** void Uart::txWait() {
 124:src/uart.cpp  ****     tx_request->semWait();
 125:src/uart.cpp  **** }
 126:src/uart.cpp  **** 
 127:src/uart.cpp  **** void Uart::txSignal() {
 128:src/uart.cpp  ****     tx_request->semSignal();
 129:src/uart.cpp  **** }
 130:src/uart.cpp  **** 
 131:src/uart.cpp  **** void Uart::rxWait() {
 132:src/uart.cpp  ****     rx_request->semWait();
 133:src/uart.cpp  **** }
 134:src/uart.cpp  **** 
 135:src/uart.cpp  **** void Uart::rxSignal() {
 136:src/uart.cpp  ****     rx_request->semSignal();
 137:src/uart.cpp  **** }
  11              		.loc 1 137 1
  12              		.cfi_startproc
  13              	.LVL0:
  14 0000 130101FF 		addi	sp,sp,-16
  15              		.cfi_def_cfa_offset 16
  16 0004 23348100 		sd	s0,8(sp)
  17              		.cfi_offset 8, -8
  18 0008 13040101 		addi	s0,sp,16
  19              		.cfi_def_cfa 8, 0
  20              		.loc 1 137 1 is_stmt 0
  21 000c 93071000 		li	a5,1
  22 0010 6308F500 		beq	a0,a5,.L4
  23              	.L1:
  24 0014 03348100 		ld	s0,8(sp)
  25              		.cfi_remember_state
  26              		.cfi_restore 8
  27              		.cfi_def_cfa 2, 16
  28 0018 13010101 		addi	sp,sp,16
  29              		.cfi_def_cfa_offset 0
  30 001c 67800000 		jr	ra
  31              	.L4:
  32              		.cfi_restore_state
  33              		.loc 1 137 1 discriminator 1
  34 0020 B7070100 		li	a5,65536
  35 0024 9387F7FF 		addi	a5,a5,-1
GAS LISTING /tmp/cckheMQD.s 			page 4


  36 0028 E396F5FE 		bne	a1,a5,.L1
  20:src/uart.cpp  **** volatile char* Uart::RX_DATA = (char*) CONSOLE_RX_DATA;
  37              		.loc 1 20 31
  38 002c 97070000 		la	a5,CONSOLE_STATUS
  38      83B70700 
  39 0034 03B70700 		ld	a4,0(a5)
  20:src/uart.cpp  **** volatile char* Uart::RX_DATA = (char*) CONSOLE_RX_DATA;
  40              		.loc 1 20 16
  41 0038 97070000 		lla	a5,.LANCHOR0
  41      93870700 
  42 0040 23B0E700 		sd	a4,0(a5)
  21:src/uart.cpp  **** volatile char* Uart::TX_DATA = (char*) CONSOLE_TX_DATA;
  43              		.loc 1 21 32
  44 0044 17070000 		la	a4,CONSOLE_RX_DATA
  44      03370700 
  45 004c 03370700 		ld	a4,0(a4)
  21:src/uart.cpp  **** volatile char* Uart::TX_DATA = (char*) CONSOLE_TX_DATA;
  46              		.loc 1 21 16
  47 0050 23B4E700 		sd	a4,8(a5)
  22:src/uart.cpp  **** 
  48              		.loc 1 22 32
  49 0054 17070000 		la	a4,CONSOLE_TX_DATA
  49      03370700 
  50 005c 03370700 		ld	a4,0(a4)
  22:src/uart.cpp  **** 
  51              		.loc 1 22 16
  52 0060 23B8E700 		sd	a4,16(a5)
  53              		.loc 1 137 1
  54 0064 6FF01FFB 		j	.L1
  55              		.cfi_endproc
  56              	.LFE88:
  58              		.align	2
  59              		.globl	_ZN4Uart8initUartEv
  61              	_ZN4Uart8initUartEv:
  62              	.LFB73:
  34:src/uart.cpp  ****     rx_not_empty = Sem::createSem(0);
  63              		.loc 1 34 23 is_stmt 1
  64              		.cfi_startproc
  65 0068 130101FE 		addi	sp,sp,-32
  66              		.cfi_def_cfa_offset 32
  67 006c 233C1100 		sd	ra,24(sp)
  68 0070 23388100 		sd	s0,16(sp)
  69 0074 23349100 		sd	s1,8(sp)
  70              		.cfi_offset 1, -8
  71              		.cfi_offset 8, -16
  72              		.cfi_offset 9, -24
  73 0078 13040102 		addi	s0,sp,32
  74              		.cfi_def_cfa 8, 0
  35:src/uart.cpp  ****     rx_not_full = Sem::createSem(BUFFER_SIZE);
  75              		.loc 1 35 5
  35:src/uart.cpp  ****     rx_not_full = Sem::createSem(BUFFER_SIZE);
  76              		.loc 1 35 34 is_stmt 0
  77 007c 13050000 		li	a0,0
  78 0080 97000000 		call	_ZN3Sem9createSemEj@plt
  78      E7800000 
  79              	.LVL1:
  35:src/uart.cpp  ****     rx_not_full = Sem::createSem(BUFFER_SIZE);
GAS LISTING /tmp/cckheMQD.s 			page 5


  80              		.loc 1 35 18
  81 0088 97040000 		lla	s1,.LANCHOR0
  81      93840400 
  82 0090 23BCA400 		sd	a0,24(s1)
  36:src/uart.cpp  ****     rx_request = Sem::createSem(0);
  83              		.loc 1 36 5 is_stmt 1
  36:src/uart.cpp  ****     rx_request = Sem::createSem(0);
  84              		.loc 1 36 33 is_stmt 0
  85 0094 13050040 		li	a0,1024
  86 0098 97000000 		call	_ZN3Sem9createSemEj@plt
  86      E7800000 
  87              	.LVL2:
  36:src/uart.cpp  ****     rx_request = Sem::createSem(0);
  88              		.loc 1 36 17
  89 00a0 23B0A402 		sd	a0,32(s1)
  37:src/uart.cpp  **** 
  90              		.loc 1 37 5 is_stmt 1
  37:src/uart.cpp  **** 
  91              		.loc 1 37 32 is_stmt 0
  92 00a4 13050000 		li	a0,0
  93 00a8 97000000 		call	_ZN3Sem9createSemEj@plt
  93      E7800000 
  94              	.LVL3:
  37:src/uart.cpp  **** 
  95              		.loc 1 37 16
  96 00b0 23B4A402 		sd	a0,40(s1)
  39:src/uart.cpp  ****     tx_not_full = Sem::createSem(BUFFER_SIZE);
  97              		.loc 1 39 5 is_stmt 1
  39:src/uart.cpp  ****     tx_not_full = Sem::createSem(BUFFER_SIZE);
  98              		.loc 1 39 34 is_stmt 0
  99 00b4 13050000 		li	a0,0
 100 00b8 97000000 		call	_ZN3Sem9createSemEj@plt
 100      E7800000 
 101              	.LVL4:
  39:src/uart.cpp  ****     tx_not_full = Sem::createSem(BUFFER_SIZE);
 102              		.loc 1 39 18
 103 00c0 23B8A402 		sd	a0,48(s1)
  40:src/uart.cpp  ****     tx_request = Sem::createSem(0);
 104              		.loc 1 40 5 is_stmt 1
  40:src/uart.cpp  ****     tx_request = Sem::createSem(0);
 105              		.loc 1 40 33 is_stmt 0
 106 00c4 13050040 		li	a0,1024
 107 00c8 97000000 		call	_ZN3Sem9createSemEj@plt
 107      E7800000 
 108              	.LVL5:
  40:src/uart.cpp  ****     tx_request = Sem::createSem(0);
 109              		.loc 1 40 17
 110 00d0 23BCA402 		sd	a0,56(s1)
  41:src/uart.cpp  **** }
 111              		.loc 1 41 5 is_stmt 1
  41:src/uart.cpp  **** }
 112              		.loc 1 41 32 is_stmt 0
 113 00d4 13050000 		li	a0,0
 114 00d8 97000000 		call	_ZN3Sem9createSemEj@plt
 114      E7800000 
 115              	.LVL6:
  41:src/uart.cpp  **** }
GAS LISTING /tmp/cckheMQD.s 			page 6


 116              		.loc 1 41 16
 117 00e0 23B0A404 		sd	a0,64(s1)
  42:src/uart.cpp  **** 
 118              		.loc 1 42 1
 119 00e4 83308101 		ld	ra,24(sp)
 120              		.cfi_restore 1
 121 00e8 03340101 		ld	s0,16(sp)
 122              		.cfi_restore 8
 123              		.cfi_def_cfa 2, 32
 124 00ec 83348100 		ld	s1,8(sp)
 125              		.cfi_restore 9
 126 00f0 13010102 		addi	sp,sp,32
 127              		.cfi_def_cfa_offset 0
 128 00f4 67800000 		jr	ra
 129              		.cfi_endproc
 130              	.LFE73:
 132              		.align	2
 133              		.globl	_ZN4Uart9getStatusEv
 135              	_ZN4Uart9getStatusEv:
 136              	.LFB74:
  45:src/uart.cpp  ****     uint8 ret = *((uint8*) CONSOLE_STATUS);
 137              		.loc 1 45 25 is_stmt 1
 138              		.cfi_startproc
 139 00f8 130101FF 		addi	sp,sp,-16
 140              		.cfi_def_cfa_offset 16
 141 00fc 23348100 		sd	s0,8(sp)
 142              		.cfi_offset 8, -8
 143 0100 13040101 		addi	s0,sp,16
 144              		.cfi_def_cfa 8, 0
  46:src/uart.cpp  ****     return ret;
 145              		.loc 1 46 5
  46:src/uart.cpp  ****     return ret;
 146              		.loc 1 46 17 is_stmt 0
 147 0104 97070000 		la	a5,CONSOLE_STATUS
 147      83B70700 
 148 010c 83B70700 		ld	a5,0(a5)
 149              	.LVL7:
  47:src/uart.cpp  **** }
 150              		.loc 1 47 5 is_stmt 1
  48:src/uart.cpp  **** 
 151              		.loc 1 48 1 is_stmt 0
 152 0110 03C50700 		lbu	a0,0(a5)
 153 0114 03348100 		ld	s0,8(sp)
 154              		.cfi_restore 8
 155              		.cfi_def_cfa 2, 16
 156 0118 13010101 		addi	sp,sp,16
 157              		.cfi_def_cfa_offset 0
 158 011c 67800000 		jr	ra
 159              		.cfi_endproc
 160              	.LFE74:
 162              		.align	2
 163              		.globl	_ZN4Uart5rxGetEv
 165              	_ZN4Uart5rxGetEv:
 166              	.LFB75:
  53:src/uart.cpp  ****     char c;
 167              		.loc 1 53 20 is_stmt 1
 168              		.cfi_startproc
GAS LISTING /tmp/cckheMQD.s 			page 7


 169 0120 130101FE 		addi	sp,sp,-32
 170              		.cfi_def_cfa_offset 32
 171 0124 233C1100 		sd	ra,24(sp)
 172 0128 23388100 		sd	s0,16(sp)
 173 012c 23349100 		sd	s1,8(sp)
 174              		.cfi_offset 1, -8
 175              		.cfi_offset 8, -16
 176              		.cfi_offset 9, -24
 177 0130 13040102 		addi	s0,sp,32
 178              		.cfi_def_cfa 8, 0
  54:src/uart.cpp  ****     rx_not_empty->semWait();
 179              		.loc 1 54 5
  55:src/uart.cpp  ****     c = rx_buffer[rxFront];
 180              		.loc 1 55 5
  55:src/uart.cpp  ****     c = rx_buffer[rxFront];
 181              		.loc 1 55 26 is_stmt 0
 182 0134 97040000 		lla	s1,.LANCHOR0
 182      93840400 
 183 013c 03B58401 		ld	a0,24(s1)
 184 0140 97000000 		call	_ZN3Sem7semWaitEv@plt
 184      E7800000 
 185              	.LVL8:
  56:src/uart.cpp  ****     rxFront = (rxFront + 1) & (BUFFER_SIZE - 1);
 186              		.loc 1 56 5 is_stmt 1
  56:src/uart.cpp  ****     rxFront = (rxFront + 1) & (BUFFER_SIZE - 1);
 187              		.loc 1 56 26 is_stmt 0
 188 0148 83A78404 		lw	a5,72(s1)
  56:src/uart.cpp  ****     rxFront = (rxFront + 1) & (BUFFER_SIZE - 1);
 189              		.loc 1 56 7
 190 014c 3387F400 		add	a4,s1,a5
 191              	.LVL9:
  57:src/uart.cpp  ****     rxSize--;
 192              		.loc 1 57 5 is_stmt 1
  57:src/uart.cpp  ****     rxSize--;
 193              		.loc 1 57 24 is_stmt 0
 194 0150 9B871700 		addiw	a5,a5,1
  57:src/uart.cpp  ****     rxSize--;
 195              		.loc 1 57 29
 196 0154 93F7F73F 		andi	a5,a5,1023
  57:src/uart.cpp  ****     rxSize--;
 197              		.loc 1 57 13
 198 0158 23A4F404 		sw	a5,72(s1)
  58:src/uart.cpp  ****     //rx_not_full->semSignal();
 199              		.loc 1 58 5 is_stmt 1
  58:src/uart.cpp  ****     //rx_not_full->semSignal();
 200              		.loc 1 58 11 is_stmt 0
 201 015c 83A70445 		lw	a5,1104(s1)
 202 0160 9B87F7FF 		addiw	a5,a5,-1
 203 0164 23A8F444 		sw	a5,1104(s1)
  60:src/uart.cpp  **** }
 204              		.loc 1 60 5 is_stmt 1
  61:src/uart.cpp  **** 
 205              		.loc 1 61 1 is_stmt 0
 206 0168 03450705 		lbu	a0,80(a4)
 207 016c 83308101 		ld	ra,24(sp)
 208              		.cfi_restore 1
 209 0170 03340101 		ld	s0,16(sp)
GAS LISTING /tmp/cckheMQD.s 			page 8


 210              		.cfi_restore 8
 211              		.cfi_def_cfa 2, 32
 212 0174 83348100 		ld	s1,8(sp)
 213              		.cfi_restore 9
 214 0178 13010102 		addi	sp,sp,32
 215              		.cfi_def_cfa_offset 0
 216 017c 67800000 		jr	ra
 217              		.cfi_endproc
 218              	.LFE75:
 220              		.align	2
 221              		.globl	_ZN4Uart5rxPutEc
 223              	_ZN4Uart5rxPutEc:
 224              	.LFB76:
  63:src/uart.cpp  ****     //char c = *RX_DATA;
 225              		.loc 1 63 26 is_stmt 1
 226              		.cfi_startproc
 227              	.LVL10:
 228 0180 130101FE 		addi	sp,sp,-32
 229              		.cfi_def_cfa_offset 32
 230 0184 233C1100 		sd	ra,24(sp)
 231 0188 23388100 		sd	s0,16(sp)
 232 018c 23349100 		sd	s1,8(sp)
 233 0190 23302101 		sd	s2,0(sp)
 234              		.cfi_offset 1, -8
 235              		.cfi_offset 8, -16
 236              		.cfi_offset 9, -24
 237              		.cfi_offset 18, -32
 238 0194 13040102 		addi	s0,sp,32
 239              		.cfi_def_cfa 8, 0
 240 0198 13090500 		mv	s2,a0
  65:src/uart.cpp  ****     rx_buffer[txRear] = c;
 241              		.loc 1 65 5
  65:src/uart.cpp  ****     rx_buffer[txRear] = c;
 242              		.loc 1 65 25 is_stmt 0
 243 019c 97040000 		lla	s1,.LANCHOR0
 243      93840400 
 244 01a4 03B50402 		ld	a0,32(s1)
 245              	.LVL11:
 246 01a8 97000000 		call	_ZN3Sem7semWaitEv@plt
 246      E7800000 
 247              	.LVL12:
  66:src/uart.cpp  ****     rxRear = (rxRear + 1) & (BUFFER_SIZE - 1);
 248              		.loc 1 66 5 is_stmt 1
  66:src/uart.cpp  ****     rxRear = (rxRear + 1) & (BUFFER_SIZE - 1);
 249              		.loc 1 66 21 is_stmt 0
 250 01b0 83A74445 		lw	a5,1108(s1)
  66:src/uart.cpp  ****     rxRear = (rxRear + 1) & (BUFFER_SIZE - 1);
 251              		.loc 1 66 23
 252 01b4 B387F400 		add	a5,s1,a5
 253 01b8 23882705 		sb	s2,80(a5)
  67:src/uart.cpp  ****     rxSize++;
 254              		.loc 1 67 5 is_stmt 1
  67:src/uart.cpp  ****     rxSize++;
 255              		.loc 1 67 22 is_stmt 0
 256 01bc 83A78445 		lw	a5,1112(s1)
 257 01c0 9B871700 		addiw	a5,a5,1
  67:src/uart.cpp  ****     rxSize++;
GAS LISTING /tmp/cckheMQD.s 			page 9


 258              		.loc 1 67 27
 259 01c4 93F7F73F 		andi	a5,a5,1023
  67:src/uart.cpp  ****     rxSize++;
 260              		.loc 1 67 12
 261 01c8 23ACF444 		sw	a5,1112(s1)
  68:src/uart.cpp  ****     rx_not_empty->semSignal(); // signal consumer
 262              		.loc 1 68 5 is_stmt 1
  68:src/uart.cpp  ****     rx_not_empty->semSignal(); // signal consumer
 263              		.loc 1 68 11 is_stmt 0
 264 01cc 83A70445 		lw	a5,1104(s1)
 265 01d0 9B871700 		addiw	a5,a5,1
 266 01d4 23A8F444 		sw	a5,1104(s1)
  69:src/uart.cpp  **** }
 267              		.loc 1 69 5 is_stmt 1
  69:src/uart.cpp  **** }
 268              		.loc 1 69 28 is_stmt 0
 269 01d8 03B58401 		ld	a0,24(s1)
 270 01dc 97000000 		call	_ZN3Sem9semSignalEv@plt
 270      E7800000 
 271              	.LVL13:
  70:src/uart.cpp  **** 
 272              		.loc 1 70 1
 273 01e4 83308101 		ld	ra,24(sp)
 274              		.cfi_restore 1
 275 01e8 03340101 		ld	s0,16(sp)
 276              		.cfi_restore 8
 277              		.cfi_def_cfa 2, 32
 278 01ec 83348100 		ld	s1,8(sp)
 279              		.cfi_restore 9
 280 01f0 03390100 		ld	s2,0(sp)
 281              		.cfi_restore 18
 282 01f4 13010102 		addi	sp,sp,32
 283              		.cfi_def_cfa_offset 0
 284 01f8 67800000 		jr	ra
 285              		.cfi_endproc
 286              	.LFE76:
 288              		.align	2
 289              		.globl	_ZN4Uart9rxReceiveEv
 291              	_ZN4Uart9rxReceiveEv:
 292              	.LFB77:
  76:src/uart.cpp  ****     //return *RX_DATA;
 293              		.loc 1 76 24 is_stmt 1
 294              		.cfi_startproc
  78:src/uart.cpp  ****     char c = *(char*) CONSOLE_RX_DATA;
 295              		.loc 1 78 5
  78:src/uart.cpp  ****     char c = *(char*) CONSOLE_RX_DATA;
 296              		.loc 1 78 16 is_stmt 0
 297 01fc 17070000 		lw	a4,.LANCHOR0+1104
 297      03270700 
  78:src/uart.cpp  ****     char c = *(char*) CONSOLE_RX_DATA;
 298              		.loc 1 78 5
 299 0204 9307F03F 		li	a5,1023
 300 0208 63C6E706 		bgt	a4,a5,.L15
  76:src/uart.cpp  ****     //return *RX_DATA;
 301              		.loc 1 76 24
 302 020c 130101FF 		addi	sp,sp,-16
 303              		.cfi_def_cfa_offset 16
GAS LISTING /tmp/cckheMQD.s 			page 10


 304 0210 23341100 		sd	ra,8(sp)
 305 0214 23308100 		sd	s0,0(sp)
 306              		.cfi_offset 1, -8
 307              		.cfi_offset 8, -16
 308 0218 13040101 		addi	s0,sp,16
 309              		.cfi_def_cfa 8, 0
  79:src/uart.cpp  ****     rx_buffer[rxRear] = c;
 310              		.loc 1 79 5 is_stmt 1
  79:src/uart.cpp  ****     rx_buffer[rxRear] = c;
 311              		.loc 1 79 14 is_stmt 0
 312 021c 97070000 		la	a5,CONSOLE_RX_DATA
 312      83B70700 
 313 0224 83B70700 		ld	a5,0(a5)
  79:src/uart.cpp  ****     rx_buffer[rxRear] = c;
 314              		.loc 1 79 10
 315 0228 83C50700 		lbu	a1,0(a5)
 316              	.LVL14:
  80:src/uart.cpp  ****     rxRear = (rxRear + 1) & (BUFFER_SIZE - 1);
 317              		.loc 1 80 5 is_stmt 1
  80:src/uart.cpp  ****     rxRear = (rxRear + 1) & (BUFFER_SIZE - 1);
 318              		.loc 1 80 21 is_stmt 0
 319 022c 97060000 		lla	a3,.LANCHOR0
 319      93860600 
 320 0234 83A78645 		lw	a5,1112(a3)
  80:src/uart.cpp  ****     rxRear = (rxRear + 1) & (BUFFER_SIZE - 1);
 321              		.loc 1 80 23
 322 0238 3386F600 		add	a2,a3,a5
 323 023c 2308B604 		sb	a1,80(a2)
  81:src/uart.cpp  ****     rxSize++;
 324              		.loc 1 81 5 is_stmt 1
  81:src/uart.cpp  ****     rxSize++;
 325              		.loc 1 81 22 is_stmt 0
 326 0240 9B871700 		addiw	a5,a5,1
  81:src/uart.cpp  ****     rxSize++;
 327              		.loc 1 81 27
 328 0244 93F7F73F 		andi	a5,a5,1023
  81:src/uart.cpp  ****     rxSize++;
 329              		.loc 1 81 12
 330 0248 23ACF644 		sw	a5,1112(a3)
  82:src/uart.cpp  ****     rx_not_empty->semSignal();
 331              		.loc 1 82 5 is_stmt 1
  82:src/uart.cpp  ****     rx_not_empty->semSignal();
 332              		.loc 1 82 11 is_stmt 0
 333 024c 1B071700 		addiw	a4,a4,1
 334 0250 23A8E644 		sw	a4,1104(a3)
  83:src/uart.cpp  ****     //__print_string("rx\n");
 335              		.loc 1 83 5 is_stmt 1
  83:src/uart.cpp  ****     //__print_string("rx\n");
 336              		.loc 1 83 28 is_stmt 0
 337 0254 03B58601 		ld	a0,24(a3)
 338 0258 97000000 		call	_ZN3Sem9semSignalEv@plt
 338      E7800000 
 339              	.LVL15:
  85:src/uart.cpp  **** }
 340              		.loc 1 85 5 is_stmt 1
  85:src/uart.cpp  **** }
 341              		.loc 1 85 12 is_stmt 0
GAS LISTING /tmp/cckheMQD.s 			page 11


 342 0260 13050000 		li	a0,0
  86:src/uart.cpp  **** 
 343              		.loc 1 86 1
 344 0264 83308100 		ld	ra,8(sp)
 345              		.cfi_restore 1
 346 0268 03340100 		ld	s0,0(sp)
 347              		.cfi_restore 8
 348              		.cfi_def_cfa 2, 16
 349 026c 13010101 		addi	sp,sp,16
 350              		.cfi_def_cfa_offset 0
 351 0270 67800000 		jr	ra
 352              	.L15:
  78:src/uart.cpp  ****     char c = *(char*) CONSOLE_RX_DATA;
 353              		.loc 1 78 40
 354 0274 1305F00F 		li	a0,255
  86:src/uart.cpp  **** 
 355              		.loc 1 86 1
 356 0278 67800000 		ret
 357              		.cfi_endproc
 358              	.LFE77:
 360              		.align	2
 361              		.globl	_ZN4Uart5txGetEv
 363              	_ZN4Uart5txGetEv:
 364              	.LFB78:
  91:src/uart.cpp  ****     char c;
 365              		.loc 1 91 20 is_stmt 1
 366              		.cfi_startproc
 367 027c 130101FE 		addi	sp,sp,-32
 368              		.cfi_def_cfa_offset 32
 369 0280 233C1100 		sd	ra,24(sp)
 370 0284 23388100 		sd	s0,16(sp)
 371 0288 23349100 		sd	s1,8(sp)
 372              		.cfi_offset 1, -8
 373              		.cfi_offset 8, -16
 374              		.cfi_offset 9, -24
 375 028c 13040102 		addi	s0,sp,32
 376              		.cfi_def_cfa 8, 0
 377              	.L23:
  92:src/uart.cpp  ****     //tx_not_empty->semWait(); // wait consumer
 378              		.loc 1 92 5
  94:src/uart.cpp  ****         if (Kernel::isFinished()) return 0;
 379              		.loc 1 94 5
  94:src/uart.cpp  ****         if (Kernel::isFinished()) return 0;
 380              		.loc 1 94 18
 381 0290 97070000 		lw	a5,.LANCHOR0+1116
 381      83A70700 
 382 0298 639E0700 		bnez	a5,.L21
  95:src/uart.cpp  ****         thread_dispatch();
 383              		.loc 1 95 9
  95:src/uart.cpp  ****         thread_dispatch();
 384              		.loc 1 95 31 is_stmt 0
 385 029c 97000000 		call	_ZN6Kernel10isFinishedEv@plt
 385      E7800000 
 386              	.LVL16:
  95:src/uart.cpp  ****         thread_dispatch();
 387              		.loc 1 95 9
 388 02a4 63100506 		bnez	a0,.L24
GAS LISTING /tmp/cckheMQD.s 			page 12


  96:src/uart.cpp  ****     }
 389              		.loc 1 96 9 is_stmt 1
  96:src/uart.cpp  ****     }
 390              		.loc 1 96 24 is_stmt 0
 391 02a8 97000000 		call	thread_dispatch@plt
 391      E7800000 
 392              	.LVL17:
  94:src/uart.cpp  ****         if (Kernel::isFinished()) return 0;
 393              		.loc 1 94 5
 394 02b0 6FF01FFE 		j	.L23
 395              	.L21:
  98:src/uart.cpp  ****     txFront = (txFront + 1) & (BUFFER_SIZE - 1);
 396              		.loc 1 98 5 is_stmt 1
  98:src/uart.cpp  ****     txFront = (txFront + 1) & (BUFFER_SIZE - 1);
 397              		.loc 1 98 26 is_stmt 0
 398 02b4 97070000 		lla	a5,.LANCHOR0
 398      93870700 
 399 02bc 03A70746 		lw	a4,1120(a5)
  98:src/uart.cpp  ****     txFront = (txFront + 1) & (BUFFER_SIZE - 1);
 400              		.loc 1 98 7
 401 02c0 B386E700 		add	a3,a5,a4
 402 02c4 83C48646 		lbu	s1,1128(a3)
 403              	.LVL18:
  99:src/uart.cpp  ****     txSize--;
 404              		.loc 1 99 5 is_stmt 1
  99:src/uart.cpp  ****     txSize--;
 405              		.loc 1 99 24 is_stmt 0
 406 02c8 1B071700 		addiw	a4,a4,1
  99:src/uart.cpp  ****     txSize--;
 407              		.loc 1 99 29
 408 02cc 1377F73F 		andi	a4,a4,1023
  99:src/uart.cpp  ****     txSize--;
 409              		.loc 1 99 13
 410 02d0 23A0E746 		sw	a4,1120(a5)
 100:src/uart.cpp  ****     tx_not_full->semSignal(); // signal producer
 411              		.loc 1 100 5 is_stmt 1
 100:src/uart.cpp  ****     tx_not_full->semSignal(); // signal producer
 412              		.loc 1 100 11 is_stmt 0
 413 02d4 03A7C745 		lw	a4,1116(a5)
 414 02d8 1B07F7FF 		addiw	a4,a4,-1
 415 02dc 23AEE744 		sw	a4,1116(a5)
 101:src/uart.cpp  ****     return c;
 416              		.loc 1 101 5 is_stmt 1
 101:src/uart.cpp  ****     return c;
 417              		.loc 1 101 27 is_stmt 0
 418 02e0 03B58703 		ld	a0,56(a5)
 419 02e4 97000000 		call	_ZN3Sem9semSignalEv@plt
 419      E7800000 
 420              	.LVL19:
 102:src/uart.cpp  **** }
 421              		.loc 1 102 5 is_stmt 1
 422              	.L22:
 103:src/uart.cpp  **** 
 423              		.loc 1 103 1 is_stmt 0
 424 02ec 13850400 		mv	a0,s1
 425 02f0 83308101 		ld	ra,24(sp)
 426              		.cfi_remember_state
GAS LISTING /tmp/cckheMQD.s 			page 13


 427              		.cfi_restore 1
 428 02f4 03340101 		ld	s0,16(sp)
 429              		.cfi_restore 8
 430              		.cfi_def_cfa 2, 32
 431 02f8 83348100 		ld	s1,8(sp)
 432              		.cfi_restore 9
 433 02fc 13010102 		addi	sp,sp,32
 434              		.cfi_def_cfa_offset 0
 435 0300 67800000 		jr	ra
 436              	.L24:
 437              		.cfi_restore_state
  95:src/uart.cpp  ****         thread_dispatch();
 438              		.loc 1 95 42
 439 0304 93040000 		li	s1,0
 440 0308 6FF05FFE 		j	.L22
 441              		.cfi_endproc
 442              	.LFE78:
 444              		.align	2
 445              		.globl	_ZN4Uart5txPutEc
 447              	_ZN4Uart5txPutEc:
 448              	.LFB79:
 108:src/uart.cpp  ****     //char c = *RX_DATA;
 449              		.loc 1 108 26 is_stmt 1
 450              		.cfi_startproc
 451              	.LVL20:
 452 030c 130101FE 		addi	sp,sp,-32
 453              		.cfi_def_cfa_offset 32
 454 0310 233C1100 		sd	ra,24(sp)
 455 0314 23388100 		sd	s0,16(sp)
 456 0318 23349100 		sd	s1,8(sp)
 457 031c 23302101 		sd	s2,0(sp)
 458              		.cfi_offset 1, -8
 459              		.cfi_offset 8, -16
 460              		.cfi_offset 9, -24
 461              		.cfi_offset 18, -32
 462 0320 13040102 		addi	s0,sp,32
 463              		.cfi_def_cfa 8, 0
 464 0324 13090500 		mv	s2,a0
 110:src/uart.cpp  ****     tx_buffer[txRear] = c;
 465              		.loc 1 110 5
 110:src/uart.cpp  ****     tx_buffer[txRear] = c;
 466              		.loc 1 110 25 is_stmt 0
 467 0328 97040000 		lla	s1,.LANCHOR0
 467      93840400 
 468 0330 03B58403 		ld	a0,56(s1)
 469              	.LVL21:
 470 0334 97000000 		call	_ZN3Sem7semWaitEv@plt
 470      E7800000 
 471              	.LVL22:
 111:src/uart.cpp  ****     txRear = (txRear + 1) & (BUFFER_SIZE - 1);
 472              		.loc 1 111 5 is_stmt 1
 111:src/uart.cpp  ****     txRear = (txRear + 1) & (BUFFER_SIZE - 1);
 473              		.loc 1 111 21 is_stmt 0
 474 033c 83A74445 		lw	a5,1108(s1)
 111:src/uart.cpp  ****     txRear = (txRear + 1) & (BUFFER_SIZE - 1);
 475              		.loc 1 111 23
 476 0340 3387F400 		add	a4,s1,a5
GAS LISTING /tmp/cckheMQD.s 			page 14


 477 0344 23042747 		sb	s2,1128(a4)
 112:src/uart.cpp  ****     txSize++;
 478              		.loc 1 112 5 is_stmt 1
 112:src/uart.cpp  ****     txSize++;
 479              		.loc 1 112 22 is_stmt 0
 480 0348 9B871700 		addiw	a5,a5,1
 112:src/uart.cpp  ****     txSize++;
 481              		.loc 1 112 27
 482 034c 93F7F73F 		andi	a5,a5,1023
 112:src/uart.cpp  ****     txSize++;
 483              		.loc 1 112 12
 484 0350 23AAF444 		sw	a5,1108(s1)
 113:src/uart.cpp  ****     tx_not_empty->semSignal(); // signal consumer
 485              		.loc 1 113 5 is_stmt 1
 113:src/uart.cpp  ****     tx_not_empty->semSignal(); // signal consumer
 486              		.loc 1 113 11 is_stmt 0
 487 0354 83A7C445 		lw	a5,1116(s1)
 488 0358 9B871700 		addiw	a5,a5,1
 489 035c 23AEF444 		sw	a5,1116(s1)
 114:src/uart.cpp  **** }
 490              		.loc 1 114 5 is_stmt 1
 114:src/uart.cpp  **** }
 491              		.loc 1 114 28 is_stmt 0
 492 0360 03B50403 		ld	a0,48(s1)
 493 0364 97000000 		call	_ZN3Sem9semSignalEv@plt
 493      E7800000 
 494              	.LVL23:
 115:src/uart.cpp  **** 
 495              		.loc 1 115 1
 496 036c 83308101 		ld	ra,24(sp)
 497              		.cfi_restore 1
 498 0370 03340101 		ld	s0,16(sp)
 499              		.cfi_restore 8
 500              		.cfi_def_cfa 2, 32
 501 0374 83348100 		ld	s1,8(sp)
 502              		.cfi_restore 9
 503 0378 03390100 		ld	s2,0(sp)
 504              		.cfi_restore 18
 505 037c 13010102 		addi	sp,sp,32
 506              		.cfi_def_cfa_offset 0
 507 0380 67800000 		jr	ra
 508              		.cfi_endproc
 509              	.LFE79:
 511              		.align	2
 512              		.globl	_ZN4Uart6txSendEc
 514              	_ZN4Uart6txSendEc:
 515              	.LFB80:
 119:src/uart.cpp  ****     *(char*)CONSOLE_TX_DATA = c;
 516              		.loc 1 119 27 is_stmt 1
 517              		.cfi_startproc
 518              	.LVL24:
 519 0384 130101FF 		addi	sp,sp,-16
 520              		.cfi_def_cfa_offset 16
 521 0388 23348100 		sd	s0,8(sp)
 522              		.cfi_offset 8, -8
 523 038c 13040101 		addi	s0,sp,16
 524              		.cfi_def_cfa 8, 0
GAS LISTING /tmp/cckheMQD.s 			page 15


 120:src/uart.cpp  **** }
 525              		.loc 1 120 5
 526 0390 97070000 		la	a5,CONSOLE_TX_DATA
 526      83B70700 
 527 0398 83B70700 		ld	a5,0(a5)
 120:src/uart.cpp  **** }
 528              		.loc 1 120 29 is_stmt 0
 529 039c 2380A700 		sb	a0,0(a5)
 121:src/uart.cpp  **** 
 530              		.loc 1 121 1
 531 03a0 03348100 		ld	s0,8(sp)
 532              		.cfi_restore 8
 533              		.cfi_def_cfa 2, 16
 534 03a4 13010101 		addi	sp,sp,16
 535              		.cfi_def_cfa_offset 0
 536 03a8 67800000 		jr	ra
 537              		.cfi_endproc
 538              	.LFE80:
 540              		.align	2
 541              		.globl	_ZN4Uart6txWaitEv
 543              	_ZN4Uart6txWaitEv:
 544              	.LFB81:
 123:src/uart.cpp  ****     tx_request->semWait();
 545              		.loc 1 123 21 is_stmt 1
 546              		.cfi_startproc
 547 03ac 130101FF 		addi	sp,sp,-16
 548              		.cfi_def_cfa_offset 16
 549 03b0 23341100 		sd	ra,8(sp)
 550 03b4 23308100 		sd	s0,0(sp)
 551              		.cfi_offset 1, -8
 552              		.cfi_offset 8, -16
 553 03b8 13040101 		addi	s0,sp,16
 554              		.cfi_def_cfa 8, 0
 124:src/uart.cpp  **** }
 555              		.loc 1 124 5
 124:src/uart.cpp  **** }
 556              		.loc 1 124 24 is_stmt 0
 557 03bc 17050000 		ld	a0,.LANCHOR0+64
 557      03350500 
 558 03c4 97000000 		call	_ZN3Sem7semWaitEv@plt
 558      E7800000 
 559              	.LVL25:
 125:src/uart.cpp  **** 
 560              		.loc 1 125 1
 561 03cc 83308100 		ld	ra,8(sp)
 562              		.cfi_restore 1
 563 03d0 03340100 		ld	s0,0(sp)
 564              		.cfi_restore 8
 565              		.cfi_def_cfa 2, 16
 566 03d4 13010101 		addi	sp,sp,16
 567              		.cfi_def_cfa_offset 0
 568 03d8 67800000 		jr	ra
 569              		.cfi_endproc
 570              	.LFE81:
 572              		.align	2
 573              		.globl	_ZN4Uart8txSignalEv
 575              	_ZN4Uart8txSignalEv:
GAS LISTING /tmp/cckheMQD.s 			page 16


 576              	.LFB82:
 127:src/uart.cpp  ****     tx_request->semSignal();
 577              		.loc 1 127 23 is_stmt 1
 578              		.cfi_startproc
 579 03dc 130101FF 		addi	sp,sp,-16
 580              		.cfi_def_cfa_offset 16
 581 03e0 23341100 		sd	ra,8(sp)
 582 03e4 23308100 		sd	s0,0(sp)
 583              		.cfi_offset 1, -8
 584              		.cfi_offset 8, -16
 585 03e8 13040101 		addi	s0,sp,16
 586              		.cfi_def_cfa 8, 0
 128:src/uart.cpp  **** }
 587              		.loc 1 128 5
 128:src/uart.cpp  **** }
 588              		.loc 1 128 26 is_stmt 0
 589 03ec 17050000 		ld	a0,.LANCHOR0+64
 589      03350500 
 590 03f4 97000000 		call	_ZN3Sem9semSignalEv@plt
 590      E7800000 
 591              	.LVL26:
 129:src/uart.cpp  **** 
 592              		.loc 1 129 1
 593 03fc 83308100 		ld	ra,8(sp)
 594              		.cfi_restore 1
 595 0400 03340100 		ld	s0,0(sp)
 596              		.cfi_restore 8
 597              		.cfi_def_cfa 2, 16
 598 0404 13010101 		addi	sp,sp,16
 599              		.cfi_def_cfa_offset 0
 600 0408 67800000 		jr	ra
 601              		.cfi_endproc
 602              	.LFE82:
 604              		.align	2
 605              		.globl	_ZN4Uart6rxWaitEv
 607              	_ZN4Uart6rxWaitEv:
 608              	.LFB83:
 131:src/uart.cpp  ****     rx_request->semWait();
 609              		.loc 1 131 21 is_stmt 1
 610              		.cfi_startproc
 611 040c 130101FF 		addi	sp,sp,-16
 612              		.cfi_def_cfa_offset 16
 613 0410 23341100 		sd	ra,8(sp)
 614 0414 23308100 		sd	s0,0(sp)
 615              		.cfi_offset 1, -8
 616              		.cfi_offset 8, -16
 617 0418 13040101 		addi	s0,sp,16
 618              		.cfi_def_cfa 8, 0
 132:src/uart.cpp  **** }
 619              		.loc 1 132 5
 132:src/uart.cpp  **** }
 620              		.loc 1 132 24 is_stmt 0
 621 041c 17050000 		ld	a0,.LANCHOR0+40
 621      03350500 
 622 0424 97000000 		call	_ZN3Sem7semWaitEv@plt
 622      E7800000 
 623              	.LVL27:
GAS LISTING /tmp/cckheMQD.s 			page 17


 133:src/uart.cpp  **** 
 624              		.loc 1 133 1
 625 042c 83308100 		ld	ra,8(sp)
 626              		.cfi_restore 1
 627 0430 03340100 		ld	s0,0(sp)
 628              		.cfi_restore 8
 629              		.cfi_def_cfa 2, 16
 630 0434 13010101 		addi	sp,sp,16
 631              		.cfi_def_cfa_offset 0
 632 0438 67800000 		jr	ra
 633              		.cfi_endproc
 634              	.LFE83:
 636              		.align	2
 637              		.globl	_ZN4Uart8rxSignalEv
 639              	_ZN4Uart8rxSignalEv:
 640              	.LFB84:
 135:src/uart.cpp  ****     rx_request->semSignal();
 641              		.loc 1 135 23 is_stmt 1
 642              		.cfi_startproc
 643 043c 130101FF 		addi	sp,sp,-16
 644              		.cfi_def_cfa_offset 16
 645 0440 23341100 		sd	ra,8(sp)
 646 0444 23308100 		sd	s0,0(sp)
 647              		.cfi_offset 1, -8
 648              		.cfi_offset 8, -16
 649 0448 13040101 		addi	s0,sp,16
 650              		.cfi_def_cfa 8, 0
 136:src/uart.cpp  **** }
 651              		.loc 1 136 5
 136:src/uart.cpp  **** }
 652              		.loc 1 136 26 is_stmt 0
 653 044c 17050000 		ld	a0,.LANCHOR0+40
 653      03350500 
 654 0454 97000000 		call	_ZN3Sem9semSignalEv@plt
 654      E7800000 
 655              	.LVL28:
 656              		.loc 1 137 1
 657 045c 83308100 		ld	ra,8(sp)
 658              		.cfi_restore 1
 659 0460 03340100 		ld	s0,0(sp)
 660              		.cfi_restore 8
 661              		.cfi_def_cfa 2, 16
 662 0464 13010101 		addi	sp,sp,16
 663              		.cfi_def_cfa_offset 0
 664 0468 67800000 		jr	ra
 665              		.cfi_endproc
 666              	.LFE84:
 668              		.align	2
 670              	_GLOBAL__sub_I__ZN4Uart9rx_bufferE:
 671              	.LFB89:
 672              		.loc 1 137 1 is_stmt 1
 673              		.cfi_startproc
 674 046c 130101FF 		addi	sp,sp,-16
 675              		.cfi_def_cfa_offset 16
 676 0470 23341100 		sd	ra,8(sp)
 677 0474 23308100 		sd	s0,0(sp)
 678              		.cfi_offset 1, -8
GAS LISTING /tmp/cckheMQD.s 			page 18


 679              		.cfi_offset 8, -16
 680 0478 13040101 		addi	s0,sp,16
 681              		.cfi_def_cfa 8, 0
 682              		.loc 1 137 1 is_stmt 0
 683 047c B7050100 		li	a1,65536
 684 0480 9385F5FF 		addi	a1,a1,-1
 685 0484 13051000 		li	a0,1
 686 0488 97000000 		call	_Z41__static_initialization_and_destruction_0ii
 686      E7800000 
 687              	.LVL29:
 688 0490 83308100 		ld	ra,8(sp)
 689              		.cfi_restore 1
 690 0494 03340100 		ld	s0,0(sp)
 691              		.cfi_restore 8
 692              		.cfi_def_cfa 2, 16
 693 0498 13010101 		addi	sp,sp,16
 694              		.cfi_def_cfa_offset 0
 695 049c 67800000 		jr	ra
 696              		.cfi_endproc
 697              	.LFE89:
 699              		.section	.init_array,"aw"
 700              		.align	3
 701 0000 00000000 		.dword	_GLOBAL__sub_I__ZN4Uart9rx_bufferE
 701      00000000 
 702              		.globl	_ZN4Uart6rxSizeE
 703              		.globl	_ZN4Uart6rxRearE
 704              		.globl	_ZN4Uart7rxFrontE
 705              		.globl	_ZN4Uart6txSizeE
 706              		.globl	_ZN4Uart6txRearE
 707              		.globl	_ZN4Uart7txFrontE
 708              		.globl	_ZN4Uart7TX_DATAE
 709              		.globl	_ZN4Uart7RX_DATAE
 710              		.globl	_ZN4Uart6STATUSE
 711              		.globl	_ZN4Uart10rx_requestE
 712              		.globl	_ZN4Uart10tx_requestE
 713              		.globl	_ZN4Uart11rx_not_fullE
 714              		.globl	_ZN4Uart12rx_not_emptyE
 715              		.globl	_ZN4Uart11tx_not_fullE
 716              		.globl	_ZN4Uart12tx_not_emptyE
 717              		.globl	_ZN4Uart9tx_bufferE
 718              		.globl	_ZN4Uart9rx_bufferE
 719              		.bss
 720              		.align	3
 721              		.set	.LANCHOR0,. + 0
 724              	_ZN4Uart6STATUSE:
 725 0000 00000000 		.zero	8
 725      00000000 
 728              	_ZN4Uart7RX_DATAE:
 729 0008 00000000 		.zero	8
 729      00000000 
 732              	_ZN4Uart7TX_DATAE:
 733 0010 00000000 		.zero	8
 733      00000000 
 736              	_ZN4Uart12rx_not_emptyE:
 737 0018 00000000 		.zero	8
 737      00000000 
 740              	_ZN4Uart11rx_not_fullE:
GAS LISTING /tmp/cckheMQD.s 			page 19


 741 0020 00000000 		.zero	8
 741      00000000 
 744              	_ZN4Uart10rx_requestE:
 745 0028 00000000 		.zero	8
 745      00000000 
 748              	_ZN4Uart12tx_not_emptyE:
 749 0030 00000000 		.zero	8
 749      00000000 
 752              	_ZN4Uart11tx_not_fullE:
 753 0038 00000000 		.zero	8
 753      00000000 
 756              	_ZN4Uart10tx_requestE:
 757 0040 00000000 		.zero	8
 757      00000000 
 760              	_ZN4Uart7rxFrontE:
 761 0048 00000000 		.zero	4
 762 004c 00000000 		.zero	4
 765              	_ZN4Uart9rx_bufferE:
 766 0050 00000000 		.zero	1024
 766      00000000 
 766      00000000 
 766      00000000 
 766      00000000 
 769              	_ZN4Uart6rxSizeE:
 770 0450 00000000 		.zero	4
 773              	_ZN4Uart6txRearE:
 774 0454 00000000 		.zero	4
 777              	_ZN4Uart6rxRearE:
 778 0458 00000000 		.zero	4
 781              	_ZN4Uart6txSizeE:
 782 045c 00000000 		.zero	4
 785              	_ZN4Uart7txFrontE:
 786 0460 00000000 		.zero	4
 787 0464 00000000 		.zero	4
 790              	_ZN4Uart9tx_bufferE:
 791 0468 00000000 		.zero	1024
 791      00000000 
 791      00000000 
 791      00000000 
 791      00000000 
 792              		.text
 793              	.Letext0:
 794              		.file 2 "src/../h/../lib/hw.h"
 795              		.file 3 "src/../h/tcb.hpp"
 796              		.file 4 "src/../h/sem.hpp"
 797              		.file 5 "src/../h/list.hpp"
 798              		.file 6 "src/../h/uart.hpp"
 799              		.file 7 "src/../h/kernel.hpp"
 800              		.file 8 "src/../h/syscall_c.h"
GAS LISTING /tmp/cckheMQD.s 			page 20

