GAS LISTING /tmp/cc673G5Z.s 			page 1


   1              		.file	"userMain.cpp"
   2              		.option pic
   3              		.option norelax
   4              		.text
   5              	.Ltext0:
   6              		.align	2
   7              		.globl	_Z16producerKeyboardPv
   9              	_Z16producerKeyboardPv:
  10              	.LFB0:
  11              		.file 1 "test/../test/ConsumerProducer_C_API_test.h"
   1:test/../test/ConsumerProducer_C_API_test.h **** //
   2:test/../test/ConsumerProducer_C_API_test.h **** // Created by os on 4/17/22.
   3:test/../test/ConsumerProducer_C_API_test.h **** //
   4:test/../test/ConsumerProducer_C_API_test.h **** 
   5:test/../test/ConsumerProducer_C_API_test.h **** #ifndef XV6_CONSUMERPRODUCER_C_API_TEST_H
   6:test/../test/ConsumerProducer_C_API_test.h **** #define XV6_CONSUMERPRODUCER_C_API_TEST_H
   7:test/../test/ConsumerProducer_C_API_test.h **** 
   8:test/../test/ConsumerProducer_C_API_test.h **** #include "../h/syscall_c.h"
   9:test/../test/ConsumerProducer_C_API_test.h **** 
  10:test/../test/ConsumerProducer_C_API_test.h **** #include "buffer.hpp"
  11:test/../test/ConsumerProducer_C_API_test.h **** 
  12:test/../test/ConsumerProducer_C_API_test.h **** sem_t waitForAll;
  13:test/../test/ConsumerProducer_C_API_test.h **** 
  14:test/../test/ConsumerProducer_C_API_test.h **** struct thread_data {
  15:test/../test/ConsumerProducer_C_API_test.h ****     int id;
  16:test/../test/ConsumerProducer_C_API_test.h ****     Buffer *buffer;
  17:test/../test/ConsumerProducer_C_API_test.h ****     sem_t wait;
  18:test/../test/ConsumerProducer_C_API_test.h **** };
  19:test/../test/ConsumerProducer_C_API_test.h **** 
  20:test/../test/ConsumerProducer_C_API_test.h **** volatile int threadEnd = 0;
  21:test/../test/ConsumerProducer_C_API_test.h **** 
  22:test/../test/ConsumerProducer_C_API_test.h **** void producerKeyboard(void *arg) {
  12              		.loc 1 22 34
  13              		.cfi_startproc
  14              	.LVL0:
  15 0000 130101FE 		addi	sp,sp,-32
  16              		.cfi_def_cfa_offset 32
  17 0004 233C1100 		sd	ra,24(sp)
  18 0008 23388100 		sd	s0,16(sp)
  19 000c 23349100 		sd	s1,8(sp)
  20 0010 23302101 		sd	s2,0(sp)
  21              		.cfi_offset 1, -8
  22              		.cfi_offset 8, -16
  23              		.cfi_offset 9, -24
  24              		.cfi_offset 18, -32
  25 0014 13040102 		addi	s0,sp,32
  26              		.cfi_def_cfa 8, 0
  27 0018 93040500 		mv	s1,a0
  23:test/../test/ConsumerProducer_C_API_test.h ****     struct thread_data *data = (struct thread_data *) arg;
  28              		.loc 1 23 5
  29              	.LVL1:
  24:test/../test/ConsumerProducer_C_API_test.h **** 
  25:test/../test/ConsumerProducer_C_API_test.h ****     int key;
  30              		.loc 1 25 5
  26:test/../test/ConsumerProducer_C_API_test.h ****     int i = 0;
  31              		.loc 1 26 5
  32              		.loc 1 26 9 is_stmt 0
GAS LISTING /tmp/cc673G5Z.s 			page 2


  33 001c 13090000 		li	s2,0
  34 0020 6F00C000 		j	.L2
  35              	.LVL2:
  36              	.L6:
  27:test/../test/ConsumerProducer_C_API_test.h ****     while ((key = getc()) != 0x1b) {
  28:test/../test/ConsumerProducer_C_API_test.h ****         data->buffer->put(key);
  29:test/../test/ConsumerProducer_C_API_test.h ****         i++;
  30:test/../test/ConsumerProducer_C_API_test.h **** 
  31:test/../test/ConsumerProducer_C_API_test.h ****         if (i % (10 * data->id) == 0) {
  32:test/../test/ConsumerProducer_C_API_test.h ****             thread_dispatch();
  37              		.loc 1 32 13 is_stmt 1
  38              		.loc 1 32 28 is_stmt 0
  39 0024 97000000 		call	thread_dispatch@plt
  39      E7800000 
  40              	.LVL3:
  41              	.L2:
  27:test/../test/ConsumerProducer_C_API_test.h ****     while ((key = getc()) != 0x1b) {
  42              		.loc 1 27 5 is_stmt 1
  27:test/../test/ConsumerProducer_C_API_test.h ****     while ((key = getc()) != 0x1b) {
  43              		.loc 1 27 27
  27:test/../test/ConsumerProducer_C_API_test.h ****     while ((key = getc()) != 0x1b) {
  44              		.loc 1 27 23 is_stmt 0
  45 002c 97000000 		call	getc@plt
  45      E7800000 
  46              	.LVL4:
  27:test/../test/ConsumerProducer_C_API_test.h ****     while ((key = getc()) != 0x1b) {
  47              		.loc 1 27 17
  48 0034 9B050500 		sext.w	a1,a0
  49              	.LVL5:
  27:test/../test/ConsumerProducer_C_API_test.h ****     while ((key = getc()) != 0x1b) {
  50              		.loc 1 27 27
  51 0038 9307B001 		li	a5,27
  52 003c 638AF502 		beq	a1,a5,.L3
  28:test/../test/ConsumerProducer_C_API_test.h ****         i++;
  53              		.loc 1 28 9 is_stmt 1
  28:test/../test/ConsumerProducer_C_API_test.h ****         i++;
  54              		.loc 1 28 26 is_stmt 0
  55 0040 03B58400 		ld	a0,8(s1)
  56 0044 97000000 		call	_ZN6Buffer3putEi@plt
  56      E7800000 
  57              	.LVL6:
  29:test/../test/ConsumerProducer_C_API_test.h **** 
  58              		.loc 1 29 9 is_stmt 1
  29:test/../test/ConsumerProducer_C_API_test.h **** 
  59              		.loc 1 29 10 is_stmt 0
  60 004c 1B071900 		addiw	a4,s2,1
  61 0050 1B090700 		sext.w	s2,a4
  62              	.LVL7:
  31:test/../test/ConsumerProducer_C_API_test.h ****             thread_dispatch();
  63              		.loc 1 31 9 is_stmt 1
  31:test/../test/ConsumerProducer_C_API_test.h ****             thread_dispatch();
  64              		.loc 1 31 29 is_stmt 0
  65 0054 83A60400 		lw	a3,0(s1)
  31:test/../test/ConsumerProducer_C_API_test.h ****             thread_dispatch();
  66              		.loc 1 31 21
  67 0058 9B972600 		slliw	a5,a3,2
  68 005c BB87D700 		addw	a5,a5,a3
GAS LISTING /tmp/cc673G5Z.s 			page 3


  69 0060 9B971700 		slliw	a5,a5,1
  31:test/../test/ConsumerProducer_C_API_test.h ****             thread_dispatch();
  70              		.loc 1 31 15
  71 0064 BB67F702 		remw	a5,a4,a5
  31:test/../test/ConsumerProducer_C_API_test.h ****             thread_dispatch();
  72              		.loc 1 31 9
  73 0068 E39207FC 		bnez	a5,.L2
  74 006c 6FF09FFB 		j	.L6
  75              	.LVL8:
  76              	.L3:
  33:test/../test/ConsumerProducer_C_API_test.h ****         }
  34:test/../test/ConsumerProducer_C_API_test.h ****     }
  35:test/../test/ConsumerProducer_C_API_test.h **** 
  36:test/../test/ConsumerProducer_C_API_test.h ****     threadEnd = 1;
  77              		.loc 1 36 5 is_stmt 1
  78              		.loc 1 36 15 is_stmt 0
  79 0070 93071000 		li	a5,1
  80 0074 17070000 		sw	a5,.LANCHOR0,a4
  80      2320F700 
  37:test/../test/ConsumerProducer_C_API_test.h ****     data->buffer->put('!');
  81              		.loc 1 37 5 is_stmt 1
  82              		.loc 1 37 22 is_stmt 0
  83 007c 93051002 		li	a1,33
  84              	.LVL9:
  85 0080 03B58400 		ld	a0,8(s1)
  86              	.LVL10:
  87 0084 97000000 		call	_ZN6Buffer3putEi@plt
  87      E7800000 
  88              	.LVL11:
  38:test/../test/ConsumerProducer_C_API_test.h **** 
  39:test/../test/ConsumerProducer_C_API_test.h ****     printInt((uint64)data->wait);
  89              		.loc 1 39 5 is_stmt 1
  90              		.loc 1 39 13 is_stmt 0
  91 008c 13060000 		li	a2,0
  92 0090 9305A000 		li	a1,10
  93 0094 03A50401 		lw	a0,16(s1)
  94 0098 97000000 		call	_Z8printIntiii@plt
  94      E7800000 
  95              	.LVL12:
  40:test/../test/ConsumerProducer_C_API_test.h **** 
  41:test/../test/ConsumerProducer_C_API_test.h ****     sem_signal(data->wait);
  96              		.loc 1 41 5 is_stmt 1
  97              		.loc 1 41 15 is_stmt 0
  98 00a0 03B50401 		ld	a0,16(s1)
  99 00a4 97000000 		call	sem_signal@plt
  99      E7800000 
 100              	.LVL13:
  42:test/../test/ConsumerProducer_C_API_test.h **** }
 101              		.loc 1 42 1
 102 00ac 83308101 		ld	ra,24(sp)
 103              		.cfi_restore 1
 104 00b0 03340101 		ld	s0,16(sp)
 105              		.cfi_restore 8
 106              		.cfi_def_cfa 2, 32
 107 00b4 83348100 		ld	s1,8(sp)
 108              		.cfi_restore 9
 109              	.LVL14:
GAS LISTING /tmp/cc673G5Z.s 			page 4


 110 00b8 03390100 		ld	s2,0(sp)
 111              		.cfi_restore 18
 112              	.LVL15:
 113 00bc 13010102 		addi	sp,sp,32
 114              		.cfi_def_cfa_offset 0
 115 00c0 67800000 		jr	ra
 116              		.cfi_endproc
 117              	.LFE0:
 119              		.align	2
 120              		.globl	_Z8producerPv
 122              	_Z8producerPv:
 123              	.LFB1:
  43:test/../test/ConsumerProducer_C_API_test.h **** 
  44:test/../test/ConsumerProducer_C_API_test.h **** void producer(void *arg) {
 124              		.loc 1 44 26 is_stmt 1
 125              		.cfi_startproc
 126              	.LVL16:
 127 00c4 130101FE 		addi	sp,sp,-32
 128              		.cfi_def_cfa_offset 32
 129 00c8 233C1100 		sd	ra,24(sp)
 130 00cc 23388100 		sd	s0,16(sp)
 131 00d0 23349100 		sd	s1,8(sp)
 132 00d4 23302101 		sd	s2,0(sp)
 133              		.cfi_offset 1, -8
 134              		.cfi_offset 8, -16
 135              		.cfi_offset 9, -24
 136              		.cfi_offset 18, -32
 137 00d8 13040102 		addi	s0,sp,32
 138              		.cfi_def_cfa 8, 0
 139 00dc 93040500 		mv	s1,a0
  45:test/../test/ConsumerProducer_C_API_test.h ****     struct thread_data *data = (struct thread_data *) arg;
 140              		.loc 1 45 5
 141              	.LVL17:
  46:test/../test/ConsumerProducer_C_API_test.h **** 
  47:test/../test/ConsumerProducer_C_API_test.h ****     int i = 0;
 142              		.loc 1 47 5
 143              		.loc 1 47 9 is_stmt 0
 144 00e0 13090000 		li	s2,0
 145 00e4 6F00C000 		j	.L8
 146              	.LVL18:
 147              	.L12:
  48:test/../test/ConsumerProducer_C_API_test.h ****     while (!threadEnd) {
  49:test/../test/ConsumerProducer_C_API_test.h ****         data->buffer->put(data->id + '0');
  50:test/../test/ConsumerProducer_C_API_test.h ****         i++;
  51:test/../test/ConsumerProducer_C_API_test.h **** 
  52:test/../test/ConsumerProducer_C_API_test.h ****         if (i % (10 * data->id) == 0) {
  53:test/../test/ConsumerProducer_C_API_test.h ****             thread_dispatch();
 148              		.loc 1 53 13 is_stmt 1
 149              		.loc 1 53 28 is_stmt 0
 150 00e8 97000000 		call	thread_dispatch@plt
 150      E7800000 
 151              	.LVL19:
 152              	.L8:
  48:test/../test/ConsumerProducer_C_API_test.h ****     while (!threadEnd) {
 153              		.loc 1 48 5 is_stmt 1
  48:test/../test/ConsumerProducer_C_API_test.h ****     while (!threadEnd) {
 154              		.loc 1 48 12
GAS LISTING /tmp/cc673G5Z.s 			page 5


 155 00f0 97070000 		lw	a5,.LANCHOR0
 155      83A70700 
 156 00f8 639E0702 		bnez	a5,.L9
  49:test/../test/ConsumerProducer_C_API_test.h ****         i++;
 157              		.loc 1 49 9
  49:test/../test/ConsumerProducer_C_API_test.h ****         i++;
 158              		.loc 1 49 33 is_stmt 0
 159 00fc 83A50400 		lw	a1,0(s1)
  49:test/../test/ConsumerProducer_C_API_test.h ****         i++;
 160              		.loc 1 49 26
 161 0100 9B850503 		addiw	a1,a1,48
 162 0104 03B58400 		ld	a0,8(s1)
 163 0108 97000000 		call	_ZN6Buffer3putEi@plt
 163      E7800000 
 164              	.LVL20:
  50:test/../test/ConsumerProducer_C_API_test.h **** 
 165              		.loc 1 50 9 is_stmt 1
  50:test/../test/ConsumerProducer_C_API_test.h **** 
 166              		.loc 1 50 10 is_stmt 0
 167 0110 1B071900 		addiw	a4,s2,1
 168 0114 1B090700 		sext.w	s2,a4
 169              	.LVL21:
  52:test/../test/ConsumerProducer_C_API_test.h ****             thread_dispatch();
 170              		.loc 1 52 9 is_stmt 1
  52:test/../test/ConsumerProducer_C_API_test.h ****             thread_dispatch();
 171              		.loc 1 52 29 is_stmt 0
 172 0118 83A60400 		lw	a3,0(s1)
  52:test/../test/ConsumerProducer_C_API_test.h ****             thread_dispatch();
 173              		.loc 1 52 21
 174 011c 9B972600 		slliw	a5,a3,2
 175 0120 BB87D700 		addw	a5,a5,a3
 176 0124 9B971700 		slliw	a5,a5,1
  52:test/../test/ConsumerProducer_C_API_test.h ****             thread_dispatch();
 177              		.loc 1 52 15
 178 0128 BB67F702 		remw	a5,a4,a5
  52:test/../test/ConsumerProducer_C_API_test.h ****             thread_dispatch();
 179              		.loc 1 52 9
 180 012c E39207FC 		bnez	a5,.L8
 181 0130 6FF09FFB 		j	.L12
 182              	.LVL22:
 183              	.L9:
  54:test/../test/ConsumerProducer_C_API_test.h ****         }
  55:test/../test/ConsumerProducer_C_API_test.h ****     }
  56:test/../test/ConsumerProducer_C_API_test.h **** 
  57:test/../test/ConsumerProducer_C_API_test.h ****     printInt((uint64)data->wait);
 184              		.loc 1 57 5 is_stmt 1
 185              		.loc 1 57 13 is_stmt 0
 186 0134 13060000 		li	a2,0
 187 0138 9305A000 		li	a1,10
 188 013c 03A50401 		lw	a0,16(s1)
 189 0140 97000000 		call	_Z8printIntiii@plt
 189      E7800000 
 190              	.LVL23:
  58:test/../test/ConsumerProducer_C_API_test.h **** 
  59:test/../test/ConsumerProducer_C_API_test.h ****     sem_signal(data->wait);
 191              		.loc 1 59 5 is_stmt 1
 192              		.loc 1 59 15 is_stmt 0
GAS LISTING /tmp/cc673G5Z.s 			page 6


 193 0148 03B50401 		ld	a0,16(s1)
 194 014c 97000000 		call	sem_signal@plt
 194      E7800000 
 195              	.LVL24:
  60:test/../test/ConsumerProducer_C_API_test.h **** }
 196              		.loc 1 60 1
 197 0154 83308101 		ld	ra,24(sp)
 198              		.cfi_restore 1
 199 0158 03340101 		ld	s0,16(sp)
 200              		.cfi_restore 8
 201              		.cfi_def_cfa 2, 32
 202 015c 83348100 		ld	s1,8(sp)
 203              		.cfi_restore 9
 204              	.LVL25:
 205 0160 03390100 		ld	s2,0(sp)
 206              		.cfi_restore 18
 207              	.LVL26:
 208 0164 13010102 		addi	sp,sp,32
 209              		.cfi_def_cfa_offset 0
 210 0168 67800000 		jr	ra
 211              		.cfi_endproc
 212              	.LFE1:
 214              		.align	2
 215              		.globl	_Z8consumerPv
 217              	_Z8consumerPv:
 218              	.LFB2:
  61:test/../test/ConsumerProducer_C_API_test.h **** 
  62:test/../test/ConsumerProducer_C_API_test.h **** void consumer(void *arg) {
 219              		.loc 1 62 26 is_stmt 1
 220              		.cfi_startproc
 221              	.LVL27:
 222 016c 130101FD 		addi	sp,sp,-48
 223              		.cfi_def_cfa_offset 48
 224 0170 23341102 		sd	ra,40(sp)
 225 0174 23308102 		sd	s0,32(sp)
 226 0178 233C9100 		sd	s1,24(sp)
 227 017c 23382101 		sd	s2,16(sp)
 228 0180 23343101 		sd	s3,8(sp)
 229              		.cfi_offset 1, -8
 230              		.cfi_offset 8, -16
 231              		.cfi_offset 9, -24
 232              		.cfi_offset 18, -32
 233              		.cfi_offset 19, -40
 234 0184 13040103 		addi	s0,sp,48
 235              		.cfi_def_cfa 8, 0
 236 0188 13090500 		mv	s2,a0
  63:test/../test/ConsumerProducer_C_API_test.h ****     struct thread_data *data = (struct thread_data *) arg;
 237              		.loc 1 63 5
 238              	.LVL28:
  64:test/../test/ConsumerProducer_C_API_test.h **** 
  65:test/../test/ConsumerProducer_C_API_test.h ****     int i = 0;
 239              		.loc 1 65 5
 240              		.loc 1 65 9 is_stmt 0
 241 018c 93090000 		li	s3,0
 242 0190 6F00C001 		j	.L14
 243              	.LVL29:
 244              	.L20:
GAS LISTING /tmp/cc673G5Z.s 			page 7


 245              	.LBB2:
  66:test/../test/ConsumerProducer_C_API_test.h ****     while (!threadEnd) {
  67:test/../test/ConsumerProducer_C_API_test.h ****         int key = data->buffer->get();
  68:test/../test/ConsumerProducer_C_API_test.h ****         i++;
  69:test/../test/ConsumerProducer_C_API_test.h **** 
  70:test/../test/ConsumerProducer_C_API_test.h ****         putc(key);
  71:test/../test/ConsumerProducer_C_API_test.h **** 
  72:test/../test/ConsumerProducer_C_API_test.h ****         if (i % (5 * data->id) == 0) {
  73:test/../test/ConsumerProducer_C_API_test.h ****             thread_dispatch();
 246              		.loc 1 73 13 is_stmt 1
 247              		.loc 1 73 28 is_stmt 0
 248 0194 97000000 		call	thread_dispatch@plt
 248      E7800000 
 249              	.LVL30:
 250 019c 6F000005 		j	.L16
 251              	.LVL31:
 252              	.L21:
  74:test/../test/ConsumerProducer_C_API_test.h ****         }
  75:test/../test/ConsumerProducer_C_API_test.h **** 
  76:test/../test/ConsumerProducer_C_API_test.h ****         if (i % 80 == 0) {
  77:test/../test/ConsumerProducer_C_API_test.h ****             putc('\n');
 253              		.loc 1 77 13 is_stmt 1
 254              		.loc 1 77 17 is_stmt 0
 255 01a0 1305A000 		li	a0,10
 256 01a4 97000000 		call	putc@plt
 256      E7800000 
 257              	.LVL32:
 258              	.L14:
 259              	.LBE2:
  66:test/../test/ConsumerProducer_C_API_test.h ****     while (!threadEnd) {
 260              		.loc 1 66 5 is_stmt 1
  66:test/../test/ConsumerProducer_C_API_test.h ****     while (!threadEnd) {
 261              		.loc 1 66 12
 262 01ac 97070000 		lw	a5,.LANCHOR0
 262      83A70700 
 263 01b4 63900706 		bnez	a5,.L15
 264              	.LBB3:
  67:test/../test/ConsumerProducer_C_API_test.h ****         i++;
 265              		.loc 1 67 9
  67:test/../test/ConsumerProducer_C_API_test.h ****         i++;
 266              		.loc 1 67 36 is_stmt 0
 267 01b8 03358900 		ld	a0,8(s2)
 268 01bc 97000000 		call	_ZN6Buffer3getEv@plt
 268      E7800000 
 269              	.LVL33:
  68:test/../test/ConsumerProducer_C_API_test.h **** 
 270              		.loc 1 68 9 is_stmt 1
  68:test/../test/ConsumerProducer_C_API_test.h **** 
 271              		.loc 1 68 10 is_stmt 0
 272 01c4 9B841900 		addiw	s1,s3,1
 273 01c8 9B890400 		sext.w	s3,s1
 274              	.LVL34:
  70:test/../test/ConsumerProducer_C_API_test.h **** 
 275              		.loc 1 70 9 is_stmt 1
  70:test/../test/ConsumerProducer_C_API_test.h **** 
 276              		.loc 1 70 13 is_stmt 0
 277 01cc 1375F50F 		andi	a0,a0,0xff
GAS LISTING /tmp/cc673G5Z.s 			page 8


 278              	.LVL35:
 279 01d0 97000000 		call	putc@plt
 279      E7800000 
 280              	.LVL36:
  72:test/../test/ConsumerProducer_C_API_test.h ****             thread_dispatch();
 281              		.loc 1 72 9 is_stmt 1
  72:test/../test/ConsumerProducer_C_API_test.h ****             thread_dispatch();
 282              		.loc 1 72 28 is_stmt 0
 283 01d8 03270900 		lw	a4,0(s2)
  72:test/../test/ConsumerProducer_C_API_test.h ****             thread_dispatch();
 284              		.loc 1 72 20
 285 01dc 9B172700 		slliw	a5,a4,2
 286 01e0 BB87E700 		addw	a5,a5,a4
  72:test/../test/ConsumerProducer_C_API_test.h ****             thread_dispatch();
 287              		.loc 1 72 15
 288 01e4 BBE7F402 		remw	a5,s1,a5
  72:test/../test/ConsumerProducer_C_API_test.h ****             thread_dispatch();
 289              		.loc 1 72 9
 290 01e8 E38607FA 		beqz	a5,.L20
 291              	.L16:
  76:test/../test/ConsumerProducer_C_API_test.h ****             putc('\n');
 292              		.loc 1 76 9 is_stmt 1
  76:test/../test/ConsumerProducer_C_API_test.h ****             putc('\n');
 293              		.loc 1 76 15 is_stmt 0
 294 01ec 93070005 		li	a5,80
 295 01f0 BBE4F402 		remw	s1,s1,a5
 296              	.LVL37:
  76:test/../test/ConsumerProducer_C_API_test.h ****             putc('\n');
 297              		.loc 1 76 9
 298 01f4 E39C04FA 		bnez	s1,.L14
 299 01f8 6FF09FFA 		j	.L21
 300              	.L22:
 301              	.LBE3:
 302              	.LBB4:
  78:test/../test/ConsumerProducer_C_API_test.h ****         }
  79:test/../test/ConsumerProducer_C_API_test.h ****     }
  80:test/../test/ConsumerProducer_C_API_test.h **** 
  81:test/../test/ConsumerProducer_C_API_test.h ****     while (data->buffer->getCnt() > 0) {
  82:test/../test/ConsumerProducer_C_API_test.h ****         int key = data->buffer->get();
 303              		.loc 1 82 9 is_stmt 1
 304              		.loc 1 82 36 is_stmt 0
 305 01fc 03358900 		ld	a0,8(s2)
 306 0200 97000000 		call	_ZN6Buffer3getEv@plt
 306      E7800000 
 307              	.LVL38:
  83:test/../test/ConsumerProducer_C_API_test.h ****         putc(key);
 308              		.loc 1 83 9 is_stmt 1
 309              		.loc 1 83 13 is_stmt 0
 310 0208 1375F50F 		andi	a0,a0,0xff
 311              	.LVL39:
 312 020c 97000000 		call	putc@plt
 312      E7800000 
 313              	.LVL40:
 314              	.L15:
 315              	.LBE4:
  81:test/../test/ConsumerProducer_C_API_test.h ****         int key = data->buffer->get();
 316              		.loc 1 81 5 is_stmt 1
GAS LISTING /tmp/cc673G5Z.s 			page 9


  81:test/../test/ConsumerProducer_C_API_test.h ****         int key = data->buffer->get();
 317              		.loc 1 81 35
  81:test/../test/ConsumerProducer_C_API_test.h ****         int key = data->buffer->get();
 318              		.loc 1 81 32 is_stmt 0
 319 0214 03358900 		ld	a0,8(s2)
 320 0218 97000000 		call	_ZN6Buffer6getCntEv@plt
 320      E7800000 
 321              	.LVL41:
  81:test/../test/ConsumerProducer_C_API_test.h ****         int key = data->buffer->get();
 322              		.loc 1 81 35
 323 0220 E34EA0FC 		bgtz	a0,.L22
  84:test/../test/ConsumerProducer_C_API_test.h ****     }
  85:test/../test/ConsumerProducer_C_API_test.h **** 
  86:test/../test/ConsumerProducer_C_API_test.h ****     printInt((uint64)data->wait);
 324              		.loc 1 86 5 is_stmt 1
 325              		.loc 1 86 13 is_stmt 0
 326 0224 13060000 		li	a2,0
 327 0228 9305A000 		li	a1,10
 328 022c 03250901 		lw	a0,16(s2)
 329 0230 97000000 		call	_Z8printIntiii@plt
 329      E7800000 
 330              	.LVL42:
  87:test/../test/ConsumerProducer_C_API_test.h **** 
  88:test/../test/ConsumerProducer_C_API_test.h ****     sem_signal(data->wait);
 331              		.loc 1 88 5 is_stmt 1
 332              		.loc 1 88 15 is_stmt 0
 333 0238 03350901 		ld	a0,16(s2)
 334 023c 97000000 		call	sem_signal@plt
 334      E7800000 
 335              	.LVL43:
  89:test/../test/ConsumerProducer_C_API_test.h **** }
 336              		.loc 1 89 1
 337 0244 83308102 		ld	ra,40(sp)
 338              		.cfi_restore 1
 339 0248 03340102 		ld	s0,32(sp)
 340              		.cfi_restore 8
 341              		.cfi_def_cfa 2, 48
 342 024c 83348101 		ld	s1,24(sp)
 343              		.cfi_restore 9
 344 0250 03390101 		ld	s2,16(sp)
 345              		.cfi_restore 18
 346              	.LVL44:
 347 0254 83398100 		ld	s3,8(sp)
 348              		.cfi_restore 19
 349              	.LVL45:
 350 0258 13010103 		addi	sp,sp,48
 351              		.cfi_def_cfa_offset 0
 352 025c 67800000 		jr	ra
 353              		.cfi_endproc
 354              	.LFE2:
 356              		.section	.rodata.str1.8,"aMS",@progbits,1
 357              		.align	3
 358              	.LC0:
 359 0000 556E6573 		.string	"Unesite broj proizvodjaca?\n"
 359      69746520 
 359      62726F6A 
 359      2070726F 
GAS LISTING /tmp/cc673G5Z.s 			page 10


 359      697A766F 
 360 001c 00000000 		.align	3
 361              	.LC1:
 362 0020 556E6573 		.string	"Unesite velicinu bafera?\n"
 362      69746520 
 362      76656C69 
 362      63696E75 
 362      20626166 
 363 003a 00000000 		.align	3
 363      0000
 364              	.LC2:
 365 0040 42726F6A 		.string	"Broj proizvodjaca "
 365      2070726F 
 365      697A766F 
 365      646A6163 
 365      612000
 366 0053 00000000 		.align	3
 366      00
 367              	.LC3:
 368 0058 20692076 		.string	" i velicina bafera "
 368      656C6963 
 368      696E6120 
 368      62616665 
 368      72612000 
 369 006c 00000000 		.align	3
 370              	.LC4:
 371 0070 2E0A00   		.string	".\n"
 372 0073 00000000 		.align	3
 372      00
 373              	.LC5:
 374 0078 42726F6A 		.string	"Broj proizvodjaca ne sme biti manji od velicine bafera!\n"
 374      2070726F 
 374      697A766F 
 374      646A6163 
 374      61206E65 
 375 00b1 00000000 		.align	3
 375      000000
 376              	.LC6:
 377 00b8 42726F6A 		.string	"Broj proizvodjaca mora biti veci od nula!\n"
 377      2070726F 
 377      697A766F 
 377      646A6163 
 377      61206D6F 
 378 00e3 00000000 		.align	3
 378      00
 379              	.LC7:
 380 00e8 68657265 		.string	"here1\n"
 380      310A00
 381 00ef 00       		.align	3
 382              	.LC8:
 383 00f0 68657265 		.string	"here2\n"
 383      320A00
 384              		.text
 385              		.align	2
 386              		.globl	_Z22producerConsumer_C_APIv
 388              	_Z22producerConsumer_C_APIv:
 389              	.LFB3:
GAS LISTING /tmp/cc673G5Z.s 			page 11


  90:test/../test/ConsumerProducer_C_API_test.h **** 
  91:test/../test/ConsumerProducer_C_API_test.h **** void producerConsumer_C_API() {
 390              		.loc 1 91 31 is_stmt 1
 391              		.cfi_startproc
 392              		.cfi_personality 0x9b,DW.ref.__gxx_personality_v0
 393              		.cfi_lsda 0x1b,.LLSDA3
 394 0260 130101F9 		addi	sp,sp,-112
 395              		.cfi_def_cfa_offset 112
 396 0264 23341106 		sd	ra,104(sp)
 397 0268 23308106 		sd	s0,96(sp)
 398 026c 233C9104 		sd	s1,88(sp)
 399 0270 23382105 		sd	s2,80(sp)
 400 0274 23343105 		sd	s3,72(sp)
 401 0278 23304105 		sd	s4,64(sp)
 402 027c 233C5103 		sd	s5,56(sp)
 403 0280 23386103 		sd	s6,48(sp)
 404              		.cfi_offset 1, -8
 405              		.cfi_offset 8, -16
 406              		.cfi_offset 9, -24
 407              		.cfi_offset 18, -32
 408              		.cfi_offset 19, -40
 409              		.cfi_offset 20, -48
 410              		.cfi_offset 21, -56
 411              		.cfi_offset 22, -64
 412 0284 13040107 		addi	s0,sp,112
 413              		.cfi_def_cfa 8, 0
  92:test/../test/ConsumerProducer_C_API_test.h ****     char input[30];
  93:test/../test/ConsumerProducer_C_API_test.h ****     int n, threadNum;
  94:test/../test/ConsumerProducer_C_API_test.h **** 
  95:test/../test/ConsumerProducer_C_API_test.h ****     printString("Unesite broj proizvodjaca?\n");
  96:test/../test/ConsumerProducer_C_API_test.h ****     getString(input, 30);
  97:test/../test/ConsumerProducer_C_API_test.h ****     threadNum = stringToInt(input);
  98:test/../test/ConsumerProducer_C_API_test.h **** 
  99:test/../test/ConsumerProducer_C_API_test.h ****     printString("Unesite velicinu bafera?\n");
 100:test/../test/ConsumerProducer_C_API_test.h ****     getString(input, 30);
 101:test/../test/ConsumerProducer_C_API_test.h ****     n = stringToInt(input);
 102:test/../test/ConsumerProducer_C_API_test.h **** 
 103:test/../test/ConsumerProducer_C_API_test.h ****     printString("Broj proizvodjaca "); printInt(threadNum);
 104:test/../test/ConsumerProducer_C_API_test.h ****     printString(" i velicina bafera "); printInt(n);
 105:test/../test/ConsumerProducer_C_API_test.h ****     printString(".\n");
 106:test/../test/ConsumerProducer_C_API_test.h **** 
 107:test/../test/ConsumerProducer_C_API_test.h ****     if(threadNum > n) {
 108:test/../test/ConsumerProducer_C_API_test.h ****         printString("Broj proizvodjaca ne sme biti manji od velicine bafera!\n");
 109:test/../test/ConsumerProducer_C_API_test.h ****         return;
 110:test/../test/ConsumerProducer_C_API_test.h ****     } else if (threadNum < 1) {
 111:test/../test/ConsumerProducer_C_API_test.h ****         printString("Broj proizvodjaca mora biti veci od nula!\n");
 112:test/../test/ConsumerProducer_C_API_test.h ****         return;
 113:test/../test/ConsumerProducer_C_API_test.h ****     }
 114:test/../test/ConsumerProducer_C_API_test.h **** 
 115:test/../test/ConsumerProducer_C_API_test.h ****     Buffer *buffer = new Buffer(n);
 116:test/../test/ConsumerProducer_C_API_test.h **** 
 117:test/../test/ConsumerProducer_C_API_test.h ****     sem_open(&waitForAll, 0);
 118:test/../test/ConsumerProducer_C_API_test.h **** 
 119:test/../test/ConsumerProducer_C_API_test.h ****     printInt((uint64)waitForAll);
 120:test/../test/ConsumerProducer_C_API_test.h **** 
 121:test/../test/ConsumerProducer_C_API_test.h ****     thread_t threads[threadNum];
 122:test/../test/ConsumerProducer_C_API_test.h ****     thread_t consumerThread;
GAS LISTING /tmp/cc673G5Z.s 			page 12


 123:test/../test/ConsumerProducer_C_API_test.h **** 
 124:test/../test/ConsumerProducer_C_API_test.h ****     struct thread_data data[threadNum + 1];
 125:test/../test/ConsumerProducer_C_API_test.h **** 
 126:test/../test/ConsumerProducer_C_API_test.h ****     data[threadNum].id = threadNum;
 127:test/../test/ConsumerProducer_C_API_test.h ****     data[threadNum].buffer = buffer;
 128:test/../test/ConsumerProducer_C_API_test.h ****     data[threadNum].wait = waitForAll;
 129:test/../test/ConsumerProducer_C_API_test.h ****     thread_create(&consumerThread, consumer, data + threadNum);
 130:test/../test/ConsumerProducer_C_API_test.h **** 
 131:test/../test/ConsumerProducer_C_API_test.h ****     for (int i = 0; i < threadNum; i++) {
 132:test/../test/ConsumerProducer_C_API_test.h ****         data[i].id = i;
 133:test/../test/ConsumerProducer_C_API_test.h ****         data[i].buffer = buffer;
 134:test/../test/ConsumerProducer_C_API_test.h ****         data[i].wait = waitForAll;
 135:test/../test/ConsumerProducer_C_API_test.h **** 
 136:test/../test/ConsumerProducer_C_API_test.h ****         thread_create(threads + i,
 137:test/../test/ConsumerProducer_C_API_test.h ****                       i > 0 ? producer : producerKeyboard,
 138:test/../test/ConsumerProducer_C_API_test.h ****                       data + i);
 139:test/../test/ConsumerProducer_C_API_test.h ****     }
 140:test/../test/ConsumerProducer_C_API_test.h **** 
 141:test/../test/ConsumerProducer_C_API_test.h ****     printString("here1\n");
 142:test/../test/ConsumerProducer_C_API_test.h **** 
 143:test/../test/ConsumerProducer_C_API_test.h ****     thread_dispatch();
 144:test/../test/ConsumerProducer_C_API_test.h **** 
 145:test/../test/ConsumerProducer_C_API_test.h ****     printString("here2\n");
 146:test/../test/ConsumerProducer_C_API_test.h **** 
 147:test/../test/ConsumerProducer_C_API_test.h ****     for (int i = 0; i <= threadNum; i++) {
 148:test/../test/ConsumerProducer_C_API_test.h ****         sem_wait(waitForAll);
 149:test/../test/ConsumerProducer_C_API_test.h ****     }
 150:test/../test/ConsumerProducer_C_API_test.h **** 
 151:test/../test/ConsumerProducer_C_API_test.h **** 
 152:test/../test/ConsumerProducer_C_API_test.h ****     sem_close(waitForAll);
 153:test/../test/ConsumerProducer_C_API_test.h **** 
 154:test/../test/ConsumerProducer_C_API_test.h ****     delete buffer;
 414              		.loc 1 154 18 is_stmt 0
 415 0288 130B0100 		mv	s6,sp
  92:test/../test/ConsumerProducer_C_API_test.h ****     char input[30];
 416              		.loc 1 92 5 is_stmt 1
  93:test/../test/ConsumerProducer_C_API_test.h **** 
 417              		.loc 1 93 5
  95:test/../test/ConsumerProducer_C_API_test.h ****     getString(input, 30);
 418              		.loc 1 95 5
  95:test/../test/ConsumerProducer_C_API_test.h ****     getString(input, 30);
 419              		.loc 1 95 16 is_stmt 0
 420 028c 17050000 		lla	a0,.LC0
 420      13050500 
 421              	.LEHB0:
 422 0294 97000000 		call	_Z11printStringPKc@plt
 422      E7800000 
 423              	.LVL46:
  96:test/../test/ConsumerProducer_C_API_test.h ****     threadNum = stringToInt(input);
 424              		.loc 1 96 5 is_stmt 1
  96:test/../test/ConsumerProducer_C_API_test.h ****     threadNum = stringToInt(input);
 425              		.loc 1 96 14 is_stmt 0
 426 029c 9305E001 		li	a1,30
 427 02a0 930404FA 		addi	s1,s0,-96
 428 02a4 13850400 		mv	a0,s1
 429 02a8 97000000 		call	_Z9getStringPci@plt
 429      E7800000 
GAS LISTING /tmp/cc673G5Z.s 			page 13


 430              	.LVL47:
  97:test/../test/ConsumerProducer_C_API_test.h **** 
 431              		.loc 1 97 5 is_stmt 1
  97:test/../test/ConsumerProducer_C_API_test.h **** 
 432              		.loc 1 97 28 is_stmt 0
 433 02b0 13850400 		mv	a0,s1
 434 02b4 97000000 		call	_Z11stringToIntPKc@plt
 434      E7800000 
 435              	.LVL48:
 436 02bc 13090500 		mv	s2,a0
 437              	.LVL49:
  99:test/../test/ConsumerProducer_C_API_test.h ****     getString(input, 30);
 438              		.loc 1 99 5 is_stmt 1
  99:test/../test/ConsumerProducer_C_API_test.h ****     getString(input, 30);
 439              		.loc 1 99 16 is_stmt 0
 440 02c0 17050000 		lla	a0,.LC1
 440      13050500 
 441 02c8 97000000 		call	_Z11printStringPKc@plt
 441      E7800000 
 442              	.LVL50:
 100:test/../test/ConsumerProducer_C_API_test.h ****     n = stringToInt(input);
 443              		.loc 1 100 5 is_stmt 1
 100:test/../test/ConsumerProducer_C_API_test.h ****     n = stringToInt(input);
 444              		.loc 1 100 14 is_stmt 0
 445 02d0 9305E001 		li	a1,30
 446 02d4 13850400 		mv	a0,s1
 447 02d8 97000000 		call	_Z9getStringPci@plt
 447      E7800000 
 448              	.LVL51:
 101:test/../test/ConsumerProducer_C_API_test.h **** 
 449              		.loc 1 101 5 is_stmt 1
 101:test/../test/ConsumerProducer_C_API_test.h **** 
 450              		.loc 1 101 20 is_stmt 0
 451 02e0 13850400 		mv	a0,s1
 452 02e4 97000000 		call	_Z11stringToIntPKc@plt
 452      E7800000 
 453              	.LVL52:
 454 02ec 93040500 		mv	s1,a0
 455              	.LVL53:
 103:test/../test/ConsumerProducer_C_API_test.h ****     printString(" i velicina bafera "); printInt(n);
 456              		.loc 1 103 5 is_stmt 1
 103:test/../test/ConsumerProducer_C_API_test.h ****     printString(" i velicina bafera "); printInt(n);
 457              		.loc 1 103 16 is_stmt 0
 458 02f0 17050000 		lla	a0,.LC2
 458      13050500 
 459 02f8 97000000 		call	_Z11printStringPKc@plt
 459      E7800000 
 460              	.LVL54:
 103:test/../test/ConsumerProducer_C_API_test.h ****     printString(" i velicina bafera "); printInt(n);
 461              		.loc 1 103 40 is_stmt 1
 103:test/../test/ConsumerProducer_C_API_test.h ****     printString(" i velicina bafera "); printInt(n);
 462              		.loc 1 103 48 is_stmt 0
 463 0300 13060000 		li	a2,0
 464 0304 9305A000 		li	a1,10
 465 0308 13050900 		mv	a0,s2
 466 030c 97000000 		call	_Z8printIntiii@plt
 466      E7800000 
GAS LISTING /tmp/cc673G5Z.s 			page 14


 467              	.LVL55:
 104:test/../test/ConsumerProducer_C_API_test.h ****     printString(".\n");
 468              		.loc 1 104 5 is_stmt 1
 104:test/../test/ConsumerProducer_C_API_test.h ****     printString(".\n");
 469              		.loc 1 104 16 is_stmt 0
 470 0314 17050000 		lla	a0,.LC3
 470      13050500 
 471 031c 97000000 		call	_Z11printStringPKc@plt
 471      E7800000 
 472              	.LVL56:
 104:test/../test/ConsumerProducer_C_API_test.h ****     printString(".\n");
 473              		.loc 1 104 41 is_stmt 1
 104:test/../test/ConsumerProducer_C_API_test.h ****     printString(".\n");
 474              		.loc 1 104 49 is_stmt 0
 475 0324 13060000 		li	a2,0
 476 0328 9305A000 		li	a1,10
 477 032c 13850400 		mv	a0,s1
 478 0330 97000000 		call	_Z8printIntiii@plt
 478      E7800000 
 479              	.LVL57:
 105:test/../test/ConsumerProducer_C_API_test.h **** 
 480              		.loc 1 105 5 is_stmt 1
 105:test/../test/ConsumerProducer_C_API_test.h **** 
 481              		.loc 1 105 16 is_stmt 0
 482 0338 17050000 		lla	a0,.LC4
 482      13050500 
 483 0340 97000000 		call	_Z11printStringPKc@plt
 483      E7800000 
 484              	.LVL58:
 107:test/../test/ConsumerProducer_C_API_test.h ****         printString("Broj proizvodjaca ne sme biti manji od velicine bafera!\n");
 485              		.loc 1 107 5 is_stmt 1
 486 0348 63C42403 		bgt	s2,s1,.L38
 110:test/../test/ConsumerProducer_C_API_test.h ****         printString("Broj proizvodjaca mora biti veci od nula!\n");
 487              		.loc 1 110 12
 488 034c 635C2003 		blez	s2,.L39
 115:test/../test/ConsumerProducer_C_API_test.h **** 
 489              		.loc 1 115 5
 115:test/../test/ConsumerProducer_C_API_test.h **** 
 490              		.loc 1 115 34 is_stmt 0
 491 0350 13058003 		li	a0,56
 492 0354 97000000 		call	_Znwm@plt
 492      E7800000 
 493              	.LVL59:
 494              	.LEHE0:
 495 035c 130A0500 		mv	s4,a0
 496 0360 93850400 		mv	a1,s1
 497              	.LEHB1:
 498 0364 97000000 		call	_ZN6BufferC1Ei@plt
 498      E7800000 
 499              	.LVL60:
 500              	.LEHE1:
 501 036c 6F000003 		j	.L40
 502              	.L38:
 108:test/../test/ConsumerProducer_C_API_test.h ****         return;
 503              		.loc 1 108 9 is_stmt 1
 108:test/../test/ConsumerProducer_C_API_test.h ****         return;
 504              		.loc 1 108 20 is_stmt 0
GAS LISTING /tmp/cc673G5Z.s 			page 15


 505 0370 17050000 		lla	a0,.LC5
 505      13050500 
 506              	.LEHB2:
 507 0378 97000000 		call	_Z11printStringPKc@plt
 507      E7800000 
 508              	.LVL61:
 109:test/../test/ConsumerProducer_C_API_test.h ****     } else if (threadNum < 1) {
 509              		.loc 1 109 9 is_stmt 1
 510 0380 6F004001 		j	.L25
 511              	.L39:
 111:test/../test/ConsumerProducer_C_API_test.h ****         return;
 512              		.loc 1 111 9
 111:test/../test/ConsumerProducer_C_API_test.h ****         return;
 513              		.loc 1 111 20 is_stmt 0
 514 0384 17050000 		lla	a0,.LC6
 514      13050500 
 515 038c 97000000 		call	_Z11printStringPKc@plt
 515      E7800000 
 516              	.LVL62:
 112:test/../test/ConsumerProducer_C_API_test.h ****     }
 517              		.loc 1 112 9 is_stmt 1
 518              	.L25:
 519 0394 13010B00 		mv	sp,s6
 520 0398 6F008018 		j	.L23
 521              	.L40:
 522              	.LVL63:
 117:test/../test/ConsumerProducer_C_API_test.h **** 
 523              		.loc 1 117 5 discriminator 3
 117:test/../test/ConsumerProducer_C_API_test.h **** 
 524              		.loc 1 117 13 is_stmt 0 discriminator 3
 525 039c 97040000 		lla	s1,.LANCHOR0
 525      93840400 
 526              	.LVL64:
 527 03a4 93050000 		li	a1,0
 528 03a8 17050000 		lla	a0,.LANCHOR0+8
 528      13050500 
 529 03b0 97000000 		call	sem_open@plt
 529      E7800000 
 530              	.LVL65:
 119:test/../test/ConsumerProducer_C_API_test.h **** 
 531              		.loc 1 119 5 is_stmt 1 discriminator 3
 119:test/../test/ConsumerProducer_C_API_test.h **** 
 532              		.loc 1 119 13 is_stmt 0 discriminator 3
 533 03b8 13060000 		li	a2,0
 534 03bc 9305A000 		li	a1,10
 535 03c0 03A58400 		lw	a0,8(s1)
 536 03c4 97000000 		call	_Z8printIntiii@plt
 536      E7800000 
 537              	.LVL66:
 121:test/../test/ConsumerProducer_C_API_test.h ****     thread_t consumerThread;
 538              		.loc 1 121 5 is_stmt 1 discriminator 3
 121:test/../test/ConsumerProducer_C_API_test.h ****     thread_t consumerThread;
 539              		.loc 1 121 14 is_stmt 0 discriminator 3
 540 03cc 93173900 		slli	a5,s2,3
 541 03d0 9387F700 		addi	a5,a5,15
 542 03d4 93F707FF 		andi	a5,a5,-16
 543 03d8 3301F140 		sub	sp,sp,a5
GAS LISTING /tmp/cc673G5Z.s 			page 16


 544 03dc 930A0100 		mv	s5,sp
 545              	.LVL67:
 122:test/../test/ConsumerProducer_C_API_test.h **** 
 546              		.loc 1 122 5 is_stmt 1 discriminator 3
 124:test/../test/ConsumerProducer_C_API_test.h **** 
 547              		.loc 1 124 5 discriminator 3
 124:test/../test/ConsumerProducer_C_API_test.h **** 
 548              		.loc 1 124 39 is_stmt 0 discriminator 3
 549 03e0 1B071900 		addiw	a4,s2,1
 550              	.LVL68:
 124:test/../test/ConsumerProducer_C_API_test.h **** 
 551              		.loc 1 124 24 discriminator 3
 552 03e4 93171700 		slli	a5,a4,1
 553 03e8 B387E700 		add	a5,a5,a4
 554 03ec 93973700 		slli	a5,a5,3
 555 03f0 9387F700 		addi	a5,a5,15
 556 03f4 93F707FF 		andi	a5,a5,-16
 557 03f8 3301F140 		sub	sp,sp,a5
 558              	.LVL69:
 559 03fc 93090100 		mv	s3,sp
 560              	.LVL70:
 126:test/../test/ConsumerProducer_C_API_test.h ****     data[threadNum].buffer = buffer;
 561              		.loc 1 126 5 is_stmt 1 discriminator 3
 126:test/../test/ConsumerProducer_C_API_test.h ****     data[threadNum].buffer = buffer;
 562              		.loc 1 126 24 is_stmt 0 discriminator 3
 563 0400 13161900 		slli	a2,s2,1
 564 0404 B3072601 		add	a5,a2,s2
 565 0408 93973700 		slli	a5,a5,3
 566 040c B387F900 		add	a5,s3,a5
 567 0410 23A02701 		sw	s2,0(a5)
 127:test/../test/ConsumerProducer_C_API_test.h ****     data[threadNum].wait = waitForAll;
 568              		.loc 1 127 5 is_stmt 1 discriminator 3
 127:test/../test/ConsumerProducer_C_API_test.h ****     data[threadNum].wait = waitForAll;
 569              		.loc 1 127 28 is_stmt 0 discriminator 3
 570 0414 23B44701 		sd	s4,8(a5)
 128:test/../test/ConsumerProducer_C_API_test.h ****     thread_create(&consumerThread, consumer, data + threadNum);
 571              		.loc 1 128 5 is_stmt 1 discriminator 3
 128:test/../test/ConsumerProducer_C_API_test.h ****     thread_create(&consumerThread, consumer, data + threadNum);
 572              		.loc 1 128 26 is_stmt 0 discriminator 3
 573 0418 03B78400 		ld	a4,8(s1)
 574 041c 23B8E700 		sd	a4,16(a5)
 129:test/../test/ConsumerProducer_C_API_test.h **** 
 575              		.loc 1 129 5 is_stmt 1 discriminator 3
 129:test/../test/ConsumerProducer_C_API_test.h **** 
 576              		.loc 1 129 18 is_stmt 0 discriminator 3
 577 0420 13860700 		mv	a2,a5
 578 0424 97050000 		lla	a1,_Z8consumerPv
 578      93850500 
 579 042c 130584F9 		addi	a0,s0,-104
 580 0430 97000000 		call	thread_create@plt
 580      E7800000 
 581              	.LVL71:
 582              	.LBB5:
 131:test/../test/ConsumerProducer_C_API_test.h ****         data[i].id = i;
 583              		.loc 1 131 14 discriminator 3
 584 0438 93040000 		li	s1,0
 585 043c 6F008002 		j	.L29
GAS LISTING /tmp/cc673G5Z.s 			page 17


 586              	.LVL72:
 587              	.L35:
 136:test/../test/ConsumerProducer_C_API_test.h ****                       i > 0 ? producer : producerKeyboard,
 588              		.loc 1 136 22
 589 0440 97050000 		lla	a1,_Z16producerKeyboardPv
 589      93850500 
 590              	.L28:
 138:test/../test/ConsumerProducer_C_API_test.h ****     }
 591              		.loc 1 138 28 discriminator 4
 592 0448 13961700 		slli	a2,a5,1
 593 044c 3306F600 		add	a2,a2,a5
 594 0450 13163600 		slli	a2,a2,3
 136:test/../test/ConsumerProducer_C_API_test.h ****                       i > 0 ? producer : producerKeyboard,
 595              		.loc 1 136 22 discriminator 4
 596 0454 3386C900 		add	a2,s3,a2
 597 0458 97000000 		call	thread_create@plt
 597      E7800000 
 598              	.LVL73:
 131:test/../test/ConsumerProducer_C_API_test.h ****         data[i].id = i;
 599              		.loc 1 131 5 is_stmt 1 discriminator 4
 600 0460 9B841400 		addiw	s1,s1,1
 601              	.LVL74:
 602              	.L29:
 131:test/../test/ConsumerProducer_C_API_test.h ****         data[i].id = i;
 603              		.loc 1 131 23 discriminator 1
 604 0464 63D22405 		bge	s1,s2,.L27
 132:test/../test/ConsumerProducer_C_API_test.h ****         data[i].buffer = buffer;
 605              		.loc 1 132 9
 132:test/../test/ConsumerProducer_C_API_test.h ****         data[i].buffer = buffer;
 606              		.loc 1 132 20 is_stmt 0
 607 0468 93971400 		slli	a5,s1,1
 608 046c B3879700 		add	a5,a5,s1
 609 0470 93973700 		slli	a5,a5,3
 610 0474 B387F900 		add	a5,s3,a5
 611 0478 23A09700 		sw	s1,0(a5)
 133:test/../test/ConsumerProducer_C_API_test.h ****         data[i].wait = waitForAll;
 612              		.loc 1 133 9 is_stmt 1
 133:test/../test/ConsumerProducer_C_API_test.h ****         data[i].wait = waitForAll;
 613              		.loc 1 133 24 is_stmt 0
 614 047c 23B44701 		sd	s4,8(a5)
 134:test/../test/ConsumerProducer_C_API_test.h **** 
 615              		.loc 1 134 9 is_stmt 1
 134:test/../test/ConsumerProducer_C_API_test.h **** 
 616              		.loc 1 134 22 is_stmt 0
 617 0480 17070000 		ld	a4,.LANCHOR0+8
 617      03370700 
 618 0488 23B8E700 		sd	a4,16(a5)
 136:test/../test/ConsumerProducer_C_API_test.h ****                       i > 0 ? producer : producerKeyboard,
 619              		.loc 1 136 9 is_stmt 1
 136:test/../test/ConsumerProducer_C_API_test.h ****                       i > 0 ? producer : producerKeyboard,
 620              		.loc 1 136 33 is_stmt 0
 621 048c 93870400 		mv	a5,s1
 136:test/../test/ConsumerProducer_C_API_test.h ****                       i > 0 ? producer : producerKeyboard,
 622              		.loc 1 136 31
 623 0490 13953400 		slli	a0,s1,3
 136:test/../test/ConsumerProducer_C_API_test.h ****                       i > 0 ? producer : producerKeyboard,
 624              		.loc 1 136 22
GAS LISTING /tmp/cc673G5Z.s 			page 18


 625 0494 3385AA00 		add	a0,s5,a0
 626 0498 E35490FA 		blez	s1,.L35
 627 049c 97050000 		lla	a1,_Z8producerPv
 627      93850500 
 628 04a4 6FF05FFA 		j	.L28
 629              	.L27:
 630              	.LBE5:
 141:test/../test/ConsumerProducer_C_API_test.h **** 
 631              		.loc 1 141 5 is_stmt 1
 141:test/../test/ConsumerProducer_C_API_test.h **** 
 632              		.loc 1 141 16 is_stmt 0
 633 04a8 17050000 		lla	a0,.LC7
 633      13050500 
 634 04b0 97000000 		call	_Z11printStringPKc@plt
 634      E7800000 
 635              	.LVL75:
 143:test/../test/ConsumerProducer_C_API_test.h **** 
 636              		.loc 1 143 5 is_stmt 1
 143:test/../test/ConsumerProducer_C_API_test.h **** 
 637              		.loc 1 143 20 is_stmt 0
 638 04b8 97000000 		call	thread_dispatch@plt
 638      E7800000 
 639              	.LVL76:
 145:test/../test/ConsumerProducer_C_API_test.h **** 
 640              		.loc 1 145 5 is_stmt 1
 145:test/../test/ConsumerProducer_C_API_test.h **** 
 641              		.loc 1 145 16 is_stmt 0
 642 04c0 17050000 		lla	a0,.LC8
 642      13050500 
 643 04c8 97000000 		call	_Z11printStringPKc@plt
 643      E7800000 
 644              	.LVL77:
 645              	.LBB6:
 147:test/../test/ConsumerProducer_C_API_test.h ****         sem_wait(waitForAll);
 646              		.loc 1 147 14
 647 04d0 93040000 		li	s1,0
 648              	.LVL78:
 649              	.L31:
 147:test/../test/ConsumerProducer_C_API_test.h ****         sem_wait(waitForAll);
 650              		.loc 1 147 23 is_stmt 1 discriminator 1
 651 04d4 634E9900 		bgt	s1,s2,.L30
 148:test/../test/ConsumerProducer_C_API_test.h ****     }
 652              		.loc 1 148 9
 148:test/../test/ConsumerProducer_C_API_test.h ****     }
 653              		.loc 1 148 17 is_stmt 0
 654 04d8 17050000 		ld	a0,.LANCHOR0+8
 654      03350500 
 655 04e0 97000000 		call	sem_wait@plt
 655      E7800000 
 656              	.LVL79:
 147:test/../test/ConsumerProducer_C_API_test.h ****         sem_wait(waitForAll);
 657              		.loc 1 147 5 is_stmt 1
 658 04e8 9B841400 		addiw	s1,s1,1
 659              	.LVL80:
 660 04ec 6FF09FFE 		j	.L31
 661              	.LVL81:
 662              	.L30:
GAS LISTING /tmp/cc673G5Z.s 			page 19


 663              	.LBE6:
 152:test/../test/ConsumerProducer_C_API_test.h **** 
 664              		.loc 1 152 5
 152:test/../test/ConsumerProducer_C_API_test.h **** 
 665              		.loc 1 152 14 is_stmt 0
 666 04f0 17050000 		ld	a0,.LANCHOR0+8
 666      03350500 
 667 04f8 97000000 		call	sem_close@plt
 667      E7800000 
 668              	.LVL82:
 669              		.loc 1 154 5 is_stmt 1
 670              		.loc 1 154 18 is_stmt 0
 671 0500 630E0A00 		beqz	s4,.L32
 672              		.loc 1 154 12 discriminator 1
 673 0504 13050A00 		mv	a0,s4
 674 0508 97000000 		call	_ZN6BufferD1Ev@plt
 674      E7800000 
 675              	.LVL83:
 676 0510 13050A00 		mv	a0,s4
 677 0514 97000000 		call	_ZdlPv@plt
 677      E7800000 
 678              	.LVL84:
 679              	.L32:
 680 051c 13010B00 		mv	sp,s6
 681              	.LVL85:
 682              	.L23:
 155:test/../test/ConsumerProducer_C_API_test.h **** 
 156:test/../test/ConsumerProducer_C_API_test.h **** }
 683              		.loc 1 156 1
 684 0520 130104F9 		addi	sp,s0,-112
 685              		.cfi_remember_state
 686              		.cfi_def_cfa 2, 112
 687 0524 83308106 		ld	ra,104(sp)
 688              		.cfi_restore 1
 689 0528 03340106 		ld	s0,96(sp)
 690              		.cfi_restore 8
 691 052c 83348105 		ld	s1,88(sp)
 692              		.cfi_restore 9
 693 0530 03390105 		ld	s2,80(sp)
 694              		.cfi_restore 18
 695              	.LVL86:
 696 0534 83398104 		ld	s3,72(sp)
 697              		.cfi_restore 19
 698 0538 033A0104 		ld	s4,64(sp)
 699              		.cfi_restore 20
 700 053c 833A8103 		ld	s5,56(sp)
 701              		.cfi_restore 21
 702 0540 033B0103 		ld	s6,48(sp)
 703              		.cfi_restore 22
 704 0544 13010107 		addi	sp,sp,112
 705              		.cfi_def_cfa_offset 0
 706 0548 67800000 		jr	ra
 707              	.LVL87:
 708              	.L36:
 709              		.cfi_restore_state
 710 054c 93040500 		mv	s1,a0
 711              	.LVL88:
GAS LISTING /tmp/cc673G5Z.s 			page 20


 115:test/../test/ConsumerProducer_C_API_test.h **** 
 712              		.loc 1 115 34
 713 0550 13050A00 		mv	a0,s4
 714 0554 97000000 		call	_ZdlPv@plt
 714      E7800000 
 715              	.LVL89:
 716 055c 13850400 		mv	a0,s1
 717 0560 97000000 		call	_Unwind_Resume@plt
 717      E7800000 
 718              	.LVL90:
 719              	.LEHE2:
 720              		.cfi_endproc
 721              	.LFE3:
 722              		.globl	__gxx_personality_v0
 723              		.section	.gcc_except_table,"a",@progbits
 724              	.LLSDA3:
 725 0000 FF       		.byte	0xff
 726 0001 FF       		.byte	0xff
 727 0002 03       		.byte	0x3
 728 0003 27       		.byte	0x27
 729 0004 00000000 		.4byte	.LEHB0-.LFB3
 730 0008 00000000 		.4byte	.LEHE0-.LEHB0
 731 000c 00000000 		.4byte	0
 732 0010 00       		.byte	0
 733 0011 00000000 		.4byte	.LEHB1-.LFB3
 734 0015 00000000 		.4byte	.LEHE1-.LEHB1
 735 0019 00000000 		.4byte	.L36-.LFB3
 736 001d 00       		.byte	0
 737 001e 00000000 		.4byte	.LEHB2-.LFB3
 738 0022 00000000 		.4byte	.LEHE2-.LEHB2
 739 0026 00000000 		.4byte	0
 740 002a 00       		.byte	0
 741              		.text
 743              		.section	.rodata.str1.8
 744 00f7 00       		.align	3
 745              	.LC9:
 746 00f8 4920616D 		.string	"I am here!\n"
 746      20686572 
 746      65210A00 
 747 0104 00000000 		.align	3
 748              	.LC10:
 749 0108 4920616D 		.string	"I am here again!\n"
 749      20686572 
 749      65206167 
 749      61696E21 
 749      0A00
 750              		.text
 751              		.align	2
 752              		.globl	_Z8userMainv
 754              	_Z8userMainv:
 755              	.LFB29:
 756              		.file 2 "test/userMain.cpp"
   1:test/userMain.cpp **** //#include "../test/Threads_C_API_test.hpp" // zadatak 2, niti C API i sinhrona promena konteksta
   2:test/userMain.cpp **** //#include "../test/Threads_CPP_API_test.hpp" // zadatak 2., niti CPP API i sinhrona promena kontek
   3:test/userMain.cpp **** 
   4:test/userMain.cpp **** #include "../test/ConsumerProducer_C_API_test.h" // zadatak 3., kompletan C API sa semaforima, sinh
   5:test/userMain.cpp **** //#include "../test/ConsumerProducer_CPP_Sync_API_test.hpp" // zadatak 3., kompletan CPP API sa sem
GAS LISTING /tmp/cc673G5Z.s 			page 21


   6:test/userMain.cpp **** 
   7:test/userMain.cpp **** //#include "../test/ThreadSleep_C_API_test.hpp" // thread_sleep test C API
   8:test/userMain.cpp **** //#include "../test/ConsumerProducer_CPP_API_test.hpp" // zadatak 4. CPP API i asinhrona promena ko
   9:test/userMain.cpp **** 
  10:test/userMain.cpp **** #include "../h/print.hpp"
  11:test/userMain.cpp **** #include "../h/tcb.hpp"
  12:test/userMain.cpp **** #include "../h/syscall_c.h"
  13:test/userMain.cpp **** 
  14:test/userMain.cpp **** void userMain() {
 757              		.loc 2 14 17 is_stmt 1
 758              		.cfi_startproc
 759 0568 130101FF 		addi	sp,sp,-16
 760              		.cfi_def_cfa_offset 16
 761 056c 23341100 		sd	ra,8(sp)
 762 0570 23308100 		sd	s0,0(sp)
 763              		.cfi_offset 1, -8
 764              		.cfi_offset 8, -16
 765 0574 13040101 		addi	s0,sp,16
 766              		.cfi_def_cfa 8, 0
  15:test/userMain.cpp ****     __print_string("I am here!\n");
 767              		.loc 2 15 5
 768              		.loc 2 15 19 is_stmt 0
 769 0578 17050000 		lla	a0,.LC9
 769      13050500 
 770 0580 97000000 		call	_Z14__print_stringPKc@plt
 770      E7800000 
 771              	.LVL91:
  16:test/userMain.cpp ****     //printString("I am here!");
  17:test/userMain.cpp ****     //Threads_C_API_test(); // zadatak 2., niti C API i sinhrona promena konteksta
  18:test/userMain.cpp ****     //Threads_CPP_API_test(); // zadatak 2., niti CPP API i sinhrona promena konteksta
  19:test/userMain.cpp **** 
  20:test/userMain.cpp ****     producerConsumer_C_API(); // zadatak 3., kompletan C API sa semaforima, sinhrona promena kontek
 772              		.loc 2 20 5 is_stmt 1
 773              		.loc 2 20 27 is_stmt 0
 774 0588 97000000 		call	_Z22producerConsumer_C_APIv
 774      E7800000 
 775              	.LVL92:
  21:test/userMain.cpp ****     //producerConsumer_CPP_Sync_API(); // zadatak 3., kompletan CPP API sa semaforima, sinhrona pro
  22:test/userMain.cpp **** 
  23:test/userMain.cpp ****     //testSleeping(); // thread_sleep test C API
  24:test/userMain.cpp ****     //ConsumerProducerCPP::testConsumerProducer(); // zadatak 4. CPP API i asinhrona promena kontek
  25:test/userMain.cpp **** 
  26:test/userMain.cpp ****     //__print_string("I am here too!\n");
  27:test/userMain.cpp ****     //thread_dispatch();
  28:test/userMain.cpp ****     __print_string("I am here again!\n");
 776              		.loc 2 28 5 is_stmt 1
 777              		.loc 2 28 19 is_stmt 0
 778 0590 17050000 		lla	a0,.LC10
 778      13050500 
 779 0598 97000000 		call	_Z14__print_stringPKc@plt
 779      E7800000 
 780              	.LVL93:
  29:test/userMain.cpp ****     //thread_exit();
  30:test/userMain.cpp ****     /*TCB::running->setFinished(true);
  31:test/userMain.cpp ****     thread_dispatch();*/
  32:test/userMain.cpp **** }...
 781              		.loc 2 32 1
GAS LISTING /tmp/cc673G5Z.s 			page 22


 782 05a0 83308100 		ld	ra,8(sp)
 783              		.cfi_restore 1
 784 05a4 03340100 		ld	s0,0(sp)
 785              		.cfi_restore 8
 786              		.cfi_def_cfa 2, 16
 787 05a8 13010101 		addi	sp,sp,16
 788              		.cfi_def_cfa_offset 0
 789 05ac 67800000 		jr	ra
 790              		.cfi_endproc
 791              	.LFE29:
 793              		.globl	threadEnd
 794              		.globl	waitForAll
 795              		.bss
 796              		.align	3
 797              		.set	.LANCHOR0,. + 0
 800              	threadEnd:
 801 0000 00000000 		.zero	4
 802 0004 00000000 		.zero	4
 805              	waitForAll:
 806 0008 00000000 		.zero	8
 806      00000000 
 807              		.text
 808              	.Letext0:
 809              		.file 3 "test/../test/../h/../lib/hw.h"
 810              		.file 4 "test/../test/../h/syscall_c.h"
 811              		.file 5 "test/../h/tcb.hpp"
 812              		.file 6 "test/../test/buffer.hpp"
 813              		.file 7 "test/../h/print.hpp"
 814              		.file 8 "test/../test/printing.hpp"
 3698              		.align	3
 3701              	DW.ref.__gxx_personality_v0:
 3702 0000 00000000 		.dword	__gxx_personality_v0
 3702      00000000 
 3703              		.ident	"GCC: (Ubuntu 9.4.0-1ubuntu1~20.04) 9.4.0"
 3704              		.section	.note.GNU-stack,"",@progbits
GAS LISTING /tmp/cc673G5Z.s 			page 23


DEFINED SYMBOLS
                            *ABS*:0000000000000000 userMain.cpp
     /tmp/cc673G5Z.s:9      .text:0000000000000000 _Z16producerKeyboardPv
     /tmp/cc673G5Z.s:13     .text:0000000000000000 .L0 
     /tmp/cc673G5Z.s:15     .text:0000000000000000 .L0 
     /tmp/cc673G5Z.s:16     .text:0000000000000004 .L0 
     /tmp/cc673G5Z.s:21     .text:0000000000000014 .L0 
     /tmp/cc673G5Z.s:22     .text:0000000000000014 .L0 
     /tmp/cc673G5Z.s:23     .text:0000000000000014 .L0 
     /tmp/cc673G5Z.s:24     .text:0000000000000014 .L0 
     /tmp/cc673G5Z.s:26     .text:0000000000000018 .L0 
     /tmp/cc673G5Z.s:30     .text:000000000000001c .L0 
     /tmp/cc673G5Z.s:31     .text:000000000000001c .L0 
     /tmp/cc673G5Z.s:32     .text:000000000000001c .L0 
     /tmp/cc673G5Z.s:33     .text:000000000000001c .L0 
     /tmp/cc673G5Z.s:38     .text:0000000000000024 .L0 
     /tmp/cc673G5Z.s:39     .text:0000000000000024 .L0 
     /tmp/cc673G5Z.s:43     .text:000000000000002c .L0 
     /tmp/cc673G5Z.s:44     .text:000000000000002c .L0 
     /tmp/cc673G5Z.s:45     .text:000000000000002c .L0 
     /tmp/cc673G5Z.s:48     .text:0000000000000034 .L0 
     /tmp/cc673G5Z.s:51     .text:0000000000000038 .L0 
     /tmp/cc673G5Z.s:54     .text:0000000000000040 .L0 
     /tmp/cc673G5Z.s:55     .text:0000000000000040 .L0 
     /tmp/cc673G5Z.s:59     .text:000000000000004c .L0 
     /tmp/cc673G5Z.s:60     .text:000000000000004c .L0 
     /tmp/cc673G5Z.s:64     .text:0000000000000054 .L0 
     /tmp/cc673G5Z.s:65     .text:0000000000000054 .L0 
     /tmp/cc673G5Z.s:67     .text:0000000000000058 .L0 
     /tmp/cc673G5Z.s:71     .text:0000000000000064 .L0 
     /tmp/cc673G5Z.s:73     .text:0000000000000068 .L0 
     /tmp/cc673G5Z.s:78     .text:0000000000000070 .L0 
     /tmp/cc673G5Z.s:79     .text:0000000000000070 .L0 
     /tmp/cc673G5Z.s:82     .text:000000000000007c .L0 
     /tmp/cc673G5Z.s:83     .text:000000000000007c .L0 
     /tmp/cc673G5Z.s:90     .text:000000000000008c .L0 
     /tmp/cc673G5Z.s:91     .text:000000000000008c .L0 
     /tmp/cc673G5Z.s:97     .text:00000000000000a0 .L0 
     /tmp/cc673G5Z.s:98     .text:00000000000000a0 .L0 
     /tmp/cc673G5Z.s:102    .text:00000000000000ac .L0 
     /tmp/cc673G5Z.s:103    .text:00000000000000b0 .L0 
     /tmp/cc673G5Z.s:105    .text:00000000000000b4 .L0 
     /tmp/cc673G5Z.s:106    .text:00000000000000b4 .L0 
     /tmp/cc673G5Z.s:108    .text:00000000000000b8 .L0 
     /tmp/cc673G5Z.s:111    .text:00000000000000bc .L0 
     /tmp/cc673G5Z.s:114    .text:00000000000000c0 .L0 
     /tmp/cc673G5Z.s:116    .text:00000000000000c4 .L0 
     /tmp/cc673G5Z.s:122    .text:00000000000000c4 _Z8producerPv
     /tmp/cc673G5Z.s:125    .text:00000000000000c4 .L0 
     /tmp/cc673G5Z.s:127    .text:00000000000000c4 .L0 
     /tmp/cc673G5Z.s:128    .text:00000000000000c8 .L0 
     /tmp/cc673G5Z.s:133    .text:00000000000000d8 .L0 
     /tmp/cc673G5Z.s:134    .text:00000000000000d8 .L0 
     /tmp/cc673G5Z.s:135    .text:00000000000000d8 .L0 
     /tmp/cc673G5Z.s:136    .text:00000000000000d8 .L0 
     /tmp/cc673G5Z.s:138    .text:00000000000000dc .L0 
     /tmp/cc673G5Z.s:142    .text:00000000000000e0 .L0 
GAS LISTING /tmp/cc673G5Z.s 			page 24


     /tmp/cc673G5Z.s:143    .text:00000000000000e0 .L0 
     /tmp/cc673G5Z.s:144    .text:00000000000000e0 .L0 
     /tmp/cc673G5Z.s:149    .text:00000000000000e8 .L0 
     /tmp/cc673G5Z.s:150    .text:00000000000000e8 .L0 
     /tmp/cc673G5Z.s:154    .text:00000000000000f0 .L0 
     /tmp/cc673G5Z.s:155    .text:00000000000000f0 .L0 
     /tmp/cc673G5Z.s:158    .text:00000000000000fc .L0 
     /tmp/cc673G5Z.s:159    .text:00000000000000fc .L0 
     /tmp/cc673G5Z.s:161    .text:0000000000000100 .L0 
     /tmp/cc673G5Z.s:166    .text:0000000000000110 .L0 
     /tmp/cc673G5Z.s:167    .text:0000000000000110 .L0 
     /tmp/cc673G5Z.s:171    .text:0000000000000118 .L0 
     /tmp/cc673G5Z.s:172    .text:0000000000000118 .L0 
     /tmp/cc673G5Z.s:174    .text:000000000000011c .L0 
     /tmp/cc673G5Z.s:178    .text:0000000000000128 .L0 
     /tmp/cc673G5Z.s:180    .text:000000000000012c .L0 
     /tmp/cc673G5Z.s:185    .text:0000000000000134 .L0 
     /tmp/cc673G5Z.s:186    .text:0000000000000134 .L0 
     /tmp/cc673G5Z.s:192    .text:0000000000000148 .L0 
     /tmp/cc673G5Z.s:193    .text:0000000000000148 .L0 
     /tmp/cc673G5Z.s:197    .text:0000000000000154 .L0 
     /tmp/cc673G5Z.s:198    .text:0000000000000158 .L0 
     /tmp/cc673G5Z.s:200    .text:000000000000015c .L0 
     /tmp/cc673G5Z.s:201    .text:000000000000015c .L0 
     /tmp/cc673G5Z.s:203    .text:0000000000000160 .L0 
     /tmp/cc673G5Z.s:206    .text:0000000000000164 .L0 
     /tmp/cc673G5Z.s:209    .text:0000000000000168 .L0 
     /tmp/cc673G5Z.s:211    .text:000000000000016c .L0 
     /tmp/cc673G5Z.s:217    .text:000000000000016c _Z8consumerPv
     /tmp/cc673G5Z.s:220    .text:000000000000016c .L0 
     /tmp/cc673G5Z.s:222    .text:000000000000016c .L0 
     /tmp/cc673G5Z.s:223    .text:0000000000000170 .L0 
     /tmp/cc673G5Z.s:229    .text:0000000000000184 .L0 
     /tmp/cc673G5Z.s:230    .text:0000000000000184 .L0 
     /tmp/cc673G5Z.s:231    .text:0000000000000184 .L0 
     /tmp/cc673G5Z.s:232    .text:0000000000000184 .L0 
     /tmp/cc673G5Z.s:233    .text:0000000000000184 .L0 
     /tmp/cc673G5Z.s:235    .text:0000000000000188 .L0 
     /tmp/cc673G5Z.s:239    .text:000000000000018c .L0 
     /tmp/cc673G5Z.s:240    .text:000000000000018c .L0 
     /tmp/cc673G5Z.s:241    .text:000000000000018c .L0 
     /tmp/cc673G5Z.s:247    .text:0000000000000194 .L0 
     /tmp/cc673G5Z.s:248    .text:0000000000000194 .L0 
     /tmp/cc673G5Z.s:254    .text:00000000000001a0 .L0 
     /tmp/cc673G5Z.s:255    .text:00000000000001a0 .L0 
     /tmp/cc673G5Z.s:261    .text:00000000000001ac .L0 
     /tmp/cc673G5Z.s:262    .text:00000000000001ac .L0 
     /tmp/cc673G5Z.s:266    .text:00000000000001b8 .L0 
     /tmp/cc673G5Z.s:267    .text:00000000000001b8 .L0 
     /tmp/cc673G5Z.s:271    .text:00000000000001c4 .L0 
     /tmp/cc673G5Z.s:272    .text:00000000000001c4 .L0 
     /tmp/cc673G5Z.s:276    .text:00000000000001cc .L0 
     /tmp/cc673G5Z.s:277    .text:00000000000001cc .L0 
     /tmp/cc673G5Z.s:282    .text:00000000000001d8 .L0 
     /tmp/cc673G5Z.s:283    .text:00000000000001d8 .L0 
     /tmp/cc673G5Z.s:285    .text:00000000000001dc .L0 
     /tmp/cc673G5Z.s:288    .text:00000000000001e4 .L0 
GAS LISTING /tmp/cc673G5Z.s 			page 25


     /tmp/cc673G5Z.s:290    .text:00000000000001e8 .L0 
     /tmp/cc673G5Z.s:293    .text:00000000000001ec .L0 
     /tmp/cc673G5Z.s:294    .text:00000000000001ec .L0 
     /tmp/cc673G5Z.s:298    .text:00000000000001f4 .L0 
     /tmp/cc673G5Z.s:304    .text:00000000000001fc .L0 
     /tmp/cc673G5Z.s:305    .text:00000000000001fc .L0 
     /tmp/cc673G5Z.s:309    .text:0000000000000208 .L0 
     /tmp/cc673G5Z.s:310    .text:0000000000000208 .L0 
     /tmp/cc673G5Z.s:317    .text:0000000000000214 .L0 
     /tmp/cc673G5Z.s:318    .text:0000000000000214 .L0 
     /tmp/cc673G5Z.s:319    .text:0000000000000214 .L0 
     /tmp/cc673G5Z.s:323    .text:0000000000000220 .L0 
     /tmp/cc673G5Z.s:325    .text:0000000000000224 .L0 
     /tmp/cc673G5Z.s:326    .text:0000000000000224 .L0 
     /tmp/cc673G5Z.s:332    .text:0000000000000238 .L0 
     /tmp/cc673G5Z.s:333    .text:0000000000000238 .L0 
     /tmp/cc673G5Z.s:337    .text:0000000000000244 .L0 
     /tmp/cc673G5Z.s:338    .text:0000000000000248 .L0 
     /tmp/cc673G5Z.s:340    .text:000000000000024c .L0 
     /tmp/cc673G5Z.s:341    .text:000000000000024c .L0 
     /tmp/cc673G5Z.s:343    .text:0000000000000250 .L0 
     /tmp/cc673G5Z.s:345    .text:0000000000000254 .L0 
     /tmp/cc673G5Z.s:348    .text:0000000000000258 .L0 
     /tmp/cc673G5Z.s:351    .text:000000000000025c .L0 
     /tmp/cc673G5Z.s:353    .text:0000000000000260 .L0 
     /tmp/cc673G5Z.s:388    .text:0000000000000260 _Z22producerConsumer_C_APIv
     /tmp/cc673G5Z.s:391    .text:0000000000000260 .L0 
     /tmp/cc673G5Z.s:3701   .data.rel.local.DW.ref.__gxx_personality_v0:0000000000000000 DW.ref.__gxx_personality_v0
     /tmp/cc673G5Z.s:394    .text:0000000000000260 .L0 
     /tmp/cc673G5Z.s:395    .text:0000000000000264 .L0 
     /tmp/cc673G5Z.s:404    .text:0000000000000284 .L0 
     /tmp/cc673G5Z.s:405    .text:0000000000000284 .L0 
     /tmp/cc673G5Z.s:406    .text:0000000000000284 .L0 
     /tmp/cc673G5Z.s:407    .text:0000000000000284 .L0 
     /tmp/cc673G5Z.s:408    .text:0000000000000284 .L0 
     /tmp/cc673G5Z.s:409    .text:0000000000000284 .L0 
     /tmp/cc673G5Z.s:410    .text:0000000000000284 .L0 
     /tmp/cc673G5Z.s:411    .text:0000000000000284 .L0 
     /tmp/cc673G5Z.s:413    .text:0000000000000288 .L0 
     /tmp/cc673G5Z.s:415    .text:0000000000000288 .L0 
     /tmp/cc673G5Z.s:417    .text:000000000000028c .L0 
     /tmp/cc673G5Z.s:418    .text:000000000000028c .L0 
     /tmp/cc673G5Z.s:419    .text:000000000000028c .L0 
     /tmp/cc673G5Z.s:420    .text:000000000000028c .L0 
     /tmp/cc673G5Z.s:425    .text:000000000000029c .L0 
     /tmp/cc673G5Z.s:426    .text:000000000000029c .L0 
     /tmp/cc673G5Z.s:432    .text:00000000000002b0 .L0 
     /tmp/cc673G5Z.s:433    .text:00000000000002b0 .L0 
     /tmp/cc673G5Z.s:439    .text:00000000000002c0 .L0 
     /tmp/cc673G5Z.s:440    .text:00000000000002c0 .L0 
     /tmp/cc673G5Z.s:444    .text:00000000000002d0 .L0 
     /tmp/cc673G5Z.s:445    .text:00000000000002d0 .L0 
     /tmp/cc673G5Z.s:450    .text:00000000000002e0 .L0 
     /tmp/cc673G5Z.s:451    .text:00000000000002e0 .L0 
     /tmp/cc673G5Z.s:457    .text:00000000000002f0 .L0 
     /tmp/cc673G5Z.s:458    .text:00000000000002f0 .L0 
     /tmp/cc673G5Z.s:462    .text:0000000000000300 .L0 
GAS LISTING /tmp/cc673G5Z.s 			page 26


     /tmp/cc673G5Z.s:463    .text:0000000000000300 .L0 
     /tmp/cc673G5Z.s:469    .text:0000000000000314 .L0 
     /tmp/cc673G5Z.s:470    .text:0000000000000314 .L0 
     /tmp/cc673G5Z.s:474    .text:0000000000000324 .L0 
     /tmp/cc673G5Z.s:475    .text:0000000000000324 .L0 
     /tmp/cc673G5Z.s:481    .text:0000000000000338 .L0 
     /tmp/cc673G5Z.s:482    .text:0000000000000338 .L0 
     /tmp/cc673G5Z.s:486    .text:0000000000000348 .L0 
     /tmp/cc673G5Z.s:488    .text:000000000000034c .L0 
     /tmp/cc673G5Z.s:490    .text:0000000000000350 .L0 
     /tmp/cc673G5Z.s:491    .text:0000000000000350 .L0 
     /tmp/cc673G5Z.s:504    .text:0000000000000370 .L0 
     /tmp/cc673G5Z.s:505    .text:0000000000000370 .L0 
     /tmp/cc673G5Z.s:510    .text:0000000000000380 .L0 
     /tmp/cc673G5Z.s:513    .text:0000000000000384 .L0 
     /tmp/cc673G5Z.s:514    .text:0000000000000384 .L0 
     /tmp/cc673G5Z.s:519    .text:0000000000000394 .L0 
     /tmp/cc673G5Z.s:524    .text:000000000000039c .L0 
     /tmp/cc673G5Z.s:525    .text:000000000000039c .L0 
     /tmp/cc673G5Z.s:532    .text:00000000000003b8 .L0 
     /tmp/cc673G5Z.s:533    .text:00000000000003b8 .L0 
     /tmp/cc673G5Z.s:539    .text:00000000000003cc .L0 
     /tmp/cc673G5Z.s:540    .text:00000000000003cc .L0 
     /tmp/cc673G5Z.s:547    .text:00000000000003e0 .L0 
     /tmp/cc673G5Z.s:548    .text:00000000000003e0 .L0 
     /tmp/cc673G5Z.s:549    .text:00000000000003e0 .L0 
     /tmp/cc673G5Z.s:552    .text:00000000000003e4 .L0 
     /tmp/cc673G5Z.s:562    .text:0000000000000400 .L0 
     /tmp/cc673G5Z.s:563    .text:0000000000000400 .L0 
     /tmp/cc673G5Z.s:569    .text:0000000000000414 .L0 
     /tmp/cc673G5Z.s:570    .text:0000000000000414 .L0 
     /tmp/cc673G5Z.s:572    .text:0000000000000418 .L0 
     /tmp/cc673G5Z.s:573    .text:0000000000000418 .L0 
     /tmp/cc673G5Z.s:576    .text:0000000000000420 .L0 
     /tmp/cc673G5Z.s:577    .text:0000000000000420 .L0 
     /tmp/cc673G5Z.s:584    .text:0000000000000438 .L0 
     /tmp/cc673G5Z.s:589    .text:0000000000000440 .L0 
     /tmp/cc673G5Z.s:592    .text:0000000000000448 .L0 
     /tmp/cc673G5Z.s:596    .text:0000000000000454 .L0 
     /tmp/cc673G5Z.s:600    .text:0000000000000460 .L0 
     /tmp/cc673G5Z.s:604    .text:0000000000000464 .L0 
     /tmp/cc673G5Z.s:606    .text:0000000000000468 .L0 
     /tmp/cc673G5Z.s:607    .text:0000000000000468 .L0 
     /tmp/cc673G5Z.s:613    .text:000000000000047c .L0 
     /tmp/cc673G5Z.s:614    .text:000000000000047c .L0 
     /tmp/cc673G5Z.s:616    .text:0000000000000480 .L0 
     /tmp/cc673G5Z.s:617    .text:0000000000000480 .L0 
     /tmp/cc673G5Z.s:620    .text:000000000000048c .L0 
     /tmp/cc673G5Z.s:621    .text:000000000000048c .L0 
     /tmp/cc673G5Z.s:623    .text:0000000000000490 .L0 
     /tmp/cc673G5Z.s:625    .text:0000000000000494 .L0 
     /tmp/cc673G5Z.s:632    .text:00000000000004a8 .L0 
     /tmp/cc673G5Z.s:633    .text:00000000000004a8 .L0 
     /tmp/cc673G5Z.s:637    .text:00000000000004b8 .L0 
     /tmp/cc673G5Z.s:638    .text:00000000000004b8 .L0 
     /tmp/cc673G5Z.s:641    .text:00000000000004c0 .L0 
     /tmp/cc673G5Z.s:642    .text:00000000000004c0 .L0 
GAS LISTING /tmp/cc673G5Z.s 			page 27


     /tmp/cc673G5Z.s:647    .text:00000000000004d0 .L0 
     /tmp/cc673G5Z.s:651    .text:00000000000004d4 .L0 
     /tmp/cc673G5Z.s:653    .text:00000000000004d8 .L0 
     /tmp/cc673G5Z.s:654    .text:00000000000004d8 .L0 
     /tmp/cc673G5Z.s:658    .text:00000000000004e8 .L0 
     /tmp/cc673G5Z.s:665    .text:00000000000004f0 .L0 
     /tmp/cc673G5Z.s:666    .text:00000000000004f0 .L0 
     /tmp/cc673G5Z.s:670    .text:0000000000000500 .L0 
     /tmp/cc673G5Z.s:671    .text:0000000000000500 .L0 
     /tmp/cc673G5Z.s:673    .text:0000000000000504 .L0 
     /tmp/cc673G5Z.s:684    .text:0000000000000520 .L0 
     /tmp/cc673G5Z.s:685    .text:0000000000000524 .L0 
     /tmp/cc673G5Z.s:686    .text:0000000000000524 .L0 
     /tmp/cc673G5Z.s:688    .text:0000000000000528 .L0 
     /tmp/cc673G5Z.s:690    .text:000000000000052c .L0 
     /tmp/cc673G5Z.s:692    .text:0000000000000530 .L0 
     /tmp/cc673G5Z.s:694    .text:0000000000000534 .L0 
     /tmp/cc673G5Z.s:697    .text:0000000000000538 .L0 
     /tmp/cc673G5Z.s:699    .text:000000000000053c .L0 
     /tmp/cc673G5Z.s:701    .text:0000000000000540 .L0 
     /tmp/cc673G5Z.s:703    .text:0000000000000544 .L0 
     /tmp/cc673G5Z.s:705    .text:0000000000000548 .L0 
     /tmp/cc673G5Z.s:709    .text:000000000000054c .L0 
     /tmp/cc673G5Z.s:713    .text:0000000000000550 .L0 
     /tmp/cc673G5Z.s:720    .text:0000000000000568 .L0 
     /tmp/cc673G5Z.s:754    .text:0000000000000568 _Z8userMainv
     /tmp/cc673G5Z.s:758    .text:0000000000000568 .L0 
     /tmp/cc673G5Z.s:759    .text:0000000000000568 .L0 
     /tmp/cc673G5Z.s:760    .text:000000000000056c .L0 
     /tmp/cc673G5Z.s:763    .text:0000000000000574 .L0 
     /tmp/cc673G5Z.s:764    .text:0000000000000574 .L0 
     /tmp/cc673G5Z.s:766    .text:0000000000000578 .L0 
     /tmp/cc673G5Z.s:768    .text:0000000000000578 .L0 
     /tmp/cc673G5Z.s:769    .text:0000000000000578 .L0 
     /tmp/cc673G5Z.s:773    .text:0000000000000588 .L0 
     /tmp/cc673G5Z.s:774    .text:0000000000000588 .L0 
     /tmp/cc673G5Z.s:777    .text:0000000000000590 .L0 
     /tmp/cc673G5Z.s:778    .text:0000000000000590 .L0 
     /tmp/cc673G5Z.s:782    .text:00000000000005a0 .L0 
     /tmp/cc673G5Z.s:783    .text:00000000000005a4 .L0 
     /tmp/cc673G5Z.s:785    .text:00000000000005a8 .L0 
     /tmp/cc673G5Z.s:786    .text:00000000000005a8 .L0 
     /tmp/cc673G5Z.s:788    .text:00000000000005ac .L0 
     /tmp/cc673G5Z.s:790    .text:00000000000005b0 .L0 
     /tmp/cc673G5Z.s:800    .bss:0000000000000000 threadEnd
     /tmp/cc673G5Z.s:805    .bss:0000000000000008 waitForAll
     /tmp/cc673G5Z.s:797    .bss:0000000000000000 .LANCHOR0
     /tmp/cc673G5Z.s:815    .text:00000000000005b0 .L0 
     /tmp/cc673G5Z.s:80     .text:0000000000000074 .L0 
     /tmp/cc673G5Z.s:155    .text:00000000000000f0 .L0 
     /tmp/cc673G5Z.s:262    .text:00000000000001ac .L0 
     /tmp/cc673G5Z.s:358    .rodata.str1.8:0000000000000000 .LC0
     /tmp/cc673G5Z.s:420    .text:000000000000028c .L0 
     /tmp/cc673G5Z.s:361    .rodata.str1.8:0000000000000020 .LC1
     /tmp/cc673G5Z.s:440    .text:00000000000002c0 .L0 
     /tmp/cc673G5Z.s:364    .rodata.str1.8:0000000000000040 .LC2
     /tmp/cc673G5Z.s:458    .text:00000000000002f0 .L0 
GAS LISTING /tmp/cc673G5Z.s 			page 28


     /tmp/cc673G5Z.s:367    .rodata.str1.8:0000000000000058 .LC3
     /tmp/cc673G5Z.s:470    .text:0000000000000314 .L0 
     /tmp/cc673G5Z.s:370    .rodata.str1.8:0000000000000070 .LC4
     /tmp/cc673G5Z.s:482    .text:0000000000000338 .L0 
     /tmp/cc673G5Z.s:373    .rodata.str1.8:0000000000000078 .LC5
     /tmp/cc673G5Z.s:505    .text:0000000000000370 .L0 
     /tmp/cc673G5Z.s:376    .rodata.str1.8:00000000000000b8 .LC6
     /tmp/cc673G5Z.s:514    .text:0000000000000384 .L0 
     /tmp/cc673G5Z.s:525    .text:000000000000039c .L0 
     /tmp/cc673G5Z.s:528    .text:00000000000003a8 .L0 
     /tmp/cc673G5Z.s:578    .text:0000000000000424 .L0 
     /tmp/cc673G5Z.s:589    .text:0000000000000440 .L0 
     /tmp/cc673G5Z.s:617    .text:0000000000000480 .L0 
     /tmp/cc673G5Z.s:627    .text:000000000000049c .L0 
     /tmp/cc673G5Z.s:379    .rodata.str1.8:00000000000000e8 .LC7
     /tmp/cc673G5Z.s:633    .text:00000000000004a8 .L0 
     /tmp/cc673G5Z.s:382    .rodata.str1.8:00000000000000f0 .LC8
     /tmp/cc673G5Z.s:642    .text:00000000000004c0 .L0 
     /tmp/cc673G5Z.s:654    .text:00000000000004d8 .L0 
     /tmp/cc673G5Z.s:666    .text:00000000000004f0 .L0 
     /tmp/cc673G5Z.s:745    .rodata.str1.8:00000000000000f8 .LC9
     /tmp/cc673G5Z.s:769    .text:0000000000000578 .L0 
     /tmp/cc673G5Z.s:748    .rodata.str1.8:0000000000000108 .LC10
     /tmp/cc673G5Z.s:778    .text:0000000000000590 .L0 
     /tmp/cc673G5Z.s:41     .text:000000000000002c .L2
     /tmp/cc673G5Z.s:76     .text:0000000000000070 .L3
     /tmp/cc673G5Z.s:36     .text:0000000000000024 .L6
     /tmp/cc673G5Z.s:152    .text:00000000000000f0 .L8
     /tmp/cc673G5Z.s:183    .text:0000000000000134 .L9
     /tmp/cc673G5Z.s:147    .text:00000000000000e8 .L12
     /tmp/cc673G5Z.s:258    .text:00000000000001ac .L14
     /tmp/cc673G5Z.s:291    .text:00000000000001ec .L16
     /tmp/cc673G5Z.s:314    .text:0000000000000214 .L15
     /tmp/cc673G5Z.s:244    .text:0000000000000194 .L20
     /tmp/cc673G5Z.s:252    .text:00000000000001a0 .L21
     /tmp/cc673G5Z.s:300    .text:00000000000001fc .L22
     /tmp/cc673G5Z.s:502    .text:0000000000000370 .L38
     /tmp/cc673G5Z.s:511    .text:0000000000000384 .L39
     /tmp/cc673G5Z.s:521    .text:000000000000039c .L40
     /tmp/cc673G5Z.s:518    .text:0000000000000394 .L25
     /tmp/cc673G5Z.s:682    .text:0000000000000520 .L23
     /tmp/cc673G5Z.s:602    .text:0000000000000464 .L29
     /tmp/cc673G5Z.s:629    .text:00000000000004a8 .L27
     /tmp/cc673G5Z.s:587    .text:0000000000000440 .L35
     /tmp/cc673G5Z.s:590    .text:0000000000000448 .L28
     /tmp/cc673G5Z.s:662    .text:00000000000004f0 .L30
     /tmp/cc673G5Z.s:649    .text:00000000000004d4 .L31
     /tmp/cc673G5Z.s:679    .text:000000000000051c .L32
     /tmp/cc673G5Z.s:421    .text:0000000000000294 .LEHB0
     /tmp/cc673G5Z.s:389    .text:0000000000000260 .LFB3
     /tmp/cc673G5Z.s:494    .text:000000000000035c .LEHE0
     /tmp/cc673G5Z.s:497    .text:0000000000000364 .LEHB1
     /tmp/cc673G5Z.s:500    .text:000000000000036c .LEHE1
     /tmp/cc673G5Z.s:708    .text:000000000000054c .L36
     /tmp/cc673G5Z.s:506    .text:0000000000000378 .LEHB2
     /tmp/cc673G5Z.s:719    .text:0000000000000568 .LEHE2
     /tmp/cc673G5Z.s:2311   .debug_abbrev:0000000000000000 .Ldebug_abbrev0
GAS LISTING /tmp/cc673G5Z.s 			page 29


     /tmp/cc673G5Z.s:3649   .debug_str:0000000000000598 .LASF107
     /tmp/cc673G5Z.s:3481   .debug_str:00000000000000b6 .LASF108
     /tmp/cc673G5Z.s:3577   .debug_str:0000000000000374 .LASF109
     /tmp/cc673G5Z.s:5      .text:0000000000000000 .Ltext0
     /tmp/cc673G5Z.s:808    .text:00000000000005b0 .Letext0
     /tmp/cc673G5Z.s:3449   .debug_line:0000000000000000 .Ldebug_line0
     /tmp/cc673G5Z.s:3583   .debug_str:00000000000003af .LASF0
     /tmp/cc673G5Z.s:3601   .debug_str:0000000000000423 .LASF1
     /tmp/cc673G5Z.s:3569   .debug_str:000000000000034d .LASF2
     /tmp/cc673G5Z.s:3541   .debug_str:0000000000000294 .LASF4
     /tmp/cc673G5Z.s:3635   .debug_str:000000000000050a .LASF3
     /tmp/cc673G5Z.s:3469   .debug_str:0000000000000067 .LASF5
     /tmp/cc673G5Z.s:3607   .debug_str:0000000000000454 .LASF6
     /tmp/cc673G5Z.s:3581   .debug_str:000000000000039c .LASF7
     /tmp/cc673G5Z.s:3665   .debug_str:00000000000006c4 .LASF8
     /tmp/cc673G5Z.s:3527   .debug_str:00000000000001fd .LASF9
     /tmp/cc673G5Z.s:3617   .debug_str:00000000000004a5 .LASF10
     /tmp/cc673G5Z.s:3653   .debug_str:0000000000000668 .LASF11
     /tmp/cc673G5Z.s:3473   .debug_str:0000000000000074 .LASF12
     /tmp/cc673G5Z.s:3457   .debug_str:0000000000000020 .LASF13
     /tmp/cc673G5Z.s:3485   .debug_str:00000000000000d1 .LASF14
     /tmp/cc673G5Z.s:3629   .debug_str:00000000000004dd .LASF15
     /tmp/cc673G5Z.s:3493   .debug_str:0000000000000113 .LASF16
     /tmp/cc673G5Z.s:3451   .debug_str:0000000000000000 .LASF17
     /tmp/cc673G5Z.s:3463   .debug_str:000000000000003f .LASF62
     /tmp/cc673G5Z.s:3509   .debug_str:000000000000017f .LASF18
     /tmp/cc673G5Z.s:3647   .debug_str:000000000000057c .LASF20
     /tmp/cc673G5Z.s:3623   .debug_str:00000000000004cc .LASF110
     /tmp/cc673G5Z.s:3489   .debug_str:00000000000000e6 .LASF19
     /tmp/cc673G5Z.s:3531   .debug_str:0000000000000219 .LASF21
     /tmp/cc673G5Z.s:3609   .debug_str:0000000000000467 .LASF24
     /tmp/cc673G5Z.s:3525   .debug_str:00000000000001e6 .LASF26
     /tmp/cc673G5Z.s:3571   .debug_str:000000000000035b .LASF22
     /tmp/cc673G5Z.s:3537   .debug_str:0000000000000255 .LASF23
     /tmp/cc673G5Z.s:3461   .debug_str:0000000000000035 .LASF25
     /tmp/cc673G5Z.s:3553   .debug_str:00000000000002d8 .LASF27
     /tmp/cc673G5Z.s:3543   .debug_str:000000000000029b .LASF28
     /tmp/cc673G5Z.s:3659   .debug_str:0000000000000696 .LASF29
     /tmp/cc673G5Z.s:3565   .debug_str:0000000000000332 .LASF30
     /tmp/cc673G5Z.s:3467   .debug_str:000000000000004e .LASF31
     /tmp/cc673G5Z.s:3677   .debug_str:0000000000000721 .LASF111
     /tmp/cc673G5Z.s:3585   .debug_str:00000000000003bc .LASF32
     /tmp/cc673G5Z.s:3513   .debug_str:0000000000000192 .LASF34
     /tmp/cc673G5Z.s:3611   .debug_str:0000000000000472 .LASF33
     /tmp/cc673G5Z.s:3503   .debug_str:000000000000014b .LASF35
     /tmp/cc673G5Z.s:3477   .debug_str:0000000000000089 .LASF112
     /tmp/cc673G5Z.s:3671   .debug_str:00000000000006e7 .LASF113
     /tmp/cc673G5Z.s:3521   .debug_str:00000000000001c4 .LASF36
     /tmp/cc673G5Z.s:3639   .debug_str:000000000000052d .LASF37
     /tmp/cc673G5Z.s:3501   .debug_str:0000000000000146 .LASF38
     /tmp/cc673G5Z.s:3621   .debug_str:00000000000004c0 .LASF39
     /tmp/cc673G5Z.s:3613   .debug_str:0000000000000486 .LASF114
     /tmp/cc673G5Z.s:3637   .debug_str:000000000000051c .LASF115
     /tmp/cc673G5Z.s:3547   .debug_str:00000000000002af .LASF40
     /tmp/cc673G5Z.s:3591   .debug_str:00000000000003e2 .LASF41
     /tmp/cc673G5Z.s:3589   .debug_str:00000000000003dc .LASF42
     /tmp/cc673G5Z.s:3545   .debug_str:00000000000002a6 .LASF43
GAS LISTING /tmp/cc673G5Z.s 			page 30


     /tmp/cc673G5Z.s:3453   .debug_str:0000000000000009 .LASF44
     /tmp/cc673G5Z.s:3593   .debug_str:00000000000003e7 .LASF45
     /tmp/cc673G5Z.s:3549   .debug_str:00000000000002b4 .LASF46
     /tmp/cc673G5Z.s:3673   .debug_str:0000000000000706 .LASF116
     /tmp/cc673G5Z.s:3539   .debug_str:000000000000026c .LASF117
     /tmp/cc673G5Z.s:3567   .debug_str:000000000000033f .LASF118
     /tmp/cc673G5Z.s:3479   .debug_str:000000000000009d .LASF119
     /tmp/cc673G5Z.s:3507   .debug_str:0000000000000179 .LASF47
     /tmp/cc673G5Z.s:3679   .debug_str:0000000000000729 .LASF48
     /tmp/cc673G5Z.s:3627   .debug_str:00000000000004d6 .LASF49
     /tmp/cc673G5Z.s:3497   .debug_str:0000000000000137 .LASF50
     /tmp/cc673G5Z.s:3575   .debug_str:000000000000036f .LASF51
     /tmp/cc673G5Z.s:3505   .debug_str:000000000000016a .LASF52
     /tmp/cc673G5Z.s:3529   .debug_str:000000000000020b .LASF53
     /tmp/cc673G5Z.s:3563   .debug_str:0000000000000328 .LASF54
     /tmp/cc673G5Z.s:3663   .debug_str:00000000000006ba .LASF55
     /tmp/cc673G5Z.s:3519   .debug_str:00000000000001b5 .LASF56
     /tmp/cc673G5Z.s:3573   .debug_str:0000000000000367 .LASF57
     /tmp/cc673G5Z.s:3605   .debug_str:0000000000000445 .LASF58
     /tmp/cc673G5Z.s:3691   .debug_str:0000000000000778 .LASF120
     /tmp/cc673G5Z.s:3631   .debug_str:00000000000004f3 .LASF121
     /tmp/cc673G5Z.s:3465   .debug_str:0000000000000047 .LASF59
     /tmp/cc673G5Z.s:3643   .debug_str:000000000000055e .LASF60
     /tmp/cc673G5Z.s:3517   .debug_str:00000000000001aa .LASF61
     /tmp/cc673G5Z.s:3523   .debug_str:00000000000001da .LASF63
     /tmp/cc673G5Z.s:3475   .debug_str:0000000000000084 .LASF64
     /tmp/cc673G5Z.s:3561   .debug_str:000000000000031e .LASF65
     /tmp/cc673G5Z.s:3515   .debug_str:00000000000001a5 .LASF66
     /tmp/cc673G5Z.s:3615   .debug_str:000000000000049c .LASF67
     /tmp/cc673G5Z.s:3685   .debug_str:0000000000000752 .LASF68
     /tmp/cc673G5Z.s:755    .text:0000000000000568 .LFB29
     /tmp/cc673G5Z.s:791    .text:00000000000005b0 .LFE29
     /tmp/cc673G5Z.s:771    .text:0000000000000588 .LVL91
     /tmp/cc673G5Z.s:775    .text:0000000000000590 .LVL92
     /tmp/cc673G5Z.s:780    .text:00000000000005a0 .LVL93
     /tmp/cc673G5Z.s:3587   .debug_str:00000000000003c5 .LASF69
     /tmp/cc673G5Z.s:3551   .debug_str:00000000000002bc .LASF70
     /tmp/cc673G5Z.s:721    .text:0000000000000568 .LFE3
     /tmp/cc673G5Z.s:3471   .debug_str:000000000000006e .LASF71
     /tmp/cc673G5Z.s:3151   .debug_loc:0000000000000000 .LLST14
     /tmp/cc673G5Z.s:3559   .debug_str:0000000000000314 .LASF72
     /tmp/cc673G5Z.s:3162   .debug_loc:0000000000000036 .LLST15
     /tmp/cc673G5Z.s:3173   .debug_loc:000000000000006c .LLST16
     /tmp/cc673G5Z.s:3667   .debug_str:00000000000006d4 .LASF73
     /tmp/cc673G5Z.s:3180   .debug_loc:000000000000008f .LLST17
     /tmp/cc673G5Z.s:3681   .debug_str:0000000000000730 .LASF74
     /tmp/cc673G5Z.s:3625   .debug_str:00000000000004d1 .LASF75
     /tmp/cc673G5Z.s:3193   .debug_loc:00000000000000c7 .LLST18
     /tmp/cc673G5Z.s:582    .text:0000000000000438 .LBB5
     /tmp/cc673G5Z.s:630    .text:00000000000004a8 .LBE5
     /tmp/cc673G5Z.s:3201   .debug_loc:00000000000000eb .LLST19
     /tmp/cc673G5Z.s:598    .text:0000000000000460 .LVL73
     /tmp/cc673G5Z.s:645    .text:00000000000004d0 .LBB6
     /tmp/cc673G5Z.s:663    .text:00000000000004f0 .LBE6
     /tmp/cc673G5Z.s:3208   .debug_loc:000000000000010e .LLST20
     /tmp/cc673G5Z.s:656    .text:00000000000004e8 .LVL79
     /tmp/cc673G5Z.s:423    .text:000000000000029c .LVL46
GAS LISTING /tmp/cc673G5Z.s 			page 31


     /tmp/cc673G5Z.s:430    .text:00000000000002b0 .LVL47
     /tmp/cc673G5Z.s:435    .text:00000000000002bc .LVL48
     /tmp/cc673G5Z.s:442    .text:00000000000002d0 .LVL50
     /tmp/cc673G5Z.s:448    .text:00000000000002e0 .LVL51
     /tmp/cc673G5Z.s:453    .text:00000000000002ec .LVL52
     /tmp/cc673G5Z.s:460    .text:0000000000000300 .LVL54
     /tmp/cc673G5Z.s:467    .text:0000000000000314 .LVL55
     /tmp/cc673G5Z.s:472    .text:0000000000000324 .LVL56
     /tmp/cc673G5Z.s:479    .text:0000000000000338 .LVL57
     /tmp/cc673G5Z.s:484    .text:0000000000000348 .LVL58
     /tmp/cc673G5Z.s:493    .text:000000000000035c .LVL59
     /tmp/cc673G5Z.s:499    .text:000000000000036c .LVL60
     /tmp/cc673G5Z.s:508    .text:0000000000000380 .LVL61
     /tmp/cc673G5Z.s:516    .text:0000000000000394 .LVL62
     /tmp/cc673G5Z.s:530    .text:00000000000003b8 .LVL65
     /tmp/cc673G5Z.s:537    .text:00000000000003cc .LVL66
     /tmp/cc673G5Z.s:581    .text:0000000000000438 .LVL71
     /tmp/cc673G5Z.s:635    .text:00000000000004b8 .LVL75
     /tmp/cc673G5Z.s:639    .text:00000000000004c0 .LVL76
     /tmp/cc673G5Z.s:644    .text:00000000000004d0 .LVL77
     /tmp/cc673G5Z.s:668    .text:0000000000000500 .LVL82
     /tmp/cc673G5Z.s:675    .text:0000000000000510 .LVL83
     /tmp/cc673G5Z.s:678    .text:000000000000051c .LVL84
     /tmp/cc673G5Z.s:715    .text:000000000000055c .LVL89
     /tmp/cc673G5Z.s:718    .text:0000000000000568 .LVL90
     /tmp/cc673G5Z.s:3533   .debug_str:0000000000000241 .LASF76
     /tmp/cc673G5Z.s:3689   .debug_str:000000000000076f .LASF77
     /tmp/cc673G5Z.s:3655   .debug_str:0000000000000677 .LASF78
     /tmp/cc673G5Z.s:218    .text:000000000000016c .LFB2
     /tmp/cc673G5Z.s:354    .text:0000000000000260 .LFE2
     /tmp/cc673G5Z.s:3219   .debug_loc:0000000000000144 .LLST7
     /tmp/cc673G5Z.s:3237   .debug_loc:0000000000000190 .LLST8
     /tmp/cc673G5Z.s:3255   .debug_loc:00000000000001dc .LLST9
     /tmp/cc673G5Z.s:3441   .debug_ranges:0000000000000000 .Ldebug_ranges0
     /tmp/cc673G5Z.s:3279   .debug_loc:000000000000024c .LLST10
     /tmp/cc673G5Z.s:249    .text:000000000000019c .LVL30
     /tmp/cc673G5Z.s:257    .text:00000000000001ac .LVL32
     /tmp/cc673G5Z.s:269    .text:00000000000001c4 .LVL33
     /tmp/cc673G5Z.s:280    .text:00000000000001d8 .LVL36
     /tmp/cc673G5Z.s:302    .text:00000000000001fc .LBB4
     /tmp/cc673G5Z.s:315    .text:0000000000000214 .LBE4
     /tmp/cc673G5Z.s:3286   .debug_loc:000000000000026f .LLST11
     /tmp/cc673G5Z.s:307    .text:0000000000000208 .LVL38
     /tmp/cc673G5Z.s:313    .text:0000000000000214 .LVL40
     /tmp/cc673G5Z.s:321    .text:0000000000000220 .LVL41
     /tmp/cc673G5Z.s:330    .text:0000000000000238 .LVL42
     /tmp/cc673G5Z.s:335    .text:0000000000000244 .LVL43
     /tmp/cc673G5Z.s:3599   .debug_str:000000000000041a .LASF79
     /tmp/cc673G5Z.s:3661   .debug_str:00000000000006ac .LASF80
     /tmp/cc673G5Z.s:123    .text:00000000000000c4 .LFB1
     /tmp/cc673G5Z.s:212    .text:000000000000016c .LFE1
     /tmp/cc673G5Z.s:3293   .debug_loc:0000000000000292 .LLST4
     /tmp/cc673G5Z.s:3311   .debug_loc:00000000000002de .LLST5
     /tmp/cc673G5Z.s:3329   .debug_loc:000000000000032a .LLST6
     /tmp/cc673G5Z.s:151    .text:00000000000000f0 .LVL19
     /tmp/cc673G5Z.s:164    .text:0000000000000110 .LVL20
     /tmp/cc673G5Z.s:190    .text:0000000000000148 .LVL23
GAS LISTING /tmp/cc673G5Z.s 			page 32


     /tmp/cc673G5Z.s:195    .text:0000000000000154 .LVL24
     /tmp/cc673G5Z.s:3657   .debug_str:0000000000000685 .LASF81
     /tmp/cc673G5Z.s:3555   .debug_str:00000000000002ed .LASF82
     /tmp/cc673G5Z.s:10     .text:0000000000000000 .LFB0
     /tmp/cc673G5Z.s:117    .text:00000000000000c4 .LFE0
     /tmp/cc673G5Z.s:3353   .debug_loc:000000000000039a .LLST0
     /tmp/cc673G5Z.s:3371   .debug_loc:00000000000003e6 .LLST1
     /tmp/cc673G5Z.s:3389   .debug_loc:0000000000000432 .LLST2
     /tmp/cc673G5Z.s:3404   .debug_loc:000000000000047b .LLST3
     /tmp/cc673G5Z.s:40     .text:000000000000002c .LVL3
     /tmp/cc673G5Z.s:46     .text:0000000000000034 .LVL4
     /tmp/cc673G5Z.s:57     .text:000000000000004c .LVL6
     /tmp/cc673G5Z.s:88     .text:000000000000008c .LVL11
     /tmp/cc673G5Z.s:95     .text:00000000000000a0 .LVL12
     /tmp/cc673G5Z.s:100    .text:00000000000000ac .LVL13
     /tmp/cc673G5Z.s:3597   .debug_str:0000000000000404 .LASF83
     /tmp/cc673G5Z.s:3455   .debug_str:0000000000000011 .LASF85
     /tmp/cc673G5Z.s:3495   .debug_str:0000000000000129 .LASF84
     /tmp/cc673G5Z.s:3487   .debug_str:00000000000000dd .LASF86
     /tmp/cc673G5Z.s:3683   .debug_str:000000000000073f .LASF87
     /tmp/cc673G5Z.s:3619   .debug_str:00000000000004b4 .LASF88
     /tmp/cc673G5Z.s:3687   .debug_str:000000000000075f .LASF89
     /tmp/cc673G5Z.s:3499   .debug_str:000000000000013c .LASF90
     /tmp/cc673G5Z.s:3595   .debug_str:00000000000003f1 .LASF91
     /tmp/cc673G5Z.s:3651   .debug_str:000000000000065c .LASF92
     /tmp/cc673G5Z.s:3603   .debug_str:0000000000000436 .LASF93
     /tmp/cc673G5Z.s:3483   .debug_str:00000000000000c8 .LASF94
     /tmp/cc673G5Z.s:3633   .debug_str:0000000000000504 .LASF98
     /tmp/cc673G5Z.s:3675   .debug_str:0000000000000714 .LASF100
     /tmp/cc673G5Z.s:3511   .debug_str:0000000000000189 .LASF95
     /tmp/cc673G5Z.s:3557   .debug_str:0000000000000304 .LASF96
     /tmp/cc673G5Z.s:3645   .debug_str:0000000000000572 .LASF97
     /tmp/cc673G5Z.s:3693   .debug_str:0000000000000789 .LASF99
     /tmp/cc673G5Z.s:3641   .debug_str:000000000000054e .LASF101
     /tmp/cc673G5Z.s:3535   .debug_str:0000000000000246 .LASF102
     /tmp/cc673G5Z.s:3491   .debug_str:00000000000000fb .LASF103
     /tmp/cc673G5Z.s:3579   .debug_str:0000000000000397 .LASF104
     /tmp/cc673G5Z.s:3669   .debug_str:00000000000006dc .LASF105
     /tmp/cc673G5Z.s:3459   .debug_str:0000000000000030 .LASF106
     /tmp/cc673G5Z.s:455    .text:00000000000002f0 .LVL53
     /tmp/cc673G5Z.s:526    .text:00000000000003a4 .LVL64
     /tmp/cc673G5Z.s:707    .text:000000000000054c .LVL87
     /tmp/cc673G5Z.s:711    .text:0000000000000550 .LVL88
     /tmp/cc673G5Z.s:437    .text:00000000000002c0 .LVL49
     /tmp/cc673G5Z.s:695    .text:0000000000000534 .LVL86
     /tmp/cc673G5Z.s:522    .text:000000000000039c .LVL63
     /tmp/cc673G5Z.s:681    .text:0000000000000520 .LVL85
     /tmp/cc673G5Z.s:545    .text:00000000000003e0 .LVL67
     /tmp/cc673G5Z.s:558    .text:00000000000003fc .LVL69
     /tmp/cc673G5Z.s:560    .text:0000000000000400 .LVL70
     /tmp/cc673G5Z.s:586    .text:0000000000000440 .LVL72
     /tmp/cc673G5Z.s:648    .text:00000000000004d4 .LVL78
     /tmp/cc673G5Z.s:659    .text:00000000000004ec .LVL80
     /tmp/cc673G5Z.s:661    .text:00000000000004f0 .LVL81
     /tmp/cc673G5Z.s:221    .text:000000000000016c .LVL27
     /tmp/cc673G5Z.s:243    .text:0000000000000194 .LVL29
     /tmp/cc673G5Z.s:346    .text:0000000000000254 .LVL44
GAS LISTING /tmp/cc673G5Z.s 			page 33


     /tmp/cc673G5Z.s:238    .text:000000000000018c .LVL28
     /tmp/cc673G5Z.s:251    .text:00000000000001a0 .LVL31
     /tmp/cc673G5Z.s:274    .text:00000000000001cc .LVL34
     /tmp/cc673G5Z.s:296    .text:00000000000001f4 .LVL37
     /tmp/cc673G5Z.s:349    .text:0000000000000258 .LVL45
     /tmp/cc673G5Z.s:278    .text:00000000000001d0 .LVL35
     /tmp/cc673G5Z.s:311    .text:000000000000020c .LVL39
     /tmp/cc673G5Z.s:126    .text:00000000000000c4 .LVL16
     /tmp/cc673G5Z.s:146    .text:00000000000000e8 .LVL18
     /tmp/cc673G5Z.s:204    .text:0000000000000160 .LVL25
     /tmp/cc673G5Z.s:141    .text:00000000000000e0 .LVL17
     /tmp/cc673G5Z.s:169    .text:0000000000000118 .LVL21
     /tmp/cc673G5Z.s:182    .text:0000000000000134 .LVL22
     /tmp/cc673G5Z.s:207    .text:0000000000000164 .LVL26
     /tmp/cc673G5Z.s:14     .text:0000000000000000 .LVL0
     /tmp/cc673G5Z.s:35     .text:0000000000000024 .LVL2
     /tmp/cc673G5Z.s:109    .text:00000000000000b8 .LVL14
     /tmp/cc673G5Z.s:29     .text:000000000000001c .LVL1
     /tmp/cc673G5Z.s:49     .text:0000000000000038 .LVL5
     /tmp/cc673G5Z.s:75     .text:0000000000000070 .LVL8
     /tmp/cc673G5Z.s:84     .text:0000000000000080 .LVL9
     /tmp/cc673G5Z.s:86     .text:0000000000000084 .LVL10
     /tmp/cc673G5Z.s:62     .text:0000000000000054 .LVL7
     /tmp/cc673G5Z.s:112    .text:00000000000000bc .LVL15
     /tmp/cc673G5Z.s:816    .debug_info:0000000000000000 .Ldebug_info0
     /tmp/cc673G5Z.s:245    .text:0000000000000194 .LBB2
     /tmp/cc673G5Z.s:259    .text:00000000000001ac .LBE2
     /tmp/cc673G5Z.s:264    .text:00000000000001b8 .LBB3
     /tmp/cc673G5Z.s:301    .text:00000000000001fc .LBE3
     /tmp/cc673G5Z.s:724    .gcc_except_table:0000000000000000 .LLSDA3

UNDEFINED SYMBOLS
thread_dispatch
getc
_ZN6Buffer3putEi
_Z8printIntiii
sem_signal
putc
_ZN6Buffer3getEv
_ZN6Buffer6getCntEv
_Z11printStringPKc
_Z9getStringPci
_Z11stringToIntPKc
_Znwm
_ZN6BufferC1Ei
sem_open
thread_create
sem_wait
sem_close
_ZN6BufferD1Ev
_ZdlPv
_Unwind_Resume
__gxx_personality_v0
_Z14__print_stringPKc
