GAS LISTING /tmp/cc8k8Hqy.s 			page 1


   1              		.file	"userMain.cpp"
   2              		.option pic
   3              		.option norelax
   4              		.text
   5              	.Ltext0:
   6              		.section	.rodata.str1.8,"aMS",@progbits,1
   7              		.align	3
   8              	.LC0:
   9 0000 413A2069 		.string	"A: i="
   9      3D00
  10 0006 0000     		.align	3
  11              	.LC1:
  12 0008 0A00     		.string	"\n"
  13 000a 00000000 		.align	3
  13      0000
  14              	.LC2:
  15 0010 41206669 		.string	"A finished!\n"
  15      6E697368 
  15      6564210A 
  15      00
  16              		.text
  17              		.align	2
  18              		.globl	_Z11workerBodyAPv
  20              	_Z11workerBodyAPv:
  21              	.LFB1:
  22              		.file 1 "test/../test/Threads_C_API_test.hpp"
   1:test/../test/Threads_C_API_test.hpp **** #ifndef XV6_THREADS_C_API_TEST_HPP
   2:test/../test/Threads_C_API_test.hpp **** #define XV6_THREADS_C_API_TEST_HPP
   3:test/../test/Threads_C_API_test.hpp **** 
   4:test/../test/Threads_C_API_test.hpp **** #include "../h/syscall_c.h"
   5:test/../test/Threads_C_API_test.hpp **** 
   6:test/../test/Threads_C_API_test.hpp **** #include "printing.hpp"
   7:test/../test/Threads_C_API_test.hpp **** 
   8:test/../test/Threads_C_API_test.hpp **** bool finishedA = false;
   9:test/../test/Threads_C_API_test.hpp **** bool finishedB = false;
  10:test/../test/Threads_C_API_test.hpp **** bool finishedC = false;
  11:test/../test/Threads_C_API_test.hpp **** bool finishedD = false;
  12:test/../test/Threads_C_API_test.hpp **** 
  13:test/../test/Threads_C_API_test.hpp **** uint64 fibonacci(uint64 n) {
  14:test/../test/Threads_C_API_test.hpp ****     if (n == 0 || n == 1) { return n; }
  15:test/../test/Threads_C_API_test.hpp ****     if (n % 10 == 0) { thread_dispatch(); }
  16:test/../test/Threads_C_API_test.hpp ****     return fibonacci(n - 1) + fibonacci(n - 2);
  17:test/../test/Threads_C_API_test.hpp **** }
  18:test/../test/Threads_C_API_test.hpp **** 
  19:test/../test/Threads_C_API_test.hpp **** void workerBodyA(void* arg) {
  23              		.loc 1 19 29
  24              		.cfi_startproc
  25              	.LVL0:
  26 0000 130101FE 		addi	sp,sp,-32
  27              		.cfi_def_cfa_offset 32
  28 0004 233C1100 		sd	ra,24(sp)
  29 0008 23388100 		sd	s0,16(sp)
  30 000c 23349100 		sd	s1,8(sp)
  31 0010 23302101 		sd	s2,0(sp)
  32              		.cfi_offset 1, -8
  33              		.cfi_offset 8, -16
  34              		.cfi_offset 9, -24
GAS LISTING /tmp/cc8k8Hqy.s 			page 2


  35              		.cfi_offset 18, -32
  36 0014 13040102 		addi	s0,sp,32
  37              		.cfi_def_cfa 8, 0
  20:test/../test/Threads_C_API_test.hpp ****     for (uint64 i = 0; i < 10; i++) {
  38              		.loc 1 20 5
  39              	.LVL1:
  40              	.LBB2:
  41              		.loc 1 20 17 is_stmt 0
  42 0018 13090000 		li	s2,0
  43 001c 6F008003 		j	.L7
  44              	.LVL2:
  45              	.L4:
  46              	.LBB3:
  47              	.LBB4:
  48              	.LBB5:
  21:test/../test/Threads_C_API_test.hpp ****         printString("A: i="); printInt(i); printString("\n");
  22:test/../test/Threads_C_API_test.hpp ****         for (uint64 j = 0; j < 10000; j++) {
  23:test/../test/Threads_C_API_test.hpp ****             for (uint64 k = 0; k < 30000; k++) { /* busy wait */ }
  24:test/../test/Threads_C_API_test.hpp ****             thread_dispatch();
  49              		.loc 1 24 13 is_stmt 1 discriminator 2
  50              		.loc 1 24 28 is_stmt 0 discriminator 2
  51 0020 97000000 		call	thread_dispatch@plt
  51      E7800000 
  52              	.LVL3:
  53              	.LBE5:
  22:test/../test/Threads_C_API_test.hpp ****             for (uint64 k = 0; k < 30000; k++) { /* busy wait */ }
  54              		.loc 1 22 9 is_stmt 1 discriminator 2
  55 0028 93841400 		addi	s1,s1,1
  56              	.LVL4:
  57              	.L6:
  22:test/../test/Threads_C_API_test.hpp ****             for (uint64 k = 0; k < 30000; k++) { /* busy wait */ }
  58              		.loc 1 22 30 discriminator 1
  59 002c B7270000 		li	a5,8192
  60 0030 9387F770 		addi	a5,a5,1807
  61 0034 63EE9700 		bgtu	s1,a5,.L3
  62              	.LBB7:
  63              	.LBB6:
  23:test/../test/Threads_C_API_test.hpp ****             thread_dispatch();
  64              		.loc 1 23 25 is_stmt 0
  65 0038 13070000 		li	a4,0
  66              	.L5:
  67              	.LVL5:
  23:test/../test/Threads_C_API_test.hpp ****             thread_dispatch();
  68              		.loc 1 23 34 is_stmt 1 discriminator 3
  69 003c B7770000 		li	a5,28672
  70 0040 9387F752 		addi	a5,a5,1327
  71 0044 E3EEE7FC 		bgtu	a4,a5,.L4
  23:test/../test/Threads_C_API_test.hpp ****             thread_dispatch();
  72              		.loc 1 23 13 discriminator 2
  73 0048 13071700 		addi	a4,a4,1
  74              	.LVL6:
  75 004c 6FF01FFF 		j	.L5
  76              	.LVL7:
  77              	.L3:
  78              	.LBE6:
  79              	.LBE7:
  80              	.LBE4:
GAS LISTING /tmp/cc8k8Hqy.s 			page 3


  81              	.LBE3:
  20:test/../test/Threads_C_API_test.hpp ****         printString("A: i="); printInt(i); printString("\n");
  82              		.loc 1 20 5 discriminator 2
  83 0050 13091900 		addi	s2,s2,1
  84              	.LVL8:
  85              	.L7:
  20:test/../test/Threads_C_API_test.hpp ****         printString("A: i="); printInt(i); printString("\n");
  86              		.loc 1 20 26 discriminator 1
  87 0054 93079000 		li	a5,9
  88 0058 63E02705 		bgtu	s2,a5,.L2
  89              	.LBB9:
  21:test/../test/Threads_C_API_test.hpp ****         for (uint64 j = 0; j < 10000; j++) {
  90              		.loc 1 21 9
  21:test/../test/Threads_C_API_test.hpp ****         for (uint64 j = 0; j < 10000; j++) {
  91              		.loc 1 21 20 is_stmt 0
  92 005c 17050000 		lla	a0,.LC0
  92      13050500 
  93 0064 97000000 		call	_Z11printStringPKc@plt
  93      E7800000 
  94              	.LVL9:
  21:test/../test/Threads_C_API_test.hpp ****         for (uint64 j = 0; j < 10000; j++) {
  95              		.loc 1 21 31 is_stmt 1
  21:test/../test/Threads_C_API_test.hpp ****         for (uint64 j = 0; j < 10000; j++) {
  96              		.loc 1 21 39 is_stmt 0
  97 006c 13060000 		li	a2,0
  98 0070 9305A000 		li	a1,10
  99 0074 1B050900 		sext.w	a0,s2
 100 0078 97000000 		call	_Z8printIntiii@plt
 100      E7800000 
 101              	.LVL10:
  21:test/../test/Threads_C_API_test.hpp ****         for (uint64 j = 0; j < 10000; j++) {
 102              		.loc 1 21 44 is_stmt 1
  21:test/../test/Threads_C_API_test.hpp ****         for (uint64 j = 0; j < 10000; j++) {
 103              		.loc 1 21 55 is_stmt 0
 104 0080 17050000 		lla	a0,.LC1
 104      13050500 
 105 0088 97000000 		call	_Z11printStringPKc@plt
 105      E7800000 
 106              	.LVL11:
  22:test/../test/Threads_C_API_test.hpp ****             for (uint64 k = 0; k < 30000; k++) { /* busy wait */ }
 107              		.loc 1 22 9 is_stmt 1
 108              	.LBB8:
  22:test/../test/Threads_C_API_test.hpp ****             for (uint64 k = 0; k < 30000; k++) { /* busy wait */ }
 109              		.loc 1 22 21 is_stmt 0
 110 0090 93040000 		li	s1,0
 111 0094 6FF09FF9 		j	.L6
 112              	.LVL12:
 113              	.L2:
 114              	.LBE8:
 115              	.LBE9:
 116              	.LBE2:
  25:test/../test/Threads_C_API_test.hpp ****         }
  26:test/../test/Threads_C_API_test.hpp ****     }
  27:test/../test/Threads_C_API_test.hpp ****     printString("A finished!\n");
 117              		.loc 1 27 5 is_stmt 1
 118              		.loc 1 27 16 is_stmt 0
 119 0098 17050000 		lla	a0,.LC2
GAS LISTING /tmp/cc8k8Hqy.s 			page 4


 119      13050500 
 120 00a0 97000000 		call	_Z11printStringPKc@plt
 120      E7800000 
 121              	.LVL13:
  28:test/../test/Threads_C_API_test.hpp ****     finishedA = true;
 122              		.loc 1 28 5 is_stmt 1
 123              		.loc 1 28 15 is_stmt 0
 124 00a8 93071000 		li	a5,1
 125 00ac 17070000 		sb	a5,.LANCHOR0,a4
 125      2300F700 
  29:test/../test/Threads_C_API_test.hpp ****     thread_exit();
 126              		.loc 1 29 5 is_stmt 1
 127              		.loc 1 29 16 is_stmt 0
 128 00b4 97000000 		call	thread_exit@plt
 128      E7800000 
 129              	.LVL14:
  30:test/../test/Threads_C_API_test.hpp **** }
 130              		.loc 1 30 1
 131 00bc 83308101 		ld	ra,24(sp)
 132              		.cfi_restore 1
 133 00c0 03340101 		ld	s0,16(sp)
 134              		.cfi_restore 8
 135              		.cfi_def_cfa 2, 32
 136 00c4 83348100 		ld	s1,8(sp)
 137              		.cfi_restore 9
 138 00c8 03390100 		ld	s2,0(sp)
 139              		.cfi_restore 18
 140              	.LVL15:
 141 00cc 13010102 		addi	sp,sp,32
 142              		.cfi_def_cfa_offset 0
 143 00d0 67800000 		jr	ra
 144              		.cfi_endproc
 145              	.LFE1:
 147              		.section	.rodata.str1.8
 148 001d 000000   		.align	3
 149              	.LC3:
 150 0020 423A2069 		.string	"B: i="
 150      3D00
 151 0026 0000     		.align	3
 152              	.LC4:
 153 0028 42206669 		.string	"B finished!\n"
 153      6E697368 
 153      6564210A 
 153      00
 154              		.text
 155              		.align	2
 156              		.globl	_Z11workerBodyBPv
 158              	_Z11workerBodyBPv:
 159              	.LFB2:
  31:test/../test/Threads_C_API_test.hpp **** 
  32:test/../test/Threads_C_API_test.hpp **** void workerBodyB(void* arg) {
 160              		.loc 1 32 29 is_stmt 1
 161              		.cfi_startproc
 162              	.LVL16:
 163 00d4 130101FE 		addi	sp,sp,-32
 164              		.cfi_def_cfa_offset 32
 165 00d8 233C1100 		sd	ra,24(sp)
GAS LISTING /tmp/cc8k8Hqy.s 			page 5


 166 00dc 23388100 		sd	s0,16(sp)
 167 00e0 23349100 		sd	s1,8(sp)
 168 00e4 23302101 		sd	s2,0(sp)
 169              		.cfi_offset 1, -8
 170              		.cfi_offset 8, -16
 171              		.cfi_offset 9, -24
 172              		.cfi_offset 18, -32
 173 00e8 13040102 		addi	s0,sp,32
 174              		.cfi_def_cfa 8, 0
  33:test/../test/Threads_C_API_test.hpp ****     for (uint64 i = 0; i < 16; i++) {
 175              		.loc 1 33 5
 176              	.LVL17:
 177              	.LBB10:
 178              		.loc 1 33 17 is_stmt 0
 179 00ec 13090000 		li	s2,0
 180 00f0 6F008003 		j	.L15
 181              	.LVL18:
 182              	.L12:
 183              	.LBB11:
 184              	.LBB12:
 185              	.LBB13:
  34:test/../test/Threads_C_API_test.hpp ****         printString("B: i="); printInt(i); printString("\n");
  35:test/../test/Threads_C_API_test.hpp ****         for (uint64 j = 0; j < 10000; j++) {
  36:test/../test/Threads_C_API_test.hpp ****             for (uint64 k = 0; k < 30000; k++) { /* busy wait */ }
  37:test/../test/Threads_C_API_test.hpp ****             thread_dispatch();
 186              		.loc 1 37 13 is_stmt 1 discriminator 2
 187              		.loc 1 37 28 is_stmt 0 discriminator 2
 188 00f4 97000000 		call	thread_dispatch@plt
 188      E7800000 
 189              	.LVL19:
 190              	.LBE13:
  35:test/../test/Threads_C_API_test.hpp ****             for (uint64 k = 0; k < 30000; k++) { /* busy wait */ }
 191              		.loc 1 35 9 is_stmt 1 discriminator 2
 192 00fc 93841400 		addi	s1,s1,1
 193              	.LVL20:
 194              	.L14:
  35:test/../test/Threads_C_API_test.hpp ****             for (uint64 k = 0; k < 30000; k++) { /* busy wait */ }
 195              		.loc 1 35 30 discriminator 1
 196 0100 B7270000 		li	a5,8192
 197 0104 9387F770 		addi	a5,a5,1807
 198 0108 63EE9700 		bgtu	s1,a5,.L11
 199              	.LBB15:
 200              	.LBB14:
  36:test/../test/Threads_C_API_test.hpp ****             thread_dispatch();
 201              		.loc 1 36 25 is_stmt 0
 202 010c 13070000 		li	a4,0
 203              	.L13:
 204              	.LVL21:
  36:test/../test/Threads_C_API_test.hpp ****             thread_dispatch();
 205              		.loc 1 36 34 is_stmt 1 discriminator 3
 206 0110 B7770000 		li	a5,28672
 207 0114 9387F752 		addi	a5,a5,1327
 208 0118 E3EEE7FC 		bgtu	a4,a5,.L12
  36:test/../test/Threads_C_API_test.hpp ****             thread_dispatch();
 209              		.loc 1 36 13 discriminator 2
 210 011c 13071700 		addi	a4,a4,1
 211              	.LVL22:
GAS LISTING /tmp/cc8k8Hqy.s 			page 6


 212 0120 6FF01FFF 		j	.L13
 213              	.LVL23:
 214              	.L11:
 215              	.LBE14:
 216              	.LBE15:
 217              	.LBE12:
 218              	.LBE11:
  33:test/../test/Threads_C_API_test.hpp ****         printString("B: i="); printInt(i); printString("\n");
 219              		.loc 1 33 5 discriminator 2
 220 0124 13091900 		addi	s2,s2,1
 221              	.LVL24:
 222              	.L15:
  33:test/../test/Threads_C_API_test.hpp ****         printString("B: i="); printInt(i); printString("\n");
 223              		.loc 1 33 26 discriminator 1
 224 0128 9307F000 		li	a5,15
 225 012c 63E02705 		bgtu	s2,a5,.L10
 226              	.LBB17:
  34:test/../test/Threads_C_API_test.hpp ****         for (uint64 j = 0; j < 10000; j++) {
 227              		.loc 1 34 9
  34:test/../test/Threads_C_API_test.hpp ****         for (uint64 j = 0; j < 10000; j++) {
 228              		.loc 1 34 20 is_stmt 0
 229 0130 17050000 		lla	a0,.LC3
 229      13050500 
 230 0138 97000000 		call	_Z11printStringPKc@plt
 230      E7800000 
 231              	.LVL25:
  34:test/../test/Threads_C_API_test.hpp ****         for (uint64 j = 0; j < 10000; j++) {
 232              		.loc 1 34 31 is_stmt 1
  34:test/../test/Threads_C_API_test.hpp ****         for (uint64 j = 0; j < 10000; j++) {
 233              		.loc 1 34 39 is_stmt 0
 234 0140 13060000 		li	a2,0
 235 0144 9305A000 		li	a1,10
 236 0148 1B050900 		sext.w	a0,s2
 237 014c 97000000 		call	_Z8printIntiii@plt
 237      E7800000 
 238              	.LVL26:
  34:test/../test/Threads_C_API_test.hpp ****         for (uint64 j = 0; j < 10000; j++) {
 239              		.loc 1 34 44 is_stmt 1
  34:test/../test/Threads_C_API_test.hpp ****         for (uint64 j = 0; j < 10000; j++) {
 240              		.loc 1 34 55 is_stmt 0
 241 0154 17050000 		lla	a0,.LC1
 241      13050500 
 242 015c 97000000 		call	_Z11printStringPKc@plt
 242      E7800000 
 243              	.LVL27:
  35:test/../test/Threads_C_API_test.hpp ****             for (uint64 k = 0; k < 30000; k++) { /* busy wait */ }
 244              		.loc 1 35 9 is_stmt 1
 245              	.LBB16:
  35:test/../test/Threads_C_API_test.hpp ****             for (uint64 k = 0; k < 30000; k++) { /* busy wait */ }
 246              		.loc 1 35 21 is_stmt 0
 247 0164 93040000 		li	s1,0
 248 0168 6FF09FF9 		j	.L14
 249              	.LVL28:
 250              	.L10:
 251              	.LBE16:
 252              	.LBE17:
 253              	.LBE10:
GAS LISTING /tmp/cc8k8Hqy.s 			page 7


  38:test/../test/Threads_C_API_test.hpp ****         }
  39:test/../test/Threads_C_API_test.hpp ****     }
  40:test/../test/Threads_C_API_test.hpp ****     printString("B finished!\n");
 254              		.loc 1 40 5 is_stmt 1
 255              		.loc 1 40 16 is_stmt 0
 256 016c 17050000 		lla	a0,.LC4
 256      13050500 
 257 0174 97000000 		call	_Z11printStringPKc@plt
 257      E7800000 
 258              	.LVL29:
  41:test/../test/Threads_C_API_test.hpp ****     finishedB = true;
 259              		.loc 1 41 5 is_stmt 1
 260              		.loc 1 41 15 is_stmt 0
 261 017c 93071000 		li	a5,1
 262 0180 17070000 		sb	a5,.LANCHOR0+1,a4
 262      2300F700 
  42:test/../test/Threads_C_API_test.hpp ****     //thread_dispatch();
  43:test/../test/Threads_C_API_test.hpp ****     thread_exit();
 263              		.loc 1 43 5 is_stmt 1
 264              		.loc 1 43 16 is_stmt 0
 265 0188 97000000 		call	thread_exit@plt
 265      E7800000 
 266              	.LVL30:
  44:test/../test/Threads_C_API_test.hpp **** }
 267              		.loc 1 44 1
 268 0190 83308101 		ld	ra,24(sp)
 269              		.cfi_restore 1
 270 0194 03340101 		ld	s0,16(sp)
 271              		.cfi_restore 8
 272              		.cfi_def_cfa 2, 32
 273 0198 83348100 		ld	s1,8(sp)
 274              		.cfi_restore 9
 275 019c 03390100 		ld	s2,0(sp)
 276              		.cfi_restore 18
 277              	.LVL31:
 278 01a0 13010102 		addi	sp,sp,32
 279              		.cfi_def_cfa_offset 0
 280 01a4 67800000 		jr	ra
 281              		.cfi_endproc
 282              	.LFE2:
 284              		.align	2
 285              		.globl	_Z9fibonaccim
 287              	_Z9fibonaccim:
 288              	.LFB0:
  13:test/../test/Threads_C_API_test.hpp ****     if (n == 0 || n == 1) { return n; }
 289              		.loc 1 13 28 is_stmt 1
 290              		.cfi_startproc
 291              	.LVL32:
 292 01a8 130101FE 		addi	sp,sp,-32
 293              		.cfi_def_cfa_offset 32
 294 01ac 233C1100 		sd	ra,24(sp)
 295 01b0 23388100 		sd	s0,16(sp)
 296 01b4 23349100 		sd	s1,8(sp)
 297 01b8 23302101 		sd	s2,0(sp)
 298              		.cfi_offset 1, -8
 299              		.cfi_offset 8, -16
 300              		.cfi_offset 9, -24
GAS LISTING /tmp/cc8k8Hqy.s 			page 8


 301              		.cfi_offset 18, -32
 302 01bc 13040102 		addi	s0,sp,32
 303              		.cfi_def_cfa 8, 0
 304 01c0 93040500 		mv	s1,a0
  14:test/../test/Threads_C_API_test.hpp ****     if (n % 10 == 0) { thread_dispatch(); }
 305              		.loc 1 14 5
 306 01c4 93071000 		li	a5,1
 307 01c8 63F8A702 		bleu	a0,a5,.L17
  15:test/../test/Threads_C_API_test.hpp ****     return fibonacci(n - 1) + fibonacci(n - 2);
 308              		.loc 1 15 5
  15:test/../test/Threads_C_API_test.hpp ****     return fibonacci(n - 1) + fibonacci(n - 2);
 309              		.loc 1 15 11 is_stmt 0
 310 01cc 9307A000 		li	a5,10
 311 01d0 B377F502 		remu	a5,a0,a5
  15:test/../test/Threads_C_API_test.hpp ****     return fibonacci(n - 1) + fibonacci(n - 2);
 312              		.loc 1 15 5
 313 01d4 638E0702 		beqz	a5,.L22
 314              	.LVL33:
 315              	.L19:
  16:test/../test/Threads_C_API_test.hpp **** }
 316              		.loc 1 16 5 is_stmt 1
  16:test/../test/Threads_C_API_test.hpp **** }
 317              		.loc 1 16 21 is_stmt 0
 318 01d8 1385F4FF 		addi	a0,s1,-1
 319 01dc 97000000 		call	_Z9fibonaccim
 319      E7800000 
 320              	.LVL34:
 321 01e4 13090500 		mv	s2,a0
  16:test/../test/Threads_C_API_test.hpp **** }
 322              		.loc 1 16 40
 323 01e8 1385E4FF 		addi	a0,s1,-2
 324 01ec 97000000 		call	_Z9fibonaccim
 324      E7800000 
 325              	.LVL35:
  16:test/../test/Threads_C_API_test.hpp **** }
 326              		.loc 1 16 46
 327 01f4 3305A900 		add	a0,s2,a0
 328              	.L17:
  17:test/../test/Threads_C_API_test.hpp **** 
 329              		.loc 1 17 1
 330 01f8 83308101 		ld	ra,24(sp)
 331              		.cfi_remember_state
 332              		.cfi_restore 1
 333 01fc 03340101 		ld	s0,16(sp)
 334              		.cfi_restore 8
 335              		.cfi_def_cfa 2, 32
 336 0200 83348100 		ld	s1,8(sp)
 337              		.cfi_restore 9
 338              	.LVL36:
 339 0204 03390100 		ld	s2,0(sp)
 340              		.cfi_restore 18
 341 0208 13010102 		addi	sp,sp,32
 342              		.cfi_def_cfa_offset 0
 343 020c 67800000 		jr	ra
 344              	.LVL37:
 345              	.L22:
 346              		.cfi_restore_state
GAS LISTING /tmp/cc8k8Hqy.s 			page 9


  15:test/../test/Threads_C_API_test.hpp ****     return fibonacci(n - 1) + fibonacci(n - 2);
 347              		.loc 1 15 24 is_stmt 1 discriminator 1
  15:test/../test/Threads_C_API_test.hpp ****     return fibonacci(n - 1) + fibonacci(n - 2);
 348              		.loc 1 15 39 is_stmt 0 discriminator 1
 349 0210 97000000 		call	thread_dispatch@plt
 349      E7800000 
 350              	.LVL38:
 351 0218 6FF01FFC 		j	.L19
 352              		.cfi_endproc
 353              	.LFE0:
 355              		.section	.rodata.str1.8
 356 0035 000000   		.align	3
 357              	.LC5:
 358 0038 433A2069 		.string	"C: i="
 358      3D00
 359 003e 0000     		.align	3
 360              	.LC6:
 361 0040 433A2064 		.string	"C: dispatch\n"
 361      69737061 
 361      7463680A 
 361      00
 362 004d 000000   		.align	3
 363              	.LC7:
 364 0050 433A2074 		.string	"C: t1="
 364      313D00
 365 0057 00       		.align	3
 366              	.LC8:
 367 0058 433A2066 		.string	"C: fibonaci="
 367      69626F6E 
 367      6163693D 
 367      00
 368              		.text
 369              		.align	2
 370              		.globl	_Z11workerBodyCPv
 372              	_Z11workerBodyCPv:
 373              	.LFB3:
  45:test/../test/Threads_C_API_test.hpp **** 
  46:test/../test/Threads_C_API_test.hpp **** void workerBodyC(void* arg) {
 374              		.loc 1 46 29 is_stmt 1
 375              		.cfi_startproc
 376              	.LVL39:
 377 021c 130101FE 		addi	sp,sp,-32
 378              		.cfi_def_cfa_offset 32
 379 0220 233C1100 		sd	ra,24(sp)
 380 0224 23388100 		sd	s0,16(sp)
 381 0228 23349100 		sd	s1,8(sp)
 382 022c 23302101 		sd	s2,0(sp)
 383              		.cfi_offset 1, -8
 384              		.cfi_offset 8, -16
 385              		.cfi_offset 9, -24
 386              		.cfi_offset 18, -32
 387 0230 13040102 		addi	s0,sp,32
 388              		.cfi_def_cfa 8, 0
  47:test/../test/Threads_C_API_test.hpp ****     uint8 i = 0;
 389              		.loc 1 47 5
 390              	.LVL40:
 391              		.loc 1 47 11 is_stmt 0
GAS LISTING /tmp/cc8k8Hqy.s 			page 10


 392 0234 93040000 		li	s1,0
 393 0238 6F000004 		j	.L25
 394              	.LVL41:
 395              	.L29:
  48:test/../test/Threads_C_API_test.hpp ****     for (; i < 3; i++) {
  49:test/../test/Threads_C_API_test.hpp ****         printString("C: i="); printInt(i); printString("\n");
 396              		.loc 1 49 9 is_stmt 1 discriminator 1
 397              		.loc 1 49 20 is_stmt 0 discriminator 1
 398 023c 17050000 		lla	a0,.LC5
 398      13050500 
 399 0244 97000000 		call	_Z11printStringPKc@plt
 399      E7800000 
 400              	.LVL42:
 401              		.loc 1 49 31 is_stmt 1 discriminator 1
 402              		.loc 1 49 39 is_stmt 0 discriminator 1
 403 024c 13060000 		li	a2,0
 404 0250 9305A000 		li	a1,10
 405 0254 13850400 		mv	a0,s1
 406 0258 97000000 		call	_Z8printIntiii@plt
 406      E7800000 
 407              	.LVL43:
 408              		.loc 1 49 44 is_stmt 1 discriminator 1
 409              		.loc 1 49 55 is_stmt 0 discriminator 1
 410 0260 17050000 		lla	a0,.LC1
 410      13050500 
 411 0268 97000000 		call	_Z11printStringPKc@plt
 411      E7800000 
 412              	.LVL44:
  48:test/../test/Threads_C_API_test.hpp ****     for (; i < 3; i++) {
 413              		.loc 1 48 5 is_stmt 1 discriminator 1
 414 0270 9B841400 		addiw	s1,s1,1
 415              	.LVL45:
 416 0274 93F4F40F 		andi	s1,s1,0xff
 417              	.LVL46:
 418              	.L25:
  48:test/../test/Threads_C_API_test.hpp ****     for (; i < 3; i++) {
 419              		.loc 1 48 5 discriminator 2
  48:test/../test/Threads_C_API_test.hpp ****     for (; i < 3; i++) {
 420              		.loc 1 48 14 discriminator 2
 421 0278 93072000 		li	a5,2
 422 027c E3F097FC 		bleu	s1,a5,.L29
  50:test/../test/Threads_C_API_test.hpp ****     }
  51:test/../test/Threads_C_API_test.hpp **** 
  52:test/../test/Threads_C_API_test.hpp ****     printString("C: dispatch\n");
 423              		.loc 1 52 5
 424              		.loc 1 52 16 is_stmt 0
 425 0280 17050000 		lla	a0,.LC6
 425      13050500 
 426 0288 97000000 		call	_Z11printStringPKc@plt
 426      E7800000 
 427              	.LVL47:
  53:test/../test/Threads_C_API_test.hpp ****     __asm__ ("li t1, 7");
 428              		.loc 1 53 5 is_stmt 1
 429              		.loc 1 53 25 is_stmt 0
 430              	#APP
 431              	# 53 "test/../test/Threads_C_API_test.hpp" 1
  54              	    thread_dispatch();
GAS LISTING /tmp/cc8k8Hqy.s 			page 11


 432              		li t1, 7
 433              	# 0 "" 2
 434              		.loc 1 54 5 is_stmt 1
 435              		.loc 1 54 20 is_stmt 0
 436              	#NO_APP
 437 0294 97000000 		call	thread_dispatch@plt
 437      E7800000 
 438              	.LVL48:
  55:test/../test/Threads_C_API_test.hpp **** 
  56:test/../test/Threads_C_API_test.hpp ****     uint64 t1 = 0;
 439              		.loc 1 56 5 is_stmt 1
  57:test/../test/Threads_C_API_test.hpp ****     __asm__ ("mv %[t1], t1" : [t1] "=r"(t1));
 440              		.loc 1 57 5
 441              		.loc 1 57 45 is_stmt 0
 442              	#APP
 443              	# 57 "test/../test/Threads_C_API_test.hpp" 1
  58              	
 444              		mv s2, t1
 445              	# 0 "" 2
 446              	.LVL49:
  59:test/../test/Threads_C_API_test.hpp ****     printString("C: t1="); printInt(t1); printString("\n");
 447              		.loc 1 59 5 is_stmt 1
 448              		.loc 1 59 16 is_stmt 0
 449              	#NO_APP
 450 02a0 17050000 		lla	a0,.LC7
 450      13050500 
 451 02a8 97000000 		call	_Z11printStringPKc@plt
 451      E7800000 
 452              	.LVL50:
 453              		.loc 1 59 28 is_stmt 1
 454              		.loc 1 59 36 is_stmt 0
 455 02b0 13060000 		li	a2,0
 456 02b4 9305A000 		li	a1,10
 457 02b8 1B050900 		sext.w	a0,s2
 458 02bc 97000000 		call	_Z8printIntiii@plt
 458      E7800000 
 459              	.LVL51:
 460              		.loc 1 59 42 is_stmt 1
 461              		.loc 1 59 53 is_stmt 0
 462 02c4 17050000 		lla	a0,.LC1
 462      13050500 
 463 02cc 97000000 		call	_Z11printStringPKc@plt
 463      E7800000 
 464              	.LVL52:
  60:test/../test/Threads_C_API_test.hpp **** 
  61:test/../test/Threads_C_API_test.hpp ****     uint64 result = fibonacci(12);
 465              		.loc 1 61 5 is_stmt 1
 466              		.loc 1 61 30 is_stmt 0
 467 02d4 1305C000 		li	a0,12
 468 02d8 97000000 		call	_Z9fibonaccim
 468      E7800000 
 469              	.LVL53:
 470 02e0 13090500 		mv	s2,a0
 471              	.LVL54:
  62:test/../test/Threads_C_API_test.hpp ****     printString("C: fibonaci="); printInt(result); printString("\n");
 472              		.loc 1 62 5 is_stmt 1
 473              		.loc 1 62 16 is_stmt 0
GAS LISTING /tmp/cc8k8Hqy.s 			page 12


 474 02e4 17050000 		lla	a0,.LC8
 474      13050500 
 475              	.LVL55:
 476 02ec 97000000 		call	_Z11printStringPKc@plt
 476      E7800000 
 477              	.LVL56:
 478              		.loc 1 62 34 is_stmt 1
 479              		.loc 1 62 42 is_stmt 0
 480 02f4 13060000 		li	a2,0
 481 02f8 9305A000 		li	a1,10
 482 02fc 1B050900 		sext.w	a0,s2
 483 0300 97000000 		call	_Z8printIntiii@plt
 483      E7800000 
 484              	.LVL57:
 485              		.loc 1 62 52 is_stmt 1
 486              		.loc 1 62 63 is_stmt 0
 487 0308 17050000 		lla	a0,.LC1
 487      13050500 
 488 0310 97000000 		call	_Z11printStringPKc@plt
 488      E7800000 
 489              	.LVL58:
 490 0318 6F000004 		j	.L27
 491              	.L30:
  63:test/../test/Threads_C_API_test.hpp **** 
  64:test/../test/Threads_C_API_test.hpp ****     for (; i < 6; i++) {
  65:test/../test/Threads_C_API_test.hpp ****         printString("C: i="); printInt(i); printString("\n");
 492              		.loc 1 65 9 is_stmt 1 discriminator 1
 493              		.loc 1 65 20 is_stmt 0 discriminator 1
 494 031c 17050000 		lla	a0,.LC5
 494      13050500 
 495 0324 97000000 		call	_Z11printStringPKc@plt
 495      E7800000 
 496              	.LVL59:
 497              		.loc 1 65 31 is_stmt 1 discriminator 1
 498              		.loc 1 65 39 is_stmt 0 discriminator 1
 499 032c 13060000 		li	a2,0
 500 0330 9305A000 		li	a1,10
 501 0334 13850400 		mv	a0,s1
 502 0338 97000000 		call	_Z8printIntiii@plt
 502      E7800000 
 503              	.LVL60:
 504              		.loc 1 65 44 is_stmt 1 discriminator 1
 505              		.loc 1 65 55 is_stmt 0 discriminator 1
 506 0340 17050000 		lla	a0,.LC1
 506      13050500 
 507 0348 97000000 		call	_Z11printStringPKc@plt
 507      E7800000 
 508              	.LVL61:
  64:test/../test/Threads_C_API_test.hpp ****         printString("C: i="); printInt(i); printString("\n");
 509              		.loc 1 64 5 is_stmt 1 discriminator 1
 510 0350 9B841400 		addiw	s1,s1,1
 511              	.LVL62:
 512 0354 93F4F40F 		andi	s1,s1,0xff
 513              	.LVL63:
 514              	.L27:
  64:test/../test/Threads_C_API_test.hpp ****         printString("C: i="); printInt(i); printString("\n");
 515              		.loc 1 64 5 discriminator 2
GAS LISTING /tmp/cc8k8Hqy.s 			page 13


  64:test/../test/Threads_C_API_test.hpp ****         printString("C: i="); printInt(i); printString("\n");
 516              		.loc 1 64 14 discriminator 2
 517 0358 93075000 		li	a5,5
 518 035c E3F097FC 		bleu	s1,a5,.L30
  66:test/../test/Threads_C_API_test.hpp ****     }
  67:test/../test/Threads_C_API_test.hpp **** 
  68:test/../test/Threads_C_API_test.hpp ****     printString("A finished!\n");
 519              		.loc 1 68 5
 520              		.loc 1 68 16 is_stmt 0
 521 0360 17050000 		lla	a0,.LC2
 521      13050500 
 522 0368 97000000 		call	_Z11printStringPKc@plt
 522      E7800000 
 523              	.LVL64:
  69:test/../test/Threads_C_API_test.hpp ****     finishedC = true;
 524              		.loc 1 69 5 is_stmt 1
 525              		.loc 1 69 15 is_stmt 0
 526 0370 93071000 		li	a5,1
 527 0374 17070000 		sb	a5,.LANCHOR0+2,a4
 527      2300F700 
  70:test/../test/Threads_C_API_test.hpp ****     //thread_dispatch();
  71:test/../test/Threads_C_API_test.hpp ****     thread_exit();
 528              		.loc 1 71 5 is_stmt 1
 529              		.loc 1 71 16 is_stmt 0
 530 037c 97000000 		call	thread_exit@plt
 530      E7800000 
 531              	.LVL65:
  72:test/../test/Threads_C_API_test.hpp **** }
 532              		.loc 1 72 1
 533 0384 83308101 		ld	ra,24(sp)
 534              		.cfi_restore 1
 535 0388 03340101 		ld	s0,16(sp)
 536              		.cfi_restore 8
 537              		.cfi_def_cfa 2, 32
 538 038c 83348100 		ld	s1,8(sp)
 539              		.cfi_restore 9
 540              	.LVL66:
 541 0390 03390100 		ld	s2,0(sp)
 542              		.cfi_restore 18
 543              	.LVL67:
 544 0394 13010102 		addi	sp,sp,32
 545              		.cfi_def_cfa_offset 0
 546 0398 67800000 		jr	ra
 547              		.cfi_endproc
 548              	.LFE3:
 550              		.section	.rodata.str1.8
 551 0065 000000   		.align	3
 552              	.LC9:
 553 0068 443A2069 		.string	"D: i="
 553      3D00
 554 006e 0000     		.align	3
 555              	.LC10:
 556 0070 443A2064 		.string	"D: dispatch\n"
 556      69737061 
 556      7463680A 
 556      00
 557 007d 000000   		.align	3
GAS LISTING /tmp/cc8k8Hqy.s 			page 14


 558              	.LC11:
 559 0080 443A2066 		.string	"D: fibonaci="
 559      69626F6E 
 559      6163693D 
 559      00
 560 008d 000000   		.align	3
 561              	.LC12:
 562 0090 44206669 		.string	"D finished!\n"
 562      6E697368 
 562      6564210A 
 562      00
 563              		.text
 564              		.align	2
 565              		.globl	_Z11workerBodyDPv
 567              	_Z11workerBodyDPv:
 568              	.LFB4:
  73:test/../test/Threads_C_API_test.hpp **** 
  74:test/../test/Threads_C_API_test.hpp **** void workerBodyD(void* arg) {
 569              		.loc 1 74 29 is_stmt 1
 570              		.cfi_startproc
 571              	.LVL68:
 572 039c 130101FE 		addi	sp,sp,-32
 573              		.cfi_def_cfa_offset 32
 574 03a0 233C1100 		sd	ra,24(sp)
 575 03a4 23388100 		sd	s0,16(sp)
 576 03a8 23349100 		sd	s1,8(sp)
 577 03ac 23302101 		sd	s2,0(sp)
 578              		.cfi_offset 1, -8
 579              		.cfi_offset 8, -16
 580              		.cfi_offset 9, -24
 581              		.cfi_offset 18, -32
 582 03b0 13040102 		addi	s0,sp,32
 583              		.cfi_def_cfa 8, 0
  75:test/../test/Threads_C_API_test.hpp ****     uint8 i = 10;
 584              		.loc 1 75 5
 585              	.LVL69:
 586              		.loc 1 75 11 is_stmt 0
 587 03b4 9304A000 		li	s1,10
 588 03b8 6F000004 		j	.L33
 589              	.LVL70:
 590              	.L37:
  76:test/../test/Threads_C_API_test.hpp ****     for (; i < 13; i++) {
  77:test/../test/Threads_C_API_test.hpp ****         printString("D: i="); printInt(i); printString("\n");
 591              		.loc 1 77 9 is_stmt 1 discriminator 1
 592              		.loc 1 77 20 is_stmt 0 discriminator 1
 593 03bc 17050000 		lla	a0,.LC9
 593      13050500 
 594 03c4 97000000 		call	_Z11printStringPKc@plt
 594      E7800000 
 595              	.LVL71:
 596              		.loc 1 77 31 is_stmt 1 discriminator 1
 597              		.loc 1 77 39 is_stmt 0 discriminator 1
 598 03cc 13060000 		li	a2,0
 599 03d0 9305A000 		li	a1,10
 600 03d4 13850400 		mv	a0,s1
 601 03d8 97000000 		call	_Z8printIntiii@plt
 601      E7800000 
GAS LISTING /tmp/cc8k8Hqy.s 			page 15


 602              	.LVL72:
 603              		.loc 1 77 44 is_stmt 1 discriminator 1
 604              		.loc 1 77 55 is_stmt 0 discriminator 1
 605 03e0 17050000 		lla	a0,.LC1
 605      13050500 
 606 03e8 97000000 		call	_Z11printStringPKc@plt
 606      E7800000 
 607              	.LVL73:
  76:test/../test/Threads_C_API_test.hpp ****     for (; i < 13; i++) {
 608              		.loc 1 76 5 is_stmt 1 discriminator 1
 609 03f0 9B841400 		addiw	s1,s1,1
 610              	.LVL74:
 611 03f4 93F4F40F 		andi	s1,s1,0xff
 612              	.LVL75:
 613              	.L33:
  76:test/../test/Threads_C_API_test.hpp ****     for (; i < 13; i++) {
 614              		.loc 1 76 5 discriminator 2
  76:test/../test/Threads_C_API_test.hpp ****     for (; i < 13; i++) {
 615              		.loc 1 76 14 discriminator 2
 616 03f8 9307C000 		li	a5,12
 617 03fc E3F097FC 		bleu	s1,a5,.L37
  78:test/../test/Threads_C_API_test.hpp ****     }
  79:test/../test/Threads_C_API_test.hpp **** 
  80:test/../test/Threads_C_API_test.hpp ****     printString("D: dispatch\n");
 618              		.loc 1 80 5
 619              		.loc 1 80 16 is_stmt 0
 620 0400 17050000 		lla	a0,.LC10
 620      13050500 
 621 0408 97000000 		call	_Z11printStringPKc@plt
 621      E7800000 
 622              	.LVL76:
  81:test/../test/Threads_C_API_test.hpp ****     __asm__ ("li t1, 5");
 623              		.loc 1 81 5 is_stmt 1
 624              		.loc 1 81 25 is_stmt 0
 625              	#APP
 626              	# 81 "test/../test/Threads_C_API_test.hpp" 1
  82              	    thread_dispatch();
 627              		li t1, 5
 628              	# 0 "" 2
 629              		.loc 1 82 5 is_stmt 1
 630              		.loc 1 82 20 is_stmt 0
 631              	#NO_APP
 632 0414 97000000 		call	thread_dispatch@plt
 632      E7800000 
 633              	.LVL77:
  83:test/../test/Threads_C_API_test.hpp **** 
  84:test/../test/Threads_C_API_test.hpp ****     uint64 result = fibonacci(16);
 634              		.loc 1 84 5 is_stmt 1
 635              		.loc 1 84 30 is_stmt 0
 636 041c 13050001 		li	a0,16
 637 0420 97000000 		call	_Z9fibonaccim
 637      E7800000 
 638              	.LVL78:
 639 0428 13090500 		mv	s2,a0
 640              	.LVL79:
  85:test/../test/Threads_C_API_test.hpp ****     printString("D: fibonaci="); printInt(result); printString("\n");
 641              		.loc 1 85 5 is_stmt 1
GAS LISTING /tmp/cc8k8Hqy.s 			page 16


 642              		.loc 1 85 16 is_stmt 0
 643 042c 17050000 		lla	a0,.LC11
 643      13050500 
 644              	.LVL80:
 645 0434 97000000 		call	_Z11printStringPKc@plt
 645      E7800000 
 646              	.LVL81:
 647              		.loc 1 85 34 is_stmt 1
 648              		.loc 1 85 42 is_stmt 0
 649 043c 13060000 		li	a2,0
 650 0440 9305A000 		li	a1,10
 651 0444 1B050900 		sext.w	a0,s2
 652 0448 97000000 		call	_Z8printIntiii@plt
 652      E7800000 
 653              	.LVL82:
 654              		.loc 1 85 52 is_stmt 1
 655              		.loc 1 85 63 is_stmt 0
 656 0450 17050000 		lla	a0,.LC1
 656      13050500 
 657 0458 97000000 		call	_Z11printStringPKc@plt
 657      E7800000 
 658              	.LVL83:
 659 0460 6F000004 		j	.L35
 660              	.L38:
  86:test/../test/Threads_C_API_test.hpp **** 
  87:test/../test/Threads_C_API_test.hpp ****     for (; i < 16; i++) {
  88:test/../test/Threads_C_API_test.hpp ****         printString("D: i="); printInt(i); printString("\n");
 661              		.loc 1 88 9 is_stmt 1 discriminator 1
 662              		.loc 1 88 20 is_stmt 0 discriminator 1
 663 0464 17050000 		lla	a0,.LC9
 663      13050500 
 664 046c 97000000 		call	_Z11printStringPKc@plt
 664      E7800000 
 665              	.LVL84:
 666              		.loc 1 88 31 is_stmt 1 discriminator 1
 667              		.loc 1 88 39 is_stmt 0 discriminator 1
 668 0474 13060000 		li	a2,0
 669 0478 9305A000 		li	a1,10
 670 047c 13850400 		mv	a0,s1
 671 0480 97000000 		call	_Z8printIntiii@plt
 671      E7800000 
 672              	.LVL85:
 673              		.loc 1 88 44 is_stmt 1 discriminator 1
 674              		.loc 1 88 55 is_stmt 0 discriminator 1
 675 0488 17050000 		lla	a0,.LC1
 675      13050500 
 676 0490 97000000 		call	_Z11printStringPKc@plt
 676      E7800000 
 677              	.LVL86:
  87:test/../test/Threads_C_API_test.hpp ****         printString("D: i="); printInt(i); printString("\n");
 678              		.loc 1 87 5 is_stmt 1 discriminator 1
 679 0498 9B841400 		addiw	s1,s1,1
 680              	.LVL87:
 681 049c 93F4F40F 		andi	s1,s1,0xff
 682              	.LVL88:
 683              	.L35:
  87:test/../test/Threads_C_API_test.hpp ****         printString("D: i="); printInt(i); printString("\n");
GAS LISTING /tmp/cc8k8Hqy.s 			page 17


 684              		.loc 1 87 5 discriminator 2
  87:test/../test/Threads_C_API_test.hpp ****         printString("D: i="); printInt(i); printString("\n");
 685              		.loc 1 87 14 discriminator 2
 686 04a0 9307F000 		li	a5,15
 687 04a4 E3F097FC 		bleu	s1,a5,.L38
  89:test/../test/Threads_C_API_test.hpp ****     }
  90:test/../test/Threads_C_API_test.hpp **** 
  91:test/../test/Threads_C_API_test.hpp ****     printString("D finished!\n");
 688              		.loc 1 91 5
 689              		.loc 1 91 16 is_stmt 0
 690 04a8 17050000 		lla	a0,.LC12
 690      13050500 
 691 04b0 97000000 		call	_Z11printStringPKc@plt
 691      E7800000 
 692              	.LVL89:
  92:test/../test/Threads_C_API_test.hpp ****     finishedD = true;
 693              		.loc 1 92 5 is_stmt 1
 694              		.loc 1 92 15 is_stmt 0
 695 04b8 93071000 		li	a5,1
 696 04bc 17070000 		sb	a5,.LANCHOR0+3,a4
 696      2300F700 
  93:test/../test/Threads_C_API_test.hpp ****     //thread_dispatch();
  94:test/../test/Threads_C_API_test.hpp ****     thread_exit();
 697              		.loc 1 94 5 is_stmt 1
 698              		.loc 1 94 16 is_stmt 0
 699 04c4 97000000 		call	thread_exit@plt
 699      E7800000 
 700              	.LVL90:
  95:test/../test/Threads_C_API_test.hpp **** }
 701              		.loc 1 95 1
 702 04cc 83308101 		ld	ra,24(sp)
 703              		.cfi_restore 1
 704 04d0 03340101 		ld	s0,16(sp)
 705              		.cfi_restore 8
 706              		.cfi_def_cfa 2, 32
 707 04d4 83348100 		ld	s1,8(sp)
 708              		.cfi_restore 9
 709              	.LVL91:
 710 04d8 03390100 		ld	s2,0(sp)
 711              		.cfi_restore 18
 712              	.LVL92:
 713 04dc 13010102 		addi	sp,sp,32
 714              		.cfi_def_cfa_offset 0
 715 04e0 67800000 		jr	ra
 716              		.cfi_endproc
 717              	.LFE4:
 719              		.section	.rodata.str1.8
 720 009d 000000   		.align	3
 721              	.LC13:
 722 00a0 54687265 		.string	"ThreadA created\n"
 722      61644120 
 722      63726561 
 722      7465640A 
 722      00
 723 00b1 00000000 		.align	3
 723      000000
 724              	.LC14:
GAS LISTING /tmp/cc8k8Hqy.s 			page 18


 725 00b8 54687265 		.string	"ThreadB created\n"
 725      61644220 
 725      63726561 
 725      7465640A 
 725      00
 726 00c9 00000000 		.align	3
 726      000000
 727              	.LC15:
 728 00d0 54687265 		.string	"ThreadC created\n"
 728      61644320 
 728      63726561 
 728      7465640A 
 728      00
 729 00e1 00000000 		.align	3
 729      000000
 730              	.LC16:
 731 00e8 54687265 		.string	"ThreadD created\n"
 731      61644420 
 731      63726561 
 731      7465640A 
 731      00
 732              		.text
 733              		.align	2
 734              		.globl	_Z18Threads_C_API_testv
 736              	_Z18Threads_C_API_testv:
 737              	.LFB5:
  96:test/../test/Threads_C_API_test.hpp **** 
  97:test/../test/Threads_C_API_test.hpp **** 
  98:test/../test/Threads_C_API_test.hpp **** void Threads_C_API_test() {
 738              		.loc 1 98 27 is_stmt 1
 739              		.cfi_startproc
 740 04e4 130101FD 		addi	sp,sp,-48
 741              		.cfi_def_cfa_offset 48
 742 04e8 23341102 		sd	ra,40(sp)
 743 04ec 23308102 		sd	s0,32(sp)
 744              		.cfi_offset 1, -8
 745              		.cfi_offset 8, -16
 746 04f0 13040103 		addi	s0,sp,48
 747              		.cfi_def_cfa 8, 0
  99:test/../test/Threads_C_API_test.hpp ****     thread_t threads[4];
 748              		.loc 1 99 5
 100:test/../test/Threads_C_API_test.hpp ****     thread_create(&threads[0], workerBodyA, nullptr);
 749              		.loc 1 100 5
 750              		.loc 1 100 18 is_stmt 0
 751 04f4 13060000 		li	a2,0
 752 04f8 97050000 		lla	a1,_Z11workerBodyAPv
 752      93850500 
 753 0500 130504FD 		addi	a0,s0,-48
 754 0504 97000000 		call	thread_create@plt
 754      E7800000 
 755              	.LVL93:
 101:test/../test/Threads_C_API_test.hpp ****     printString("ThreadA created\n");
 756              		.loc 1 101 5 is_stmt 1
 757              		.loc 1 101 16 is_stmt 0
 758 050c 17050000 		lla	a0,.LC13
 758      13050500 
 759 0514 97000000 		call	_Z11printStringPKc@plt
GAS LISTING /tmp/cc8k8Hqy.s 			page 19


 759      E7800000 
 760              	.LVL94:
 102:test/../test/Threads_C_API_test.hpp **** 
 103:test/../test/Threads_C_API_test.hpp ****     thread_create(&threads[1], workerBodyB, nullptr);
 761              		.loc 1 103 5 is_stmt 1
 762              		.loc 1 103 18 is_stmt 0
 763 051c 13060000 		li	a2,0
 764 0520 97050000 		lla	a1,_Z11workerBodyBPv
 764      93850500 
 765 0528 130584FD 		addi	a0,s0,-40
 766 052c 97000000 		call	thread_create@plt
 766      E7800000 
 767              	.LVL95:
 104:test/../test/Threads_C_API_test.hpp ****     printString("ThreadB created\n");
 768              		.loc 1 104 5 is_stmt 1
 769              		.loc 1 104 16 is_stmt 0
 770 0534 17050000 		lla	a0,.LC14
 770      13050500 
 771 053c 97000000 		call	_Z11printStringPKc@plt
 771      E7800000 
 772              	.LVL96:
 105:test/../test/Threads_C_API_test.hpp **** 
 106:test/../test/Threads_C_API_test.hpp ****     thread_create(&threads[2], workerBodyC, nullptr);
 773              		.loc 1 106 5 is_stmt 1
 774              		.loc 1 106 18 is_stmt 0
 775 0544 13060000 		li	a2,0
 776 0548 97050000 		lla	a1,_Z11workerBodyCPv
 776      93850500 
 777 0550 130504FE 		addi	a0,s0,-32
 778 0554 97000000 		call	thread_create@plt
 778      E7800000 
 779              	.LVL97:
 107:test/../test/Threads_C_API_test.hpp ****     printString("ThreadC created\n");
 780              		.loc 1 107 5 is_stmt 1
 781              		.loc 1 107 16 is_stmt 0
 782 055c 17050000 		lla	a0,.LC15
 782      13050500 
 783 0564 97000000 		call	_Z11printStringPKc@plt
 783      E7800000 
 784              	.LVL98:
 108:test/../test/Threads_C_API_test.hpp **** 
 109:test/../test/Threads_C_API_test.hpp ****     thread_create(&threads[3], workerBodyD, nullptr);
 785              		.loc 1 109 5 is_stmt 1
 786              		.loc 1 109 18 is_stmt 0
 787 056c 13060000 		li	a2,0
 788 0570 97050000 		lla	a1,_Z11workerBodyDPv
 788      93850500 
 789 0578 130584FE 		addi	a0,s0,-24
 790 057c 97000000 		call	thread_create@plt
 790      E7800000 
 791              	.LVL99:
 110:test/../test/Threads_C_API_test.hpp ****     printString("ThreadD created\n");
 792              		.loc 1 110 5 is_stmt 1
 793              		.loc 1 110 16 is_stmt 0
 794 0584 17050000 		lla	a0,.LC16
 794      13050500 
 795 058c 97000000 		call	_Z11printStringPKc@plt
GAS LISTING /tmp/cc8k8Hqy.s 			page 20


 795      E7800000 
 796              	.LVL100:
 797 0594 6F00C000 		j	.L42
 798              	.L40:
 111:test/../test/Threads_C_API_test.hpp **** 
 112:test/../test/Threads_C_API_test.hpp ****     while (!(finishedA && finishedB && finishedC && finishedD)) {
 113:test/../test/Threads_C_API_test.hpp ****         thread_dispatch();
 799              		.loc 1 113 9 is_stmt 1
 800              		.loc 1 113 24 is_stmt 0
 801 0598 97000000 		call	thread_dispatch@plt
 801      E7800000 
 802              	.LVL101:
 803              	.L42:
 112:test/../test/Threads_C_API_test.hpp ****         thread_dispatch();
 804              		.loc 1 112 5 is_stmt 1
 112:test/../test/Threads_C_API_test.hpp ****         thread_dispatch();
 805              		.loc 1 112 12
 806 05a0 97070000 		lbu	a5,.LANCHOR0
 806      83C70700 
 807 05a8 E38807FE 		beqz	a5,.L40
 112:test/../test/Threads_C_API_test.hpp ****         thread_dispatch();
 808              		.loc 1 112 24 is_stmt 0 discriminator 1
 809 05ac 97070000 		lbu	a5,.LANCHOR0+1
 809      83C70700 
 810 05b4 E38207FE 		beqz	a5,.L40
 112:test/../test/Threads_C_API_test.hpp ****         thread_dispatch();
 811              		.loc 1 112 37 discriminator 2
 812 05b8 97070000 		lbu	a5,.LANCHOR0+2
 812      83C70700 
 813 05c0 E38C07FC 		beqz	a5,.L40
 112:test/../test/Threads_C_API_test.hpp ****         thread_dispatch();
 814              		.loc 1 112 12 discriminator 3
 815 05c4 97070000 		lbu	a5,.LANCHOR0+3
 815      83C70700 
 816 05cc E38607FC 		beqz	a5,.L40
 114:test/../test/Threads_C_API_test.hpp ****     }
 115:test/../test/Threads_C_API_test.hpp **** 
 116:test/../test/Threads_C_API_test.hpp **** }
 817              		.loc 1 116 1
 818 05d0 83308102 		ld	ra,40(sp)
 819              		.cfi_restore 1
 820 05d4 03340102 		ld	s0,32(sp)
 821              		.cfi_restore 8
 822              		.cfi_def_cfa 2, 48
 823 05d8 13010103 		addi	sp,sp,48
 824              		.cfi_def_cfa_offset 0
 825 05dc 67800000 		jr	ra
 826              		.cfi_endproc
 827              	.LFE5:
 829              		.section	.rodata.str1.8
 830 00f9 00000000 		.align	3
 830      000000
 831              	.LC17:
 832 0100 4920616D 		.string	"I am here!\n"
 832      20686572 
 832      65210A00 
 833 010c 00000000 		.align	3
GAS LISTING /tmp/cc8k8Hqy.s 			page 21


 834              	.LC18:
 835 0110 4920616D 		.string	"I am here again!\n"
 835      20686572 
 835      65206167 
 835      61696E21 
 835      0A00
 836              		.text
 837              		.align	2
 838              		.globl	_Z8userMainv
 840              	_Z8userMainv:
 841              	.LFB33:
 842              		.file 2 "test/userMain.cpp"
   1:test/userMain.cpp **** #include "../test/Threads_C_API_test.hpp" // zadatak 2, niti C API i sinhrona promena konteksta
   2:test/userMain.cpp **** //#include "../test/Threads_CPP_API_test.hpp" // zadatak 2., niti CPP API i sinhrona promena kontek
   3:test/userMain.cpp **** 
   4:test/userMain.cpp **** //#include "../test/ConsumerProducer_C_API_test.h" // zadatak 3., kompletan C API sa semaforima, si
   5:test/userMain.cpp **** //#include "../test/ConsumerProducer_CPP_Sync_API_test.hpp" // zadatak 3., kompletan CPP API sa sem
   6:test/userMain.cpp **** 
   7:test/userMain.cpp **** //#include "../test/ThreadSleep_C_API_test.hpp" // thread_sleep test C API
   8:test/userMain.cpp **** //#include "../test/ConsumerProducer_CPP_API_test.hpp" // zadatak 4. CPP API i asinhrona promena ko
   9:test/userMain.cpp **** 
  10:test/userMain.cpp **** #include "../h/print.hpp"
  11:test/userMain.cpp **** #include "../h/tcb.hpp"
  12:test/userMain.cpp **** #include "../h/syscall_c.h"
  13:test/userMain.cpp **** 
  14:test/userMain.cpp **** void userMain() {
 843              		.loc 2 14 17 is_stmt 1
 844              		.cfi_startproc
 845 05e0 130101FF 		addi	sp,sp,-16
 846              		.cfi_def_cfa_offset 16
 847 05e4 23341100 		sd	ra,8(sp)
 848 05e8 23308100 		sd	s0,0(sp)
 849              		.cfi_offset 1, -8
 850              		.cfi_offset 8, -16
 851 05ec 13040101 		addi	s0,sp,16
 852              		.cfi_def_cfa 8, 0
  15:test/userMain.cpp ****     __print_string("I am here!\n");
 853              		.loc 2 15 5
 854              		.loc 2 15 19 is_stmt 0
 855 05f0 17050000 		lla	a0,.LC17
 855      13050500 
 856 05f8 97000000 		call	_Z14__print_stringPKc@plt
 856      E7800000 
 857              	.LVL102:
  16:test/userMain.cpp ****     //printString("I am here!");
  17:test/userMain.cpp ****     Threads_C_API_test(); // zadatak 2., niti C API i sinhrona promena konteksta
 858              		.loc 2 17 5 is_stmt 1
 859              		.loc 2 17 23 is_stmt 0
 860 0600 97000000 		call	_Z18Threads_C_API_testv
 860      E7800000 
 861              	.LVL103:
  18:test/userMain.cpp ****     //Threads_CPP_API_test(); // zadatak 2., niti CPP API i sinhrona promena konteksta
  19:test/userMain.cpp **** 
  20:test/userMain.cpp ****     //producerConsumer_C_API(); // zadatak 3., kompletan C API sa semaforima, sinhrona promena kont
  21:test/userMain.cpp ****     //producerConsumer_CPP_Sync_API(); // zadatak 3., kompletan CPP API sa semaforima, sinhrona pro
  22:test/userMain.cpp **** 
  23:test/userMain.cpp ****     //testSleeping(); // thread_sleep test C API
GAS LISTING /tmp/cc8k8Hqy.s 			page 22


  24:test/userMain.cpp ****     //ConsumerProducerCPP::testConsumerProducer(); // zadatak 4. CPP API i asinhrona promena kontek
  25:test/userMain.cpp **** 
  26:test/userMain.cpp ****     //__print_string("I am here too!\n");
  27:test/userMain.cpp ****     //thread_dispatch();
  28:test/userMain.cpp ****     __print_string("I am here again!\n");
 862              		.loc 2 28 5 is_stmt 1
 863              		.loc 2 28 19 is_stmt 0
 864 0608 17050000 		lla	a0,.LC18
 864      13050500 
 865 0610 97000000 		call	_Z14__print_stringPKc@plt
 865      E7800000 
 866              	.LVL104:
  29:test/userMain.cpp ****     thread_exit();
 867              		.loc 2 29 5 is_stmt 1
 868              		.loc 2 29 16 is_stmt 0
 869 0618 97000000 		call	thread_exit@plt
 869      E7800000 
 870              	.LVL105:
  30:test/userMain.cpp ****     /*TCB::running->setFinished(true);
  31:test/userMain.cpp ****     thread_dispatch();*/
  32:test/userMain.cpp **** }...
 871              		.loc 2 32 1
 872 0620 83308100 		ld	ra,8(sp)
 873              		.cfi_restore 1
 874 0624 03340100 		ld	s0,0(sp)
 875              		.cfi_restore 8
 876              		.cfi_def_cfa 2, 16
 877 0628 13010101 		addi	sp,sp,16
 878              		.cfi_def_cfa_offset 0
 879 062c 67800000 		jr	ra
 880              		.cfi_endproc
 881              	.LFE33:
 883              		.globl	finishedD
 884              		.globl	finishedC
 885              		.globl	finishedB
 886              		.globl	finishedA
 887              		.bss
 888              		.set	.LANCHOR0,. + 0
 891              	finishedA:
 892 0000 00       		.zero	1
 895              	finishedB:
 896 0001 00       		.zero	1
 899              	finishedC:
 900 0002 00       		.zero	1
 903              	finishedD:
 904 0003 00       		.zero	1
 905              		.text
 906              	.Letext0:
 907              		.file 3 "test/../test/../h/../lib/hw.h"
 908              		.file 4 "test/../test/../h/syscall_c.h"
 909              		.file 5 "test/../h/tcb.hpp"
 910              		.file 6 "test/../h/print.hpp"
 911              		.file 7 "test/../test/printing.hpp"
GAS LISTING /tmp/cc8k8Hqy.s 			page 23


DEFINED SYMBOLS
                            *ABS*:0000000000000000 userMain.cpp
     /tmp/cc8k8Hqy.s:20     .text:0000000000000000 _Z11workerBodyAPv
     /tmp/cc8k8Hqy.s:24     .text:0000000000000000 .L0 
     /tmp/cc8k8Hqy.s:26     .text:0000000000000000 .L0 
     /tmp/cc8k8Hqy.s:27     .text:0000000000000004 .L0 
     /tmp/cc8k8Hqy.s:32     .text:0000000000000014 .L0 
     /tmp/cc8k8Hqy.s:33     .text:0000000000000014 .L0 
     /tmp/cc8k8Hqy.s:34     .text:0000000000000014 .L0 
     /tmp/cc8k8Hqy.s:35     .text:0000000000000014 .L0 
     /tmp/cc8k8Hqy.s:37     .text:0000000000000018 .L0 
     /tmp/cc8k8Hqy.s:41     .text:0000000000000018 .L0 
     /tmp/cc8k8Hqy.s:42     .text:0000000000000018 .L0 
     /tmp/cc8k8Hqy.s:50     .text:0000000000000020 .L0 
     /tmp/cc8k8Hqy.s:51     .text:0000000000000020 .L0 
     /tmp/cc8k8Hqy.s:55     .text:0000000000000028 .L0 
     /tmp/cc8k8Hqy.s:59     .text:000000000000002c .L0 
     /tmp/cc8k8Hqy.s:65     .text:0000000000000038 .L0 
     /tmp/cc8k8Hqy.s:69     .text:000000000000003c .L0 
     /tmp/cc8k8Hqy.s:73     .text:0000000000000048 .L0 
     /tmp/cc8k8Hqy.s:83     .text:0000000000000050 .L0 
     /tmp/cc8k8Hqy.s:87     .text:0000000000000054 .L0 
     /tmp/cc8k8Hqy.s:91     .text:000000000000005c .L0 
     /tmp/cc8k8Hqy.s:92     .text:000000000000005c .L0 
     /tmp/cc8k8Hqy.s:96     .text:000000000000006c .L0 
     /tmp/cc8k8Hqy.s:97     .text:000000000000006c .L0 
     /tmp/cc8k8Hqy.s:103    .text:0000000000000080 .L0 
     /tmp/cc8k8Hqy.s:104    .text:0000000000000080 .L0 
     /tmp/cc8k8Hqy.s:109    .text:0000000000000090 .L0 
     /tmp/cc8k8Hqy.s:110    .text:0000000000000090 .L0 
     /tmp/cc8k8Hqy.s:118    .text:0000000000000098 .L0 
     /tmp/cc8k8Hqy.s:119    .text:0000000000000098 .L0 
     /tmp/cc8k8Hqy.s:123    .text:00000000000000a8 .L0 
     /tmp/cc8k8Hqy.s:124    .text:00000000000000a8 .L0 
     /tmp/cc8k8Hqy.s:127    .text:00000000000000b4 .L0 
     /tmp/cc8k8Hqy.s:128    .text:00000000000000b4 .L0 
     /tmp/cc8k8Hqy.s:131    .text:00000000000000bc .L0 
     /tmp/cc8k8Hqy.s:132    .text:00000000000000c0 .L0 
     /tmp/cc8k8Hqy.s:134    .text:00000000000000c4 .L0 
     /tmp/cc8k8Hqy.s:135    .text:00000000000000c4 .L0 
     /tmp/cc8k8Hqy.s:137    .text:00000000000000c8 .L0 
     /tmp/cc8k8Hqy.s:139    .text:00000000000000cc .L0 
     /tmp/cc8k8Hqy.s:142    .text:00000000000000d0 .L0 
     /tmp/cc8k8Hqy.s:144    .text:00000000000000d4 .L0 
     /tmp/cc8k8Hqy.s:158    .text:00000000000000d4 _Z11workerBodyBPv
     /tmp/cc8k8Hqy.s:161    .text:00000000000000d4 .L0 
     /tmp/cc8k8Hqy.s:163    .text:00000000000000d4 .L0 
     /tmp/cc8k8Hqy.s:164    .text:00000000000000d8 .L0 
     /tmp/cc8k8Hqy.s:169    .text:00000000000000e8 .L0 
     /tmp/cc8k8Hqy.s:170    .text:00000000000000e8 .L0 
     /tmp/cc8k8Hqy.s:171    .text:00000000000000e8 .L0 
     /tmp/cc8k8Hqy.s:172    .text:00000000000000e8 .L0 
     /tmp/cc8k8Hqy.s:174    .text:00000000000000ec .L0 
     /tmp/cc8k8Hqy.s:178    .text:00000000000000ec .L0 
     /tmp/cc8k8Hqy.s:179    .text:00000000000000ec .L0 
     /tmp/cc8k8Hqy.s:187    .text:00000000000000f4 .L0 
     /tmp/cc8k8Hqy.s:188    .text:00000000000000f4 .L0 
GAS LISTING /tmp/cc8k8Hqy.s 			page 24


     /tmp/cc8k8Hqy.s:192    .text:00000000000000fc .L0 
     /tmp/cc8k8Hqy.s:196    .text:0000000000000100 .L0 
     /tmp/cc8k8Hqy.s:202    .text:000000000000010c .L0 
     /tmp/cc8k8Hqy.s:206    .text:0000000000000110 .L0 
     /tmp/cc8k8Hqy.s:210    .text:000000000000011c .L0 
     /tmp/cc8k8Hqy.s:220    .text:0000000000000124 .L0 
     /tmp/cc8k8Hqy.s:224    .text:0000000000000128 .L0 
     /tmp/cc8k8Hqy.s:228    .text:0000000000000130 .L0 
     /tmp/cc8k8Hqy.s:229    .text:0000000000000130 .L0 
     /tmp/cc8k8Hqy.s:233    .text:0000000000000140 .L0 
     /tmp/cc8k8Hqy.s:234    .text:0000000000000140 .L0 
     /tmp/cc8k8Hqy.s:240    .text:0000000000000154 .L0 
     /tmp/cc8k8Hqy.s:241    .text:0000000000000154 .L0 
     /tmp/cc8k8Hqy.s:246    .text:0000000000000164 .L0 
     /tmp/cc8k8Hqy.s:247    .text:0000000000000164 .L0 
     /tmp/cc8k8Hqy.s:255    .text:000000000000016c .L0 
     /tmp/cc8k8Hqy.s:256    .text:000000000000016c .L0 
     /tmp/cc8k8Hqy.s:260    .text:000000000000017c .L0 
     /tmp/cc8k8Hqy.s:261    .text:000000000000017c .L0 
     /tmp/cc8k8Hqy.s:264    .text:0000000000000188 .L0 
     /tmp/cc8k8Hqy.s:265    .text:0000000000000188 .L0 
     /tmp/cc8k8Hqy.s:268    .text:0000000000000190 .L0 
     /tmp/cc8k8Hqy.s:269    .text:0000000000000194 .L0 
     /tmp/cc8k8Hqy.s:271    .text:0000000000000198 .L0 
     /tmp/cc8k8Hqy.s:272    .text:0000000000000198 .L0 
     /tmp/cc8k8Hqy.s:274    .text:000000000000019c .L0 
     /tmp/cc8k8Hqy.s:276    .text:00000000000001a0 .L0 
     /tmp/cc8k8Hqy.s:279    .text:00000000000001a4 .L0 
     /tmp/cc8k8Hqy.s:281    .text:00000000000001a8 .L0 
     /tmp/cc8k8Hqy.s:287    .text:00000000000001a8 _Z9fibonaccim
     /tmp/cc8k8Hqy.s:290    .text:00000000000001a8 .L0 
     /tmp/cc8k8Hqy.s:292    .text:00000000000001a8 .L0 
     /tmp/cc8k8Hqy.s:293    .text:00000000000001ac .L0 
     /tmp/cc8k8Hqy.s:298    .text:00000000000001bc .L0 
     /tmp/cc8k8Hqy.s:299    .text:00000000000001bc .L0 
     /tmp/cc8k8Hqy.s:300    .text:00000000000001bc .L0 
     /tmp/cc8k8Hqy.s:301    .text:00000000000001bc .L0 
     /tmp/cc8k8Hqy.s:303    .text:00000000000001c0 .L0 
     /tmp/cc8k8Hqy.s:306    .text:00000000000001c4 .L0 
     /tmp/cc8k8Hqy.s:309    .text:00000000000001cc .L0 
     /tmp/cc8k8Hqy.s:310    .text:00000000000001cc .L0 
     /tmp/cc8k8Hqy.s:313    .text:00000000000001d4 .L0 
     /tmp/cc8k8Hqy.s:317    .text:00000000000001d8 .L0 
     /tmp/cc8k8Hqy.s:318    .text:00000000000001d8 .L0 
     /tmp/cc8k8Hqy.s:323    .text:00000000000001e8 .L0 
     /tmp/cc8k8Hqy.s:327    .text:00000000000001f4 .L0 
     /tmp/cc8k8Hqy.s:330    .text:00000000000001f8 .L0 
     /tmp/cc8k8Hqy.s:331    .text:00000000000001fc .L0 
     /tmp/cc8k8Hqy.s:332    .text:00000000000001fc .L0 
     /tmp/cc8k8Hqy.s:334    .text:0000000000000200 .L0 
     /tmp/cc8k8Hqy.s:335    .text:0000000000000200 .L0 
     /tmp/cc8k8Hqy.s:337    .text:0000000000000204 .L0 
     /tmp/cc8k8Hqy.s:340    .text:0000000000000208 .L0 
     /tmp/cc8k8Hqy.s:342    .text:000000000000020c .L0 
     /tmp/cc8k8Hqy.s:346    .text:0000000000000210 .L0 
     /tmp/cc8k8Hqy.s:348    .text:0000000000000210 .L0 
     /tmp/cc8k8Hqy.s:349    .text:0000000000000210 .L0 
GAS LISTING /tmp/cc8k8Hqy.s 			page 25


     /tmp/cc8k8Hqy.s:352    .text:000000000000021c .L0 
     /tmp/cc8k8Hqy.s:372    .text:000000000000021c _Z11workerBodyCPv
     /tmp/cc8k8Hqy.s:375    .text:000000000000021c .L0 
     /tmp/cc8k8Hqy.s:377    .text:000000000000021c .L0 
     /tmp/cc8k8Hqy.s:378    .text:0000000000000220 .L0 
     /tmp/cc8k8Hqy.s:383    .text:0000000000000230 .L0 
     /tmp/cc8k8Hqy.s:384    .text:0000000000000230 .L0 
     /tmp/cc8k8Hqy.s:385    .text:0000000000000230 .L0 
     /tmp/cc8k8Hqy.s:386    .text:0000000000000230 .L0 
     /tmp/cc8k8Hqy.s:388    .text:0000000000000234 .L0 
     /tmp/cc8k8Hqy.s:391    .text:0000000000000234 .L0 
     /tmp/cc8k8Hqy.s:392    .text:0000000000000234 .L0 
     /tmp/cc8k8Hqy.s:397    .text:000000000000023c .L0 
     /tmp/cc8k8Hqy.s:398    .text:000000000000023c .L0 
     /tmp/cc8k8Hqy.s:402    .text:000000000000024c .L0 
     /tmp/cc8k8Hqy.s:403    .text:000000000000024c .L0 
     /tmp/cc8k8Hqy.s:409    .text:0000000000000260 .L0 
     /tmp/cc8k8Hqy.s:410    .text:0000000000000260 .L0 
     /tmp/cc8k8Hqy.s:414    .text:0000000000000270 .L0 
     /tmp/cc8k8Hqy.s:420    .text:0000000000000278 .L0 
     /tmp/cc8k8Hqy.s:421    .text:0000000000000278 .L0 
     /tmp/cc8k8Hqy.s:424    .text:0000000000000280 .L0 
     /tmp/cc8k8Hqy.s:425    .text:0000000000000280 .L0 
     /tmp/cc8k8Hqy.s:429    .text:0000000000000290 .L0 
test/../test/Threads_C_API_test.hpp:53     .text:0000000000000290 .L0 
     /tmp/cc8k8Hqy.s:435    .text:0000000000000294 .L0 
     /tmp/cc8k8Hqy.s:437    .text:0000000000000294 .L0 
     /tmp/cc8k8Hqy.s:440    .text:000000000000029c .L0 
     /tmp/cc8k8Hqy.s:441    .text:000000000000029c .L0 
test/../test/Threads_C_API_test.hpp:57     .text:000000000000029c .L0 
     /tmp/cc8k8Hqy.s:448    .text:00000000000002a0 .L0 
     /tmp/cc8k8Hqy.s:450    .text:00000000000002a0 .L0 
     /tmp/cc8k8Hqy.s:454    .text:00000000000002b0 .L0 
     /tmp/cc8k8Hqy.s:455    .text:00000000000002b0 .L0 
     /tmp/cc8k8Hqy.s:461    .text:00000000000002c4 .L0 
     /tmp/cc8k8Hqy.s:462    .text:00000000000002c4 .L0 
     /tmp/cc8k8Hqy.s:466    .text:00000000000002d4 .L0 
     /tmp/cc8k8Hqy.s:467    .text:00000000000002d4 .L0 
     /tmp/cc8k8Hqy.s:473    .text:00000000000002e4 .L0 
     /tmp/cc8k8Hqy.s:474    .text:00000000000002e4 .L0 
     /tmp/cc8k8Hqy.s:479    .text:00000000000002f4 .L0 
     /tmp/cc8k8Hqy.s:480    .text:00000000000002f4 .L0 
     /tmp/cc8k8Hqy.s:486    .text:0000000000000308 .L0 
     /tmp/cc8k8Hqy.s:487    .text:0000000000000308 .L0 
     /tmp/cc8k8Hqy.s:493    .text:000000000000031c .L0 
     /tmp/cc8k8Hqy.s:494    .text:000000000000031c .L0 
     /tmp/cc8k8Hqy.s:498    .text:000000000000032c .L0 
     /tmp/cc8k8Hqy.s:499    .text:000000000000032c .L0 
     /tmp/cc8k8Hqy.s:505    .text:0000000000000340 .L0 
     /tmp/cc8k8Hqy.s:506    .text:0000000000000340 .L0 
     /tmp/cc8k8Hqy.s:510    .text:0000000000000350 .L0 
     /tmp/cc8k8Hqy.s:516    .text:0000000000000358 .L0 
     /tmp/cc8k8Hqy.s:517    .text:0000000000000358 .L0 
     /tmp/cc8k8Hqy.s:520    .text:0000000000000360 .L0 
     /tmp/cc8k8Hqy.s:521    .text:0000000000000360 .L0 
     /tmp/cc8k8Hqy.s:525    .text:0000000000000370 .L0 
     /tmp/cc8k8Hqy.s:526    .text:0000000000000370 .L0 
GAS LISTING /tmp/cc8k8Hqy.s 			page 26


     /tmp/cc8k8Hqy.s:529    .text:000000000000037c .L0 
     /tmp/cc8k8Hqy.s:530    .text:000000000000037c .L0 
     /tmp/cc8k8Hqy.s:533    .text:0000000000000384 .L0 
     /tmp/cc8k8Hqy.s:534    .text:0000000000000388 .L0 
     /tmp/cc8k8Hqy.s:536    .text:000000000000038c .L0 
     /tmp/cc8k8Hqy.s:537    .text:000000000000038c .L0 
     /tmp/cc8k8Hqy.s:539    .text:0000000000000390 .L0 
     /tmp/cc8k8Hqy.s:542    .text:0000000000000394 .L0 
     /tmp/cc8k8Hqy.s:545    .text:0000000000000398 .L0 
     /tmp/cc8k8Hqy.s:547    .text:000000000000039c .L0 
     /tmp/cc8k8Hqy.s:567    .text:000000000000039c _Z11workerBodyDPv
     /tmp/cc8k8Hqy.s:570    .text:000000000000039c .L0 
     /tmp/cc8k8Hqy.s:572    .text:000000000000039c .L0 
     /tmp/cc8k8Hqy.s:573    .text:00000000000003a0 .L0 
     /tmp/cc8k8Hqy.s:578    .text:00000000000003b0 .L0 
     /tmp/cc8k8Hqy.s:579    .text:00000000000003b0 .L0 
     /tmp/cc8k8Hqy.s:580    .text:00000000000003b0 .L0 
     /tmp/cc8k8Hqy.s:581    .text:00000000000003b0 .L0 
     /tmp/cc8k8Hqy.s:583    .text:00000000000003b4 .L0 
     /tmp/cc8k8Hqy.s:586    .text:00000000000003b4 .L0 
     /tmp/cc8k8Hqy.s:587    .text:00000000000003b4 .L0 
     /tmp/cc8k8Hqy.s:592    .text:00000000000003bc .L0 
     /tmp/cc8k8Hqy.s:593    .text:00000000000003bc .L0 
     /tmp/cc8k8Hqy.s:597    .text:00000000000003cc .L0 
     /tmp/cc8k8Hqy.s:598    .text:00000000000003cc .L0 
     /tmp/cc8k8Hqy.s:604    .text:00000000000003e0 .L0 
     /tmp/cc8k8Hqy.s:605    .text:00000000000003e0 .L0 
     /tmp/cc8k8Hqy.s:609    .text:00000000000003f0 .L0 
     /tmp/cc8k8Hqy.s:615    .text:00000000000003f8 .L0 
     /tmp/cc8k8Hqy.s:616    .text:00000000000003f8 .L0 
     /tmp/cc8k8Hqy.s:619    .text:0000000000000400 .L0 
     /tmp/cc8k8Hqy.s:620    .text:0000000000000400 .L0 
     /tmp/cc8k8Hqy.s:624    .text:0000000000000410 .L0 
test/../test/Threads_C_API_test.hpp:81     .text:0000000000000410 .L0 
     /tmp/cc8k8Hqy.s:630    .text:0000000000000414 .L0 
     /tmp/cc8k8Hqy.s:632    .text:0000000000000414 .L0 
     /tmp/cc8k8Hqy.s:635    .text:000000000000041c .L0 
     /tmp/cc8k8Hqy.s:636    .text:000000000000041c .L0 
     /tmp/cc8k8Hqy.s:642    .text:000000000000042c .L0 
     /tmp/cc8k8Hqy.s:643    .text:000000000000042c .L0 
     /tmp/cc8k8Hqy.s:648    .text:000000000000043c .L0 
     /tmp/cc8k8Hqy.s:649    .text:000000000000043c .L0 
     /tmp/cc8k8Hqy.s:655    .text:0000000000000450 .L0 
     /tmp/cc8k8Hqy.s:656    .text:0000000000000450 .L0 
     /tmp/cc8k8Hqy.s:662    .text:0000000000000464 .L0 
     /tmp/cc8k8Hqy.s:663    .text:0000000000000464 .L0 
     /tmp/cc8k8Hqy.s:667    .text:0000000000000474 .L0 
     /tmp/cc8k8Hqy.s:668    .text:0000000000000474 .L0 
     /tmp/cc8k8Hqy.s:674    .text:0000000000000488 .L0 
     /tmp/cc8k8Hqy.s:675    .text:0000000000000488 .L0 
     /tmp/cc8k8Hqy.s:679    .text:0000000000000498 .L0 
     /tmp/cc8k8Hqy.s:685    .text:00000000000004a0 .L0 
     /tmp/cc8k8Hqy.s:686    .text:00000000000004a0 .L0 
     /tmp/cc8k8Hqy.s:689    .text:00000000000004a8 .L0 
     /tmp/cc8k8Hqy.s:690    .text:00000000000004a8 .L0 
     /tmp/cc8k8Hqy.s:694    .text:00000000000004b8 .L0 
     /tmp/cc8k8Hqy.s:695    .text:00000000000004b8 .L0 
GAS LISTING /tmp/cc8k8Hqy.s 			page 27


     /tmp/cc8k8Hqy.s:698    .text:00000000000004c4 .L0 
     /tmp/cc8k8Hqy.s:699    .text:00000000000004c4 .L0 
     /tmp/cc8k8Hqy.s:702    .text:00000000000004cc .L0 
     /tmp/cc8k8Hqy.s:703    .text:00000000000004d0 .L0 
     /tmp/cc8k8Hqy.s:705    .text:00000000000004d4 .L0 
     /tmp/cc8k8Hqy.s:706    .text:00000000000004d4 .L0 
     /tmp/cc8k8Hqy.s:708    .text:00000000000004d8 .L0 
     /tmp/cc8k8Hqy.s:711    .text:00000000000004dc .L0 
     /tmp/cc8k8Hqy.s:714    .text:00000000000004e0 .L0 
     /tmp/cc8k8Hqy.s:716    .text:00000000000004e4 .L0 
     /tmp/cc8k8Hqy.s:736    .text:00000000000004e4 _Z18Threads_C_API_testv
     /tmp/cc8k8Hqy.s:739    .text:00000000000004e4 .L0 
     /tmp/cc8k8Hqy.s:740    .text:00000000000004e4 .L0 
     /tmp/cc8k8Hqy.s:741    .text:00000000000004e8 .L0 
     /tmp/cc8k8Hqy.s:744    .text:00000000000004f0 .L0 
     /tmp/cc8k8Hqy.s:745    .text:00000000000004f0 .L0 
     /tmp/cc8k8Hqy.s:747    .text:00000000000004f4 .L0 
     /tmp/cc8k8Hqy.s:749    .text:00000000000004f4 .L0 
     /tmp/cc8k8Hqy.s:750    .text:00000000000004f4 .L0 
     /tmp/cc8k8Hqy.s:751    .text:00000000000004f4 .L0 
     /tmp/cc8k8Hqy.s:757    .text:000000000000050c .L0 
     /tmp/cc8k8Hqy.s:758    .text:000000000000050c .L0 
     /tmp/cc8k8Hqy.s:762    .text:000000000000051c .L0 
     /tmp/cc8k8Hqy.s:763    .text:000000000000051c .L0 
     /tmp/cc8k8Hqy.s:769    .text:0000000000000534 .L0 
     /tmp/cc8k8Hqy.s:770    .text:0000000000000534 .L0 
     /tmp/cc8k8Hqy.s:774    .text:0000000000000544 .L0 
     /tmp/cc8k8Hqy.s:775    .text:0000000000000544 .L0 
     /tmp/cc8k8Hqy.s:781    .text:000000000000055c .L0 
     /tmp/cc8k8Hqy.s:782    .text:000000000000055c .L0 
     /tmp/cc8k8Hqy.s:786    .text:000000000000056c .L0 
     /tmp/cc8k8Hqy.s:787    .text:000000000000056c .L0 
     /tmp/cc8k8Hqy.s:793    .text:0000000000000584 .L0 
     /tmp/cc8k8Hqy.s:794    .text:0000000000000584 .L0 
     /tmp/cc8k8Hqy.s:800    .text:0000000000000598 .L0 
     /tmp/cc8k8Hqy.s:801    .text:0000000000000598 .L0 
     /tmp/cc8k8Hqy.s:805    .text:00000000000005a0 .L0 
     /tmp/cc8k8Hqy.s:806    .text:00000000000005a0 .L0 
     /tmp/cc8k8Hqy.s:809    .text:00000000000005ac .L0 
     /tmp/cc8k8Hqy.s:812    .text:00000000000005b8 .L0 
     /tmp/cc8k8Hqy.s:815    .text:00000000000005c4 .L0 
     /tmp/cc8k8Hqy.s:818    .text:00000000000005d0 .L0 
     /tmp/cc8k8Hqy.s:819    .text:00000000000005d4 .L0 
     /tmp/cc8k8Hqy.s:821    .text:00000000000005d8 .L0 
     /tmp/cc8k8Hqy.s:822    .text:00000000000005d8 .L0 
     /tmp/cc8k8Hqy.s:824    .text:00000000000005dc .L0 
     /tmp/cc8k8Hqy.s:826    .text:00000000000005e0 .L0 
     /tmp/cc8k8Hqy.s:840    .text:00000000000005e0 _Z8userMainv
     /tmp/cc8k8Hqy.s:844    .text:00000000000005e0 .L0 
     /tmp/cc8k8Hqy.s:845    .text:00000000000005e0 .L0 
     /tmp/cc8k8Hqy.s:846    .text:00000000000005e4 .L0 
     /tmp/cc8k8Hqy.s:849    .text:00000000000005ec .L0 
     /tmp/cc8k8Hqy.s:850    .text:00000000000005ec .L0 
     /tmp/cc8k8Hqy.s:852    .text:00000000000005f0 .L0 
     /tmp/cc8k8Hqy.s:854    .text:00000000000005f0 .L0 
     /tmp/cc8k8Hqy.s:855    .text:00000000000005f0 .L0 
     /tmp/cc8k8Hqy.s:859    .text:0000000000000600 .L0 
GAS LISTING /tmp/cc8k8Hqy.s 			page 28


     /tmp/cc8k8Hqy.s:860    .text:0000000000000600 .L0 
     /tmp/cc8k8Hqy.s:863    .text:0000000000000608 .L0 
     /tmp/cc8k8Hqy.s:864    .text:0000000000000608 .L0 
     /tmp/cc8k8Hqy.s:868    .text:0000000000000618 .L0 
     /tmp/cc8k8Hqy.s:869    .text:0000000000000618 .L0 
     /tmp/cc8k8Hqy.s:872    .text:0000000000000620 .L0 
     /tmp/cc8k8Hqy.s:873    .text:0000000000000624 .L0 
     /tmp/cc8k8Hqy.s:875    .text:0000000000000628 .L0 
     /tmp/cc8k8Hqy.s:876    .text:0000000000000628 .L0 
     /tmp/cc8k8Hqy.s:878    .text:000000000000062c .L0 
     /tmp/cc8k8Hqy.s:880    .text:0000000000000630 .L0 
     /tmp/cc8k8Hqy.s:903    .bss:0000000000000003 finishedD
     /tmp/cc8k8Hqy.s:899    .bss:0000000000000002 finishedC
     /tmp/cc8k8Hqy.s:895    .bss:0000000000000001 finishedB
     /tmp/cc8k8Hqy.s:891    .bss:0000000000000000 finishedA
     /tmp/cc8k8Hqy.s:888    .bss:0000000000000000 .LANCHOR0
     /tmp/cc8k8Hqy.s:912    .text:0000000000000630 .L0 
     /tmp/cc8k8Hqy.s:8      .rodata.str1.8:0000000000000000 .LC0
     /tmp/cc8k8Hqy.s:92     .text:000000000000005c .L0 
     /tmp/cc8k8Hqy.s:11     .rodata.str1.8:0000000000000008 .LC1
     /tmp/cc8k8Hqy.s:104    .text:0000000000000080 .L0 
     /tmp/cc8k8Hqy.s:14     .rodata.str1.8:0000000000000010 .LC2
     /tmp/cc8k8Hqy.s:119    .text:0000000000000098 .L0 
     /tmp/cc8k8Hqy.s:125    .text:00000000000000ac .L0 
     /tmp/cc8k8Hqy.s:149    .rodata.str1.8:0000000000000020 .LC3
     /tmp/cc8k8Hqy.s:229    .text:0000000000000130 .L0 
     /tmp/cc8k8Hqy.s:241    .text:0000000000000154 .L0 
     /tmp/cc8k8Hqy.s:152    .rodata.str1.8:0000000000000028 .LC4
     /tmp/cc8k8Hqy.s:256    .text:000000000000016c .L0 
     /tmp/cc8k8Hqy.s:262    .text:0000000000000180 .L0 
     /tmp/cc8k8Hqy.s:357    .rodata.str1.8:0000000000000038 .LC5
     /tmp/cc8k8Hqy.s:398    .text:000000000000023c .L0 
     /tmp/cc8k8Hqy.s:410    .text:0000000000000260 .L0 
     /tmp/cc8k8Hqy.s:360    .rodata.str1.8:0000000000000040 .LC6
     /tmp/cc8k8Hqy.s:425    .text:0000000000000280 .L0 
     /tmp/cc8k8Hqy.s:363    .rodata.str1.8:0000000000000050 .LC7
     /tmp/cc8k8Hqy.s:450    .text:00000000000002a0 .L0 
     /tmp/cc8k8Hqy.s:462    .text:00000000000002c4 .L0 
     /tmp/cc8k8Hqy.s:366    .rodata.str1.8:0000000000000058 .LC8
     /tmp/cc8k8Hqy.s:474    .text:00000000000002e4 .L0 
     /tmp/cc8k8Hqy.s:487    .text:0000000000000308 .L0 
     /tmp/cc8k8Hqy.s:494    .text:000000000000031c .L0 
     /tmp/cc8k8Hqy.s:506    .text:0000000000000340 .L0 
     /tmp/cc8k8Hqy.s:521    .text:0000000000000360 .L0 
     /tmp/cc8k8Hqy.s:527    .text:0000000000000374 .L0 
     /tmp/cc8k8Hqy.s:552    .rodata.str1.8:0000000000000068 .LC9
     /tmp/cc8k8Hqy.s:593    .text:00000000000003bc .L0 
     /tmp/cc8k8Hqy.s:605    .text:00000000000003e0 .L0 
     /tmp/cc8k8Hqy.s:555    .rodata.str1.8:0000000000000070 .LC10
     /tmp/cc8k8Hqy.s:620    .text:0000000000000400 .L0 
     /tmp/cc8k8Hqy.s:558    .rodata.str1.8:0000000000000080 .LC11
     /tmp/cc8k8Hqy.s:643    .text:000000000000042c .L0 
     /tmp/cc8k8Hqy.s:656    .text:0000000000000450 .L0 
     /tmp/cc8k8Hqy.s:663    .text:0000000000000464 .L0 
     /tmp/cc8k8Hqy.s:675    .text:0000000000000488 .L0 
     /tmp/cc8k8Hqy.s:561    .rodata.str1.8:0000000000000090 .LC12
     /tmp/cc8k8Hqy.s:690    .text:00000000000004a8 .L0 
GAS LISTING /tmp/cc8k8Hqy.s 			page 29


     /tmp/cc8k8Hqy.s:696    .text:00000000000004bc .L0 
     /tmp/cc8k8Hqy.s:752    .text:00000000000004f8 .L0 
     /tmp/cc8k8Hqy.s:721    .rodata.str1.8:00000000000000a0 .LC13
     /tmp/cc8k8Hqy.s:758    .text:000000000000050c .L0 
     /tmp/cc8k8Hqy.s:764    .text:0000000000000520 .L0 
     /tmp/cc8k8Hqy.s:724    .rodata.str1.8:00000000000000b8 .LC14
     /tmp/cc8k8Hqy.s:770    .text:0000000000000534 .L0 
     /tmp/cc8k8Hqy.s:776    .text:0000000000000548 .L0 
     /tmp/cc8k8Hqy.s:727    .rodata.str1.8:00000000000000d0 .LC15
     /tmp/cc8k8Hqy.s:782    .text:000000000000055c .L0 
     /tmp/cc8k8Hqy.s:788    .text:0000000000000570 .L0 
     /tmp/cc8k8Hqy.s:730    .rodata.str1.8:00000000000000e8 .LC16
     /tmp/cc8k8Hqy.s:794    .text:0000000000000584 .L0 
     /tmp/cc8k8Hqy.s:806    .text:00000000000005a0 .L0 
     /tmp/cc8k8Hqy.s:809    .text:00000000000005ac .L0 
     /tmp/cc8k8Hqy.s:812    .text:00000000000005b8 .L0 
     /tmp/cc8k8Hqy.s:815    .text:00000000000005c4 .L0 
     /tmp/cc8k8Hqy.s:831    .rodata.str1.8:0000000000000100 .LC17
     /tmp/cc8k8Hqy.s:855    .text:00000000000005f0 .L0 
     /tmp/cc8k8Hqy.s:834    .rodata.str1.8:0000000000000110 .LC18
     /tmp/cc8k8Hqy.s:864    .text:0000000000000608 .L0 
     /tmp/cc8k8Hqy.s:85     .text:0000000000000054 .L7
     /tmp/cc8k8Hqy.s:77     .text:0000000000000050 .L3
     /tmp/cc8k8Hqy.s:45     .text:0000000000000020 .L4
     /tmp/cc8k8Hqy.s:66     .text:000000000000003c .L5
     /tmp/cc8k8Hqy.s:113    .text:0000000000000098 .L2
     /tmp/cc8k8Hqy.s:57     .text:000000000000002c .L6
     /tmp/cc8k8Hqy.s:222    .text:0000000000000128 .L15
     /tmp/cc8k8Hqy.s:214    .text:0000000000000124 .L11
     /tmp/cc8k8Hqy.s:182    .text:00000000000000f4 .L12
     /tmp/cc8k8Hqy.s:203    .text:0000000000000110 .L13
     /tmp/cc8k8Hqy.s:250    .text:000000000000016c .L10
     /tmp/cc8k8Hqy.s:194    .text:0000000000000100 .L14
     /tmp/cc8k8Hqy.s:328    .text:00000000000001f8 .L17
     /tmp/cc8k8Hqy.s:345    .text:0000000000000210 .L22
     /tmp/cc8k8Hqy.s:315    .text:00000000000001d8 .L19
     /tmp/cc8k8Hqy.s:418    .text:0000000000000278 .L25
     /tmp/cc8k8Hqy.s:395    .text:000000000000023c .L29
     /tmp/cc8k8Hqy.s:514    .text:0000000000000358 .L27
     /tmp/cc8k8Hqy.s:491    .text:000000000000031c .L30
     /tmp/cc8k8Hqy.s:613    .text:00000000000003f8 .L33
     /tmp/cc8k8Hqy.s:590    .text:00000000000003bc .L37
     /tmp/cc8k8Hqy.s:683    .text:00000000000004a0 .L35
     /tmp/cc8k8Hqy.s:660    .text:0000000000000464 .L38
     /tmp/cc8k8Hqy.s:803    .text:00000000000005a0 .L42
     /tmp/cc8k8Hqy.s:798    .text:0000000000000598 .L40
     /tmp/cc8k8Hqy.s:2245   .debug_abbrev:0000000000000000 .Ldebug_abbrev0
     /tmp/cc8k8Hqy.s:3304   .debug_str:0000000000000377 .LASF58
     /tmp/cc8k8Hqy.s:3200   .debug_str:0000000000000079 .LASF59
     /tmp/cc8k8Hqy.s:3260   .debug_str:0000000000000228 .LASF60
     /tmp/cc8k8Hqy.s:5      .text:0000000000000000 .Ltext0
     /tmp/cc8k8Hqy.s:906    .text:0000000000000630 .Letext0
     /tmp/cc8k8Hqy.s:3176   .debug_line:0000000000000000 .Ldebug_line0
     /tmp/cc8k8Hqy.s:3268   .debug_str:0000000000000279 .LASF0
     /tmp/cc8k8Hqy.s:3278   .debug_str:00000000000002b0 .LASF1
     /tmp/cc8k8Hqy.s:3254   .debug_str:00000000000001fc .LASF2
     /tmp/cc8k8Hqy.s:3216   .debug_str:0000000000000105 .LASF3
GAS LISTING /tmp/cc8k8Hqy.s 			page 30


     /tmp/cc8k8Hqy.s:3244   .debug_str:00000000000001d5 .LASF4
     /tmp/cc8k8Hqy.s:3300   .debug_str:0000000000000349 .LASF5
     /tmp/cc8k8Hqy.s:3196   .debug_str:0000000000000062 .LASF6
     /tmp/cc8k8Hqy.s:3282   .debug_str:00000000000002d5 .LASF7
     /tmp/cc8k8Hqy.s:3266   .debug_str:0000000000000266 .LASF8
     /tmp/cc8k8Hqy.s:3312   .debug_str:000000000000046b .LASF9
     /tmp/cc8k8Hqy.s:3234   .debug_str:000000000000016a .LASF10
     /tmp/cc8k8Hqy.s:3286   .debug_str:00000000000002f3 .LASF11
     /tmp/cc8k8Hqy.s:3306   .debug_str:000000000000043b .LASF12
     /tmp/cc8k8Hqy.s:3198   .debug_str:0000000000000069 .LASF13
     /tmp/cc8k8Hqy.s:3186   .debug_str:0000000000000028 .LASF14
     /tmp/cc8k8Hqy.s:3202   .debug_str:000000000000008b .LASF15
     /tmp/cc8k8Hqy.s:3296   .debug_str:000000000000032d .LASF16
     /tmp/cc8k8Hqy.s:3206   .debug_str:00000000000000a7 .LASF17
     /tmp/cc8k8Hqy.s:3178   .debug_str:0000000000000000 .LASF18
     /tmp/cc8k8Hqy.s:3190   .debug_str:0000000000000042 .LASF61
     /tmp/cc8k8Hqy.s:3220   .debug_str:0000000000000114 .LASF19
     /tmp/cc8k8Hqy.s:3302   .debug_str:000000000000035b .LASF21
     /tmp/cc8k8Hqy.s:3294   .debug_str:0000000000000328 .LASF62
     /tmp/cc8k8Hqy.s:3284   .debug_str:00000000000002e8 .LASF33
     /tmp/cc8k8Hqy.s:3232   .debug_str:0000000000000153 .LASF35
     /tmp/cc8k8Hqy.s:3256   .debug_str:000000000000020a .LASF20
     /tmp/cc8k8Hqy.s:3238   .debug_str:000000000000018c .LASF22
     /tmp/cc8k8Hqy.s:3318   .debug_str:0000000000000493 .LASF63
     /tmp/cc8k8Hqy.s:3298   .debug_str:0000000000000343 .LASF64
     /tmp/cc8k8Hqy.s:3212   .debug_str:00000000000000e7 .LASF65
     /tmp/cc8k8Hqy.s:3236   .debug_str:0000000000000178 .LASF66
     /tmp/cc8k8Hqy.s:3250   .debug_str:00000000000001ef .LASF23
     /tmp/cc8k8Hqy.s:3274   .debug_str:0000000000000295 .LASF24
     /tmp/cc8k8Hqy.s:3272   .debug_str:000000000000028f .LASF25
     /tmp/cc8k8Hqy.s:3248   .debug_str:00000000000001e6 .LASF26
     /tmp/cc8k8Hqy.s:3252   .debug_str:00000000000001f4 .LASF27
     /tmp/cc8k8Hqy.s:3316   .debug_str:0000000000000485 .LASF67
     /tmp/cc8k8Hqy.s:3240   .debug_str:00000000000001a3 .LASF68
     /tmp/cc8k8Hqy.s:3270   .debug_str:0000000000000286 .LASF69
     /tmp/cc8k8Hqy.s:3222   .debug_str:000000000000011e .LASF70
     /tmp/cc8k8Hqy.s:3288   .debug_str:0000000000000302 .LASF28
     /tmp/cc8k8Hqy.s:3224   .debug_str:0000000000000131 .LASF29
     /tmp/cc8k8Hqy.s:3242   .debug_str:00000000000001cb .LASF30
     /tmp/cc8k8Hqy.s:3188   .debug_str:0000000000000038 .LASF31
     /tmp/cc8k8Hqy.s:3246   .debug_str:00000000000001dc .LASF32
     /tmp/cc8k8Hqy.s:3218   .debug_str:000000000000010b .LASF34
     /tmp/cc8k8Hqy.s:3290   .debug_str:000000000000030c .LASF36
     /tmp/cc8k8Hqy.s:841    .text:00000000000005e0 .LFB33
     /tmp/cc8k8Hqy.s:881    .text:0000000000000630 .LFE33
     /tmp/cc8k8Hqy.s:857    .text:0000000000000600 .LVL102
     /tmp/cc8k8Hqy.s:861    .text:0000000000000608 .LVL103
     /tmp/cc8k8Hqy.s:866    .text:0000000000000618 .LVL104
     /tmp/cc8k8Hqy.s:870    .text:0000000000000620 .LVL105
     /tmp/cc8k8Hqy.s:3308   .debug_str:000000000000044a .LASF37
     /tmp/cc8k8Hqy.s:3210   .debug_str:00000000000000cf .LASF38
     /tmp/cc8k8Hqy.s:737    .text:00000000000004e4 .LFB5
     /tmp/cc8k8Hqy.s:827    .text:00000000000005e0 .LFE5
     /tmp/cc8k8Hqy.s:3228   .debug_str:000000000000013f .LASF39
     /tmp/cc8k8Hqy.s:755    .text:000000000000050c .LVL93
     /tmp/cc8k8Hqy.s:760    .text:000000000000051c .LVL94
     /tmp/cc8k8Hqy.s:767    .text:0000000000000534 .LVL95
GAS LISTING /tmp/cc8k8Hqy.s 			page 31


     /tmp/cc8k8Hqy.s:772    .text:0000000000000544 .LVL96
     /tmp/cc8k8Hqy.s:779    .text:000000000000055c .LVL97
     /tmp/cc8k8Hqy.s:784    .text:000000000000056c .LVL98
     /tmp/cc8k8Hqy.s:791    .text:0000000000000584 .LVL99
     /tmp/cc8k8Hqy.s:796    .text:0000000000000594 .LVL100
     /tmp/cc8k8Hqy.s:802    .text:00000000000005a0 .LVL101
     /tmp/cc8k8Hqy.s:3194   .debug_str:0000000000000056 .LASF40
     /tmp/cc8k8Hqy.s:3258   .debug_str:0000000000000216 .LASF41
     /tmp/cc8k8Hqy.s:568    .text:000000000000039c .LFB4
     /tmp/cc8k8Hqy.s:717    .text:00000000000004e4 .LFE4
     /tmp/cc8k8Hqy.s:2931   .debug_loc:0000000000000000 .LLST13
     /tmp/cc8k8Hqy.s:2945   .debug_loc:0000000000000039 .LLST14
     /tmp/cc8k8Hqy.s:3180   .debug_str:0000000000000009 .LASF42
     /tmp/cc8k8Hqy.s:2965   .debug_loc:0000000000000096 .LLST15
     /tmp/cc8k8Hqy.s:595    .text:00000000000003cc .LVL71
     /tmp/cc8k8Hqy.s:602    .text:00000000000003e0 .LVL72
     /tmp/cc8k8Hqy.s:607    .text:00000000000003f0 .LVL73
     /tmp/cc8k8Hqy.s:622    .text:0000000000000410 .LVL76
     /tmp/cc8k8Hqy.s:633    .text:000000000000041c .LVL77
     /tmp/cc8k8Hqy.s:638    .text:0000000000000428 .LVL78
     /tmp/cc8k8Hqy.s:646    .text:000000000000043c .LVL81
     /tmp/cc8k8Hqy.s:653    .text:0000000000000450 .LVL82
     /tmp/cc8k8Hqy.s:658    .text:0000000000000460 .LVL83
     /tmp/cc8k8Hqy.s:665    .text:0000000000000474 .LVL84
     /tmp/cc8k8Hqy.s:672    .text:0000000000000488 .LVL85
     /tmp/cc8k8Hqy.s:677    .text:0000000000000498 .LVL86
     /tmp/cc8k8Hqy.s:692    .text:00000000000004b8 .LVL89
     /tmp/cc8k8Hqy.s:700    .text:00000000000004cc .LVL90
     /tmp/cc8k8Hqy.s:3184   .debug_str:000000000000001c .LASF43
     /tmp/cc8k8Hqy.s:3280   .debug_str:00000000000002c3 .LASF44
     /tmp/cc8k8Hqy.s:373    .text:000000000000021c .LFB3
     /tmp/cc8k8Hqy.s:548    .text:000000000000039c .LFE3
     /tmp/cc8k8Hqy.s:2976   .debug_loc:00000000000000cc .LLST9
     /tmp/cc8k8Hqy.s:2990   .debug_loc:0000000000000105 .LLST10
     /tmp/cc8k8Hqy.s:3010   .debug_loc:0000000000000162 .LLST11
     /tmp/cc8k8Hqy.s:3018   .debug_loc:0000000000000186 .LLST12
     /tmp/cc8k8Hqy.s:400    .text:000000000000024c .LVL42
     /tmp/cc8k8Hqy.s:407    .text:0000000000000260 .LVL43
     /tmp/cc8k8Hqy.s:412    .text:0000000000000270 .LVL44
     /tmp/cc8k8Hqy.s:427    .text:0000000000000290 .LVL47
     /tmp/cc8k8Hqy.s:438    .text:000000000000029c .LVL48
     /tmp/cc8k8Hqy.s:452    .text:00000000000002b0 .LVL50
     /tmp/cc8k8Hqy.s:459    .text:00000000000002c4 .LVL51
     /tmp/cc8k8Hqy.s:464    .text:00000000000002d4 .LVL52
     /tmp/cc8k8Hqy.s:469    .text:00000000000002e0 .LVL53
     /tmp/cc8k8Hqy.s:477    .text:00000000000002f4 .LVL56
     /tmp/cc8k8Hqy.s:484    .text:0000000000000308 .LVL57
     /tmp/cc8k8Hqy.s:489    .text:0000000000000318 .LVL58
     /tmp/cc8k8Hqy.s:496    .text:000000000000032c .LVL59
     /tmp/cc8k8Hqy.s:503    .text:0000000000000340 .LVL60
     /tmp/cc8k8Hqy.s:508    .text:0000000000000350 .LVL61
     /tmp/cc8k8Hqy.s:523    .text:0000000000000370 .LVL64
     /tmp/cc8k8Hqy.s:531    .text:0000000000000384 .LVL65
     /tmp/cc8k8Hqy.s:3182   .debug_str:0000000000000010 .LASF45
     /tmp/cc8k8Hqy.s:3320   .debug_str:000000000000049b .LASF46
     /tmp/cc8k8Hqy.s:159    .text:00000000000000d4 .LFB2
     /tmp/cc8k8Hqy.s:282    .text:00000000000001a8 .LFE2
GAS LISTING /tmp/cc8k8Hqy.s 			page 32


     /tmp/cc8k8Hqy.s:3029   .debug_loc:00000000000001bc .LLST4
     /tmp/cc8k8Hqy.s:177    .text:00000000000000ec .LBB10
     /tmp/cc8k8Hqy.s:253    .text:000000000000016c .LBE10
     /tmp/cc8k8Hqy.s:3043   .debug_loc:00000000000001f5 .LLST5
     /tmp/cc8k8Hqy.s:3162   .debug_ranges:0000000000000000 .Ldebug_ranges0
     /tmp/cc8k8Hqy.s:3055   .debug_loc:000000000000022c .LLST6
     /tmp/cc8k8Hqy.s:200    .text:000000000000010c .LBB14
     /tmp/cc8k8Hqy.s:215    .text:0000000000000124 .LBE14
     /tmp/cc8k8Hqy.s:3067   .debug_loc:0000000000000263 .LLST7
     /tmp/cc8k8Hqy.s:189    .text:00000000000000fc .LVL19
     /tmp/cc8k8Hqy.s:231    .text:0000000000000140 .LVL25
     /tmp/cc8k8Hqy.s:238    .text:0000000000000154 .LVL26
     /tmp/cc8k8Hqy.s:243    .text:0000000000000164 .LVL27
     /tmp/cc8k8Hqy.s:258    .text:000000000000017c .LVL29
     /tmp/cc8k8Hqy.s:266    .text:0000000000000190 .LVL30
     /tmp/cc8k8Hqy.s:3262   .debug_str:000000000000024b .LASF47
     /tmp/cc8k8Hqy.s:3208   .debug_str:00000000000000bd .LASF48
     /tmp/cc8k8Hqy.s:21     .text:0000000000000000 .LFB1
     /tmp/cc8k8Hqy.s:145    .text:00000000000000d4 .LFE1
     /tmp/cc8k8Hqy.s:3078   .debug_loc:0000000000000299 .LLST0
     /tmp/cc8k8Hqy.s:40     .text:0000000000000018 .LBB2
     /tmp/cc8k8Hqy.s:116    .text:0000000000000098 .LBE2
     /tmp/cc8k8Hqy.s:3092   .debug_loc:00000000000002d2 .LLST1
     /tmp/cc8k8Hqy.s:3104   .debug_loc:0000000000000309 .LLST2
     /tmp/cc8k8Hqy.s:63     .text:0000000000000038 .LBB6
     /tmp/cc8k8Hqy.s:78     .text:0000000000000050 .LBE6
     /tmp/cc8k8Hqy.s:3116   .debug_loc:0000000000000340 .LLST3
     /tmp/cc8k8Hqy.s:52     .text:0000000000000028 .LVL3
     /tmp/cc8k8Hqy.s:94     .text:000000000000006c .LVL9
     /tmp/cc8k8Hqy.s:101    .text:0000000000000080 .LVL10
     /tmp/cc8k8Hqy.s:106    .text:0000000000000090 .LVL11
     /tmp/cc8k8Hqy.s:121    .text:00000000000000a8 .LVL13
     /tmp/cc8k8Hqy.s:129    .text:00000000000000bc .LVL14
     /tmp/cc8k8Hqy.s:3314   .debug_str:000000000000047b .LASF71
     /tmp/cc8k8Hqy.s:3310   .debug_str:000000000000045d .LASF72
     /tmp/cc8k8Hqy.s:288    .text:00000000000001a8 .LFB0
     /tmp/cc8k8Hqy.s:353    .text:000000000000021c .LFE0
     /tmp/cc8k8Hqy.s:3127   .debug_loc:0000000000000376 .LLST8
     /tmp/cc8k8Hqy.s:320    .text:00000000000001e4 .LVL34
     /tmp/cc8k8Hqy.s:325    .text:00000000000001f4 .LVL35
     /tmp/cc8k8Hqy.s:350    .text:0000000000000218 .LVL38
     /tmp/cc8k8Hqy.s:3276   .debug_str:000000000000029a .LASF49
     /tmp/cc8k8Hqy.s:3292   .debug_str:0000000000000319 .LASF51
     /tmp/cc8k8Hqy.s:3192   .debug_str:000000000000004a .LASF50
     /tmp/cc8k8Hqy.s:3214   .debug_str:00000000000000f7 .LASF52
     /tmp/cc8k8Hqy.s:3322   .debug_str:00000000000004ad .LASF53
     /tmp/cc8k8Hqy.s:3230   .debug_str:0000000000000147 .LASF54
     /tmp/cc8k8Hqy.s:3204   .debug_str:0000000000000097 .LASF55
     /tmp/cc8k8Hqy.s:3264   .debug_str:0000000000000257 .LASF56
     /tmp/cc8k8Hqy.s:3226   .debug_str:0000000000000136 .LASF57
     /tmp/cc8k8Hqy.s:571    .text:000000000000039c .LVL68
     /tmp/cc8k8Hqy.s:589    .text:00000000000003bc .LVL70
     /tmp/cc8k8Hqy.s:585    .text:00000000000003b4 .LVL69
     /tmp/cc8k8Hqy.s:610    .text:00000000000003f4 .LVL74
     /tmp/cc8k8Hqy.s:612    .text:00000000000003f8 .LVL75
     /tmp/cc8k8Hqy.s:680    .text:000000000000049c .LVL87
     /tmp/cc8k8Hqy.s:682    .text:00000000000004a0 .LVL88
GAS LISTING /tmp/cc8k8Hqy.s 			page 33


     /tmp/cc8k8Hqy.s:709    .text:00000000000004d8 .LVL91
     /tmp/cc8k8Hqy.s:640    .text:000000000000042c .LVL79
     /tmp/cc8k8Hqy.s:644    .text:0000000000000434 .LVL80
     /tmp/cc8k8Hqy.s:712    .text:00000000000004dc .LVL92
     /tmp/cc8k8Hqy.s:376    .text:000000000000021c .LVL39
     /tmp/cc8k8Hqy.s:394    .text:000000000000023c .LVL41
     /tmp/cc8k8Hqy.s:390    .text:0000000000000234 .LVL40
     /tmp/cc8k8Hqy.s:415    .text:0000000000000274 .LVL45
     /tmp/cc8k8Hqy.s:417    .text:0000000000000278 .LVL46
     /tmp/cc8k8Hqy.s:511    .text:0000000000000354 .LVL62
     /tmp/cc8k8Hqy.s:513    .text:0000000000000358 .LVL63
     /tmp/cc8k8Hqy.s:540    .text:0000000000000390 .LVL66
     /tmp/cc8k8Hqy.s:446    .text:00000000000002a0 .LVL49
     /tmp/cc8k8Hqy.s:471    .text:00000000000002e4 .LVL54
     /tmp/cc8k8Hqy.s:475    .text:00000000000002ec .LVL55
     /tmp/cc8k8Hqy.s:543    .text:0000000000000394 .LVL67
     /tmp/cc8k8Hqy.s:162    .text:00000000000000d4 .LVL16
     /tmp/cc8k8Hqy.s:181    .text:00000000000000f4 .LVL18
     /tmp/cc8k8Hqy.s:176    .text:00000000000000ec .LVL17
     /tmp/cc8k8Hqy.s:277    .text:00000000000001a0 .LVL31
     /tmp/cc8k8Hqy.s:221    .text:0000000000000128 .LVL24
     /tmp/cc8k8Hqy.s:249    .text:000000000000016c .LVL28
     /tmp/cc8k8Hqy.s:204    .text:0000000000000110 .LVL21
     /tmp/cc8k8Hqy.s:213    .text:0000000000000124 .LVL23
     /tmp/cc8k8Hqy.s:25     .text:0000000000000000 .LVL0
     /tmp/cc8k8Hqy.s:44     .text:0000000000000020 .LVL2
     /tmp/cc8k8Hqy.s:39     .text:0000000000000018 .LVL1
     /tmp/cc8k8Hqy.s:140    .text:00000000000000cc .LVL15
     /tmp/cc8k8Hqy.s:84     .text:0000000000000054 .LVL8
     /tmp/cc8k8Hqy.s:112    .text:0000000000000098 .LVL12
     /tmp/cc8k8Hqy.s:67     .text:000000000000003c .LVL5
     /tmp/cc8k8Hqy.s:76     .text:0000000000000050 .LVL7
     /tmp/cc8k8Hqy.s:291    .text:00000000000001a8 .LVL32
     /tmp/cc8k8Hqy.s:314    .text:00000000000001d8 .LVL33
     /tmp/cc8k8Hqy.s:338    .text:0000000000000204 .LVL36
     /tmp/cc8k8Hqy.s:344    .text:0000000000000210 .LVL37
     /tmp/cc8k8Hqy.s:913    .debug_info:0000000000000000 .Ldebug_info0
     /tmp/cc8k8Hqy.s:47     .text:0000000000000020 .LBB4
     /tmp/cc8k8Hqy.s:80     .text:0000000000000050 .LBE4
     /tmp/cc8k8Hqy.s:108    .text:0000000000000090 .LBB8
     /tmp/cc8k8Hqy.s:114    .text:0000000000000098 .LBE8
     /tmp/cc8k8Hqy.s:184    .text:00000000000000f4 .LBB12
     /tmp/cc8k8Hqy.s:217    .text:0000000000000124 .LBE12
     /tmp/cc8k8Hqy.s:245    .text:0000000000000164 .LBB16
     /tmp/cc8k8Hqy.s:251    .text:000000000000016c .LBE16

UNDEFINED SYMBOLS
thread_dispatch
_Z11printStringPKc
_Z8printIntiii
thread_exit
thread_create
_Z14__print_stringPKc
