GAS LISTING /tmp/ccoedLLO.s 			page 1


   1              		.file	"userMain.cpp"
   2              		.option pic
   3              		.option norelax
   4              		.text
   5              	.Ltext0:
   6              		.section	.rodata.str1.8,"aMS",@progbits,1
   7              		.align	3
   8              	.LC0:
   9 0000 413A2069 		.string	"A: i="
   9      3D00
  10 0006 0000     		.align	3
  11              	.LC1:
  12 0008 0A00     		.string	"\n"
  13 000a 00000000 		.align	3
  13      0000
  14              	.LC2:
  15 0010 41206669 		.string	"A finished!\n"
  15      6E697368 
  15      6564210A 
  15      00
  16              		.text
  17              		.align	2
  18              		.globl	_Z11workerBodyAPv
  20              	_Z11workerBodyAPv:
  21              	.LFB1:
  22              		.file 1 "test/../test/Threads_C_API_test.hpp"
   1:test/../test/Threads_C_API_test.hpp **** #ifndef XV6_THREADS_C_API_TEST_HPP
   2:test/../test/Threads_C_API_test.hpp **** #define XV6_THREADS_C_API_TEST_HPP
   3:test/../test/Threads_C_API_test.hpp **** 
   4:test/../test/Threads_C_API_test.hpp **** #include "../h/syscall_c.h"
   5:test/../test/Threads_C_API_test.hpp **** 
   6:test/../test/Threads_C_API_test.hpp **** #include "printing.hpp"
   7:test/../test/Threads_C_API_test.hpp **** 
   8:test/../test/Threads_C_API_test.hpp **** bool finishedA = false;
   9:test/../test/Threads_C_API_test.hpp **** bool finishedB = false;
  10:test/../test/Threads_C_API_test.hpp **** bool finishedC = false;
  11:test/../test/Threads_C_API_test.hpp **** bool finishedD = false;
  12:test/../test/Threads_C_API_test.hpp **** 
  13:test/../test/Threads_C_API_test.hpp **** uint64 fibonacci(uint64 n) {
  14:test/../test/Threads_C_API_test.hpp ****     if (n == 0 || n == 1) { return n; }
  15:test/../test/Threads_C_API_test.hpp ****     if (n % 10 == 0) { thread_dispatch(); }
  16:test/../test/Threads_C_API_test.hpp ****     return fibonacci(n - 1) + fibonacci(n - 2);
  17:test/../test/Threads_C_API_test.hpp **** }
  18:test/../test/Threads_C_API_test.hpp **** 
  19:test/../test/Threads_C_API_test.hpp **** void workerBodyA(void* arg) {
  23              		.loc 1 19 29
  24              		.cfi_startproc
  25              	.LVL0:
  26 0000 130101FE 		addi	sp,sp,-32
  27              		.cfi_def_cfa_offset 32
  28 0004 233C1100 		sd	ra,24(sp)
  29 0008 23388100 		sd	s0,16(sp)
  30 000c 23349100 		sd	s1,8(sp)
  31 0010 23302101 		sd	s2,0(sp)
  32              		.cfi_offset 1, -8
  33              		.cfi_offset 8, -16
  34              		.cfi_offset 9, -24
GAS LISTING /tmp/ccoedLLO.s 			page 2


  35              		.cfi_offset 18, -32
  36 0014 13040102 		addi	s0,sp,32
  37              		.cfi_def_cfa 8, 0
  20:test/../test/Threads_C_API_test.hpp ****     for (uint64 i = 0; i < 10; i++) {
  38              		.loc 1 20 5
  39              	.LVL1:
  40              	.LBB2:
  41              		.loc 1 20 17 is_stmt 0
  42 0018 13090000 		li	s2,0
  43 001c 6F008003 		j	.L7
  44              	.LVL2:
  45              	.L4:
  46              	.LBB3:
  47              	.LBB4:
  48              	.LBB5:
  21:test/../test/Threads_C_API_test.hpp ****         printString("A: i="); printInt(i); printString("\n");
  22:test/../test/Threads_C_API_test.hpp ****         for (uint64 j = 0; j < 10000; j++) {
  23:test/../test/Threads_C_API_test.hpp ****             for (uint64 k = 0; k < 30000; k++) { /* busy wait */ }
  24:test/../test/Threads_C_API_test.hpp ****             thread_dispatch();
  49              		.loc 1 24 13 is_stmt 1 discriminator 2
  50              		.loc 1 24 28 is_stmt 0 discriminator 2
  51 0020 97000000 		call	thread_dispatch@plt
  51      E7800000 
  52              	.LVL3:
  53              	.LBE5:
  22:test/../test/Threads_C_API_test.hpp ****             for (uint64 k = 0; k < 30000; k++) { /* busy wait */ }
  54              		.loc 1 22 9 is_stmt 1 discriminator 2
  55 0028 93841400 		addi	s1,s1,1
  56              	.LVL4:
  57              	.L6:
  22:test/../test/Threads_C_API_test.hpp ****             for (uint64 k = 0; k < 30000; k++) { /* busy wait */ }
  58              		.loc 1 22 30 discriminator 1
  59 002c B7270000 		li	a5,8192
  60 0030 9387F770 		addi	a5,a5,1807
  61 0034 63EE9700 		bgtu	s1,a5,.L3
  62              	.LBB7:
  63              	.LBB6:
  23:test/../test/Threads_C_API_test.hpp ****             thread_dispatch();
  64              		.loc 1 23 25 is_stmt 0
  65 0038 13070000 		li	a4,0
  66              	.L5:
  67              	.LVL5:
  23:test/../test/Threads_C_API_test.hpp ****             thread_dispatch();
  68              		.loc 1 23 34 is_stmt 1 discriminator 3
  69 003c B7770000 		li	a5,28672
  70 0040 9387F752 		addi	a5,a5,1327
  71 0044 E3EEE7FC 		bgtu	a4,a5,.L4
  23:test/../test/Threads_C_API_test.hpp ****             thread_dispatch();
  72              		.loc 1 23 13 discriminator 2
  73 0048 13071700 		addi	a4,a4,1
  74              	.LVL6:
  75 004c 6FF01FFF 		j	.L5
  76              	.LVL7:
  77              	.L3:
  78              	.LBE6:
  79              	.LBE7:
  80              	.LBE4:
GAS LISTING /tmp/ccoedLLO.s 			page 3


  81              	.LBE3:
  20:test/../test/Threads_C_API_test.hpp ****         printString("A: i="); printInt(i); printString("\n");
  82              		.loc 1 20 5 discriminator 2
  83 0050 13091900 		addi	s2,s2,1
  84              	.LVL8:
  85              	.L7:
  20:test/../test/Threads_C_API_test.hpp ****         printString("A: i="); printInt(i); printString("\n");
  86              		.loc 1 20 26 discriminator 1
  87 0054 93079000 		li	a5,9
  88 0058 63E02705 		bgtu	s2,a5,.L2
  89              	.LBB9:
  21:test/../test/Threads_C_API_test.hpp ****         for (uint64 j = 0; j < 10000; j++) {
  90              		.loc 1 21 9
  21:test/../test/Threads_C_API_test.hpp ****         for (uint64 j = 0; j < 10000; j++) {
  91              		.loc 1 21 20 is_stmt 0
  92 005c 17050000 		lla	a0,.LC0
  92      13050500 
  93 0064 97000000 		call	_Z11printStringPKc@plt
  93      E7800000 
  94              	.LVL9:
  21:test/../test/Threads_C_API_test.hpp ****         for (uint64 j = 0; j < 10000; j++) {
  95              		.loc 1 21 31 is_stmt 1
  21:test/../test/Threads_C_API_test.hpp ****         for (uint64 j = 0; j < 10000; j++) {
  96              		.loc 1 21 39 is_stmt 0
  97 006c 13060000 		li	a2,0
  98 0070 9305A000 		li	a1,10
  99 0074 1B050900 		sext.w	a0,s2
 100 0078 97000000 		call	_Z8printIntiii@plt
 100      E7800000 
 101              	.LVL10:
  21:test/../test/Threads_C_API_test.hpp ****         for (uint64 j = 0; j < 10000; j++) {
 102              		.loc 1 21 44 is_stmt 1
  21:test/../test/Threads_C_API_test.hpp ****         for (uint64 j = 0; j < 10000; j++) {
 103              		.loc 1 21 55 is_stmt 0
 104 0080 17050000 		lla	a0,.LC1
 104      13050500 
 105 0088 97000000 		call	_Z11printStringPKc@plt
 105      E7800000 
 106              	.LVL11:
  22:test/../test/Threads_C_API_test.hpp ****             for (uint64 k = 0; k < 30000; k++) { /* busy wait */ }
 107              		.loc 1 22 9 is_stmt 1
 108              	.LBB8:
  22:test/../test/Threads_C_API_test.hpp ****             for (uint64 k = 0; k < 30000; k++) { /* busy wait */ }
 109              		.loc 1 22 21 is_stmt 0
 110 0090 93040000 		li	s1,0
 111 0094 6FF09FF9 		j	.L6
 112              	.LVL12:
 113              	.L2:
 114              	.LBE8:
 115              	.LBE9:
 116              	.LBE2:
  25:test/../test/Threads_C_API_test.hpp ****         }
  26:test/../test/Threads_C_API_test.hpp ****     }
  27:test/../test/Threads_C_API_test.hpp ****     printString("A finished!\n");
 117              		.loc 1 27 5 is_stmt 1
 118              		.loc 1 27 16 is_stmt 0
 119 0098 17050000 		lla	a0,.LC2
GAS LISTING /tmp/ccoedLLO.s 			page 4


 119      13050500 
 120 00a0 97000000 		call	_Z11printStringPKc@plt
 120      E7800000 
 121              	.LVL13:
  28:test/../test/Threads_C_API_test.hpp ****     finishedA = true;
 122              		.loc 1 28 5 is_stmt 1
 123              		.loc 1 28 15 is_stmt 0
 124 00a8 93071000 		li	a5,1
 125 00ac 17070000 		sb	a5,.LANCHOR0,a4
 125      2300F700 
  29:test/../test/Threads_C_API_test.hpp ****     //thread_exit();
  30:test/../test/Threads_C_API_test.hpp **** }
 126              		.loc 1 30 1
 127 00b4 83308101 		ld	ra,24(sp)
 128              		.cfi_restore 1
 129 00b8 03340101 		ld	s0,16(sp)
 130              		.cfi_restore 8
 131              		.cfi_def_cfa 2, 32
 132 00bc 83348100 		ld	s1,8(sp)
 133              		.cfi_restore 9
 134 00c0 03390100 		ld	s2,0(sp)
 135              		.cfi_restore 18
 136              	.LVL14:
 137 00c4 13010102 		addi	sp,sp,32
 138              		.cfi_def_cfa_offset 0
 139 00c8 67800000 		jr	ra
 140              		.cfi_endproc
 141              	.LFE1:
 143              		.section	.rodata.str1.8
 144 001d 000000   		.align	3
 145              	.LC3:
 146 0020 423A2069 		.string	"B: i="
 146      3D00
 147 0026 0000     		.align	3
 148              	.LC4:
 149 0028 42206669 		.string	"B finished!\n"
 149      6E697368 
 149      6564210A 
 149      00
 150              		.text
 151              		.align	2
 152              		.globl	_Z11workerBodyBPv
 154              	_Z11workerBodyBPv:
 155              	.LFB2:
  31:test/../test/Threads_C_API_test.hpp **** 
  32:test/../test/Threads_C_API_test.hpp **** void workerBodyB(void* arg) {
 156              		.loc 1 32 29 is_stmt 1
 157              		.cfi_startproc
 158              	.LVL15:
 159 00cc 130101FE 		addi	sp,sp,-32
 160              		.cfi_def_cfa_offset 32
 161 00d0 233C1100 		sd	ra,24(sp)
 162 00d4 23388100 		sd	s0,16(sp)
 163 00d8 23349100 		sd	s1,8(sp)
 164 00dc 23302101 		sd	s2,0(sp)
 165              		.cfi_offset 1, -8
 166              		.cfi_offset 8, -16
GAS LISTING /tmp/ccoedLLO.s 			page 5


 167              		.cfi_offset 9, -24
 168              		.cfi_offset 18, -32
 169 00e0 13040102 		addi	s0,sp,32
 170              		.cfi_def_cfa 8, 0
  33:test/../test/Threads_C_API_test.hpp ****     for (uint64 i = 0; i < 16; i++) {
 171              		.loc 1 33 5
 172              	.LVL16:
 173              	.LBB10:
 174              		.loc 1 33 17 is_stmt 0
 175 00e4 13090000 		li	s2,0
 176 00e8 6F008003 		j	.L15
 177              	.LVL17:
 178              	.L12:
 179              	.LBB11:
 180              	.LBB12:
 181              	.LBB13:
  34:test/../test/Threads_C_API_test.hpp ****         printString("B: i="); printInt(i); printString("\n");
  35:test/../test/Threads_C_API_test.hpp ****         for (uint64 j = 0; j < 10000; j++) {
  36:test/../test/Threads_C_API_test.hpp ****             for (uint64 k = 0; k < 30000; k++) { /* busy wait */ }
  37:test/../test/Threads_C_API_test.hpp ****             thread_dispatch();
 182              		.loc 1 37 13 is_stmt 1 discriminator 2
 183              		.loc 1 37 28 is_stmt 0 discriminator 2
 184 00ec 97000000 		call	thread_dispatch@plt
 184      E7800000 
 185              	.LVL18:
 186              	.LBE13:
  35:test/../test/Threads_C_API_test.hpp ****             for (uint64 k = 0; k < 30000; k++) { /* busy wait */ }
 187              		.loc 1 35 9 is_stmt 1 discriminator 2
 188 00f4 93841400 		addi	s1,s1,1
 189              	.LVL19:
 190              	.L14:
  35:test/../test/Threads_C_API_test.hpp ****             for (uint64 k = 0; k < 30000; k++) { /* busy wait */ }
 191              		.loc 1 35 30 discriminator 1
 192 00f8 B7270000 		li	a5,8192
 193 00fc 9387F770 		addi	a5,a5,1807
 194 0100 63EE9700 		bgtu	s1,a5,.L11
 195              	.LBB15:
 196              	.LBB14:
  36:test/../test/Threads_C_API_test.hpp ****             thread_dispatch();
 197              		.loc 1 36 25 is_stmt 0
 198 0104 13070000 		li	a4,0
 199              	.L13:
 200              	.LVL20:
  36:test/../test/Threads_C_API_test.hpp ****             thread_dispatch();
 201              		.loc 1 36 34 is_stmt 1 discriminator 3
 202 0108 B7770000 		li	a5,28672
 203 010c 9387F752 		addi	a5,a5,1327
 204 0110 E3EEE7FC 		bgtu	a4,a5,.L12
  36:test/../test/Threads_C_API_test.hpp ****             thread_dispatch();
 205              		.loc 1 36 13 discriminator 2
 206 0114 13071700 		addi	a4,a4,1
 207              	.LVL21:
 208 0118 6FF01FFF 		j	.L13
 209              	.LVL22:
 210              	.L11:
 211              	.LBE14:
 212              	.LBE15:
GAS LISTING /tmp/ccoedLLO.s 			page 6


 213              	.LBE12:
 214              	.LBE11:
  33:test/../test/Threads_C_API_test.hpp ****         printString("B: i="); printInt(i); printString("\n");
 215              		.loc 1 33 5 discriminator 2
 216 011c 13091900 		addi	s2,s2,1
 217              	.LVL23:
 218              	.L15:
  33:test/../test/Threads_C_API_test.hpp ****         printString("B: i="); printInt(i); printString("\n");
 219              		.loc 1 33 26 discriminator 1
 220 0120 9307F000 		li	a5,15
 221 0124 63E02705 		bgtu	s2,a5,.L10
 222              	.LBB17:
  34:test/../test/Threads_C_API_test.hpp ****         for (uint64 j = 0; j < 10000; j++) {
 223              		.loc 1 34 9
  34:test/../test/Threads_C_API_test.hpp ****         for (uint64 j = 0; j < 10000; j++) {
 224              		.loc 1 34 20 is_stmt 0
 225 0128 17050000 		lla	a0,.LC3
 225      13050500 
 226 0130 97000000 		call	_Z11printStringPKc@plt
 226      E7800000 
 227              	.LVL24:
  34:test/../test/Threads_C_API_test.hpp ****         for (uint64 j = 0; j < 10000; j++) {
 228              		.loc 1 34 31 is_stmt 1
  34:test/../test/Threads_C_API_test.hpp ****         for (uint64 j = 0; j < 10000; j++) {
 229              		.loc 1 34 39 is_stmt 0
 230 0138 13060000 		li	a2,0
 231 013c 9305A000 		li	a1,10
 232 0140 1B050900 		sext.w	a0,s2
 233 0144 97000000 		call	_Z8printIntiii@plt
 233      E7800000 
 234              	.LVL25:
  34:test/../test/Threads_C_API_test.hpp ****         for (uint64 j = 0; j < 10000; j++) {
 235              		.loc 1 34 44 is_stmt 1
  34:test/../test/Threads_C_API_test.hpp ****         for (uint64 j = 0; j < 10000; j++) {
 236              		.loc 1 34 55 is_stmt 0
 237 014c 17050000 		lla	a0,.LC1
 237      13050500 
 238 0154 97000000 		call	_Z11printStringPKc@plt
 238      E7800000 
 239              	.LVL26:
  35:test/../test/Threads_C_API_test.hpp ****             for (uint64 k = 0; k < 30000; k++) { /* busy wait */ }
 240              		.loc 1 35 9 is_stmt 1
 241              	.LBB16:
  35:test/../test/Threads_C_API_test.hpp ****             for (uint64 k = 0; k < 30000; k++) { /* busy wait */ }
 242              		.loc 1 35 21 is_stmt 0
 243 015c 93040000 		li	s1,0
 244 0160 6FF09FF9 		j	.L14
 245              	.LVL27:
 246              	.L10:
 247              	.LBE16:
 248              	.LBE17:
 249              	.LBE10:
  38:test/../test/Threads_C_API_test.hpp ****         }
  39:test/../test/Threads_C_API_test.hpp ****     }
  40:test/../test/Threads_C_API_test.hpp ****     printString("B finished!\n");
 250              		.loc 1 40 5 is_stmt 1
 251              		.loc 1 40 16 is_stmt 0
GAS LISTING /tmp/ccoedLLO.s 			page 7


 252 0164 17050000 		lla	a0,.LC4
 252      13050500 
 253 016c 97000000 		call	_Z11printStringPKc@plt
 253      E7800000 
 254              	.LVL28:
  41:test/../test/Threads_C_API_test.hpp ****     finishedB = true;
 255              		.loc 1 41 5 is_stmt 1
 256              		.loc 1 41 15 is_stmt 0
 257 0174 93071000 		li	a5,1
 258 0178 17070000 		sb	a5,.LANCHOR0+1,a4
 258      2300F700 
  42:test/../test/Threads_C_API_test.hpp ****     //thread_dispatch();
  43:test/../test/Threads_C_API_test.hpp ****     //thread_exit();
  44:test/../test/Threads_C_API_test.hpp **** }
 259              		.loc 1 44 1
 260 0180 83308101 		ld	ra,24(sp)
 261              		.cfi_restore 1
 262 0184 03340101 		ld	s0,16(sp)
 263              		.cfi_restore 8
 264              		.cfi_def_cfa 2, 32
 265 0188 83348100 		ld	s1,8(sp)
 266              		.cfi_restore 9
 267 018c 03390100 		ld	s2,0(sp)
 268              		.cfi_restore 18
 269              	.LVL29:
 270 0190 13010102 		addi	sp,sp,32
 271              		.cfi_def_cfa_offset 0
 272 0194 67800000 		jr	ra
 273              		.cfi_endproc
 274              	.LFE2:
 276              		.align	2
 277              		.globl	_Z9fibonaccim
 279              	_Z9fibonaccim:
 280              	.LFB0:
  13:test/../test/Threads_C_API_test.hpp ****     if (n == 0 || n == 1) { return n; }
 281              		.loc 1 13 28 is_stmt 1
 282              		.cfi_startproc
 283              	.LVL30:
 284 0198 130101FE 		addi	sp,sp,-32
 285              		.cfi_def_cfa_offset 32
 286 019c 233C1100 		sd	ra,24(sp)
 287 01a0 23388100 		sd	s0,16(sp)
 288 01a4 23349100 		sd	s1,8(sp)
 289 01a8 23302101 		sd	s2,0(sp)
 290              		.cfi_offset 1, -8
 291              		.cfi_offset 8, -16
 292              		.cfi_offset 9, -24
 293              		.cfi_offset 18, -32
 294 01ac 13040102 		addi	s0,sp,32
 295              		.cfi_def_cfa 8, 0
 296 01b0 93040500 		mv	s1,a0
  14:test/../test/Threads_C_API_test.hpp ****     if (n % 10 == 0) { thread_dispatch(); }
 297              		.loc 1 14 5
 298 01b4 93071000 		li	a5,1
 299 01b8 63F8A702 		bleu	a0,a5,.L17
  15:test/../test/Threads_C_API_test.hpp ****     return fibonacci(n - 1) + fibonacci(n - 2);
 300              		.loc 1 15 5
GAS LISTING /tmp/ccoedLLO.s 			page 8


  15:test/../test/Threads_C_API_test.hpp ****     return fibonacci(n - 1) + fibonacci(n - 2);
 301              		.loc 1 15 11 is_stmt 0
 302 01bc 9307A000 		li	a5,10
 303 01c0 B377F502 		remu	a5,a0,a5
  15:test/../test/Threads_C_API_test.hpp ****     return fibonacci(n - 1) + fibonacci(n - 2);
 304              		.loc 1 15 5
 305 01c4 638E0702 		beqz	a5,.L22
 306              	.LVL31:
 307              	.L19:
  16:test/../test/Threads_C_API_test.hpp **** }
 308              		.loc 1 16 5 is_stmt 1
  16:test/../test/Threads_C_API_test.hpp **** }
 309              		.loc 1 16 21 is_stmt 0
 310 01c8 1385F4FF 		addi	a0,s1,-1
 311 01cc 97000000 		call	_Z9fibonaccim
 311      E7800000 
 312              	.LVL32:
 313 01d4 13090500 		mv	s2,a0
  16:test/../test/Threads_C_API_test.hpp **** }
 314              		.loc 1 16 40
 315 01d8 1385E4FF 		addi	a0,s1,-2
 316 01dc 97000000 		call	_Z9fibonaccim
 316      E7800000 
 317              	.LVL33:
  16:test/../test/Threads_C_API_test.hpp **** }
 318              		.loc 1 16 46
 319 01e4 3305A900 		add	a0,s2,a0
 320              	.L17:
  17:test/../test/Threads_C_API_test.hpp **** 
 321              		.loc 1 17 1
 322 01e8 83308101 		ld	ra,24(sp)
 323              		.cfi_remember_state
 324              		.cfi_restore 1
 325 01ec 03340101 		ld	s0,16(sp)
 326              		.cfi_restore 8
 327              		.cfi_def_cfa 2, 32
 328 01f0 83348100 		ld	s1,8(sp)
 329              		.cfi_restore 9
 330              	.LVL34:
 331 01f4 03390100 		ld	s2,0(sp)
 332              		.cfi_restore 18
 333 01f8 13010102 		addi	sp,sp,32
 334              		.cfi_def_cfa_offset 0
 335 01fc 67800000 		jr	ra
 336              	.LVL35:
 337              	.L22:
 338              		.cfi_restore_state
  15:test/../test/Threads_C_API_test.hpp ****     return fibonacci(n - 1) + fibonacci(n - 2);
 339              		.loc 1 15 24 is_stmt 1 discriminator 1
  15:test/../test/Threads_C_API_test.hpp ****     return fibonacci(n - 1) + fibonacci(n - 2);
 340              		.loc 1 15 39 is_stmt 0 discriminator 1
 341 0200 97000000 		call	thread_dispatch@plt
 341      E7800000 
 342              	.LVL36:
 343 0208 6FF01FFC 		j	.L19
 344              		.cfi_endproc
 345              	.LFE0:
GAS LISTING /tmp/ccoedLLO.s 			page 9


 347              		.section	.rodata.str1.8
 348 0035 000000   		.align	3
 349              	.LC5:
 350 0038 433A2069 		.string	"C: i="
 350      3D00
 351 003e 0000     		.align	3
 352              	.LC6:
 353 0040 433A2064 		.string	"C: dispatch\n"
 353      69737061 
 353      7463680A 
 353      00
 354 004d 000000   		.align	3
 355              	.LC7:
 356 0050 433A2074 		.string	"C: t1="
 356      313D00
 357 0057 00       		.align	3
 358              	.LC8:
 359 0058 433A2066 		.string	"C: fibonaci="
 359      69626F6E 
 359      6163693D 
 359      00
 360              		.text
 361              		.align	2
 362              		.globl	_Z11workerBodyCPv
 364              	_Z11workerBodyCPv:
 365              	.LFB3:
  45:test/../test/Threads_C_API_test.hpp **** 
  46:test/../test/Threads_C_API_test.hpp **** void workerBodyC(void* arg) {
 366              		.loc 1 46 29 is_stmt 1
 367              		.cfi_startproc
 368              	.LVL37:
 369 020c 130101FE 		addi	sp,sp,-32
 370              		.cfi_def_cfa_offset 32
 371 0210 233C1100 		sd	ra,24(sp)
 372 0214 23388100 		sd	s0,16(sp)
 373 0218 23349100 		sd	s1,8(sp)
 374 021c 23302101 		sd	s2,0(sp)
 375              		.cfi_offset 1, -8
 376              		.cfi_offset 8, -16
 377              		.cfi_offset 9, -24
 378              		.cfi_offset 18, -32
 379 0220 13040102 		addi	s0,sp,32
 380              		.cfi_def_cfa 8, 0
  47:test/../test/Threads_C_API_test.hpp ****     uint8 i = 0;
 381              		.loc 1 47 5
 382              	.LVL38:
 383              		.loc 1 47 11 is_stmt 0
 384 0224 93040000 		li	s1,0
 385 0228 6F000004 		j	.L25
 386              	.LVL39:
 387              	.L29:
  48:test/../test/Threads_C_API_test.hpp ****     for (; i < 3; i++) {
  49:test/../test/Threads_C_API_test.hpp ****         printString("C: i="); printInt(i); printString("\n");
 388              		.loc 1 49 9 is_stmt 1 discriminator 1
 389              		.loc 1 49 20 is_stmt 0 discriminator 1
 390 022c 17050000 		lla	a0,.LC5
 390      13050500 
GAS LISTING /tmp/ccoedLLO.s 			page 10


 391 0234 97000000 		call	_Z11printStringPKc@plt
 391      E7800000 
 392              	.LVL40:
 393              		.loc 1 49 31 is_stmt 1 discriminator 1
 394              		.loc 1 49 39 is_stmt 0 discriminator 1
 395 023c 13060000 		li	a2,0
 396 0240 9305A000 		li	a1,10
 397 0244 13850400 		mv	a0,s1
 398 0248 97000000 		call	_Z8printIntiii@plt
 398      E7800000 
 399              	.LVL41:
 400              		.loc 1 49 44 is_stmt 1 discriminator 1
 401              		.loc 1 49 55 is_stmt 0 discriminator 1
 402 0250 17050000 		lla	a0,.LC1
 402      13050500 
 403 0258 97000000 		call	_Z11printStringPKc@plt
 403      E7800000 
 404              	.LVL42:
  48:test/../test/Threads_C_API_test.hpp ****     for (; i < 3; i++) {
 405              		.loc 1 48 5 is_stmt 1 discriminator 1
 406 0260 9B841400 		addiw	s1,s1,1
 407              	.LVL43:
 408 0264 93F4F40F 		andi	s1,s1,0xff
 409              	.LVL44:
 410              	.L25:
  48:test/../test/Threads_C_API_test.hpp ****     for (; i < 3; i++) {
 411              		.loc 1 48 5 discriminator 2
  48:test/../test/Threads_C_API_test.hpp ****     for (; i < 3; i++) {
 412              		.loc 1 48 14 discriminator 2
 413 0268 93072000 		li	a5,2
 414 026c E3F097FC 		bleu	s1,a5,.L29
  50:test/../test/Threads_C_API_test.hpp ****     }
  51:test/../test/Threads_C_API_test.hpp **** 
  52:test/../test/Threads_C_API_test.hpp ****     printString("C: dispatch\n");
 415              		.loc 1 52 5
 416              		.loc 1 52 16 is_stmt 0
 417 0270 17050000 		lla	a0,.LC6
 417      13050500 
 418 0278 97000000 		call	_Z11printStringPKc@plt
 418      E7800000 
 419              	.LVL45:
  53:test/../test/Threads_C_API_test.hpp ****     __asm__ ("li t1, 7");
 420              		.loc 1 53 5 is_stmt 1
 421              		.loc 1 53 25 is_stmt 0
 422              	#APP
 423              	# 53 "test/../test/Threads_C_API_test.hpp" 1
  54              	    thread_dispatch();
 424              		li t1, 7
 425              	# 0 "" 2
 426              		.loc 1 54 5 is_stmt 1
 427              		.loc 1 54 20 is_stmt 0
 428              	#NO_APP
 429 0284 97000000 		call	thread_dispatch@plt
 429      E7800000 
 430              	.LVL46:
  55:test/../test/Threads_C_API_test.hpp **** 
  56:test/../test/Threads_C_API_test.hpp ****     uint64 t1 = 0;
GAS LISTING /tmp/ccoedLLO.s 			page 11


 431              		.loc 1 56 5 is_stmt 1
  57:test/../test/Threads_C_API_test.hpp ****     __asm__ ("mv %[t1], t1" : [t1] "=r"(t1));
 432              		.loc 1 57 5
 433              		.loc 1 57 45 is_stmt 0
 434              	#APP
 435              	# 57 "test/../test/Threads_C_API_test.hpp" 1
  58              	
 436              		mv s2, t1
 437              	# 0 "" 2
 438              	.LVL47:
  59:test/../test/Threads_C_API_test.hpp ****     printString("C: t1="); printInt(t1); printString("\n");
 439              		.loc 1 59 5 is_stmt 1
 440              		.loc 1 59 16 is_stmt 0
 441              	#NO_APP
 442 0290 17050000 		lla	a0,.LC7
 442      13050500 
 443 0298 97000000 		call	_Z11printStringPKc@plt
 443      E7800000 
 444              	.LVL48:
 445              		.loc 1 59 28 is_stmt 1
 446              		.loc 1 59 36 is_stmt 0
 447 02a0 13060000 		li	a2,0
 448 02a4 9305A000 		li	a1,10
 449 02a8 1B050900 		sext.w	a0,s2
 450 02ac 97000000 		call	_Z8printIntiii@plt
 450      E7800000 
 451              	.LVL49:
 452              		.loc 1 59 42 is_stmt 1
 453              		.loc 1 59 53 is_stmt 0
 454 02b4 17050000 		lla	a0,.LC1
 454      13050500 
 455 02bc 97000000 		call	_Z11printStringPKc@plt
 455      E7800000 
 456              	.LVL50:
  60:test/../test/Threads_C_API_test.hpp **** 
  61:test/../test/Threads_C_API_test.hpp ****     uint64 result = fibonacci(12);
 457              		.loc 1 61 5 is_stmt 1
 458              		.loc 1 61 30 is_stmt 0
 459 02c4 1305C000 		li	a0,12
 460 02c8 97000000 		call	_Z9fibonaccim
 460      E7800000 
 461              	.LVL51:
 462 02d0 13090500 		mv	s2,a0
 463              	.LVL52:
  62:test/../test/Threads_C_API_test.hpp ****     printString("C: fibonaci="); printInt(result); printString("\n");
 464              		.loc 1 62 5 is_stmt 1
 465              		.loc 1 62 16 is_stmt 0
 466 02d4 17050000 		lla	a0,.LC8
 466      13050500 
 467              	.LVL53:
 468 02dc 97000000 		call	_Z11printStringPKc@plt
 468      E7800000 
 469              	.LVL54:
 470              		.loc 1 62 34 is_stmt 1
 471              		.loc 1 62 42 is_stmt 0
 472 02e4 13060000 		li	a2,0
 473 02e8 9305A000 		li	a1,10
GAS LISTING /tmp/ccoedLLO.s 			page 12


 474 02ec 1B050900 		sext.w	a0,s2
 475 02f0 97000000 		call	_Z8printIntiii@plt
 475      E7800000 
 476              	.LVL55:
 477              		.loc 1 62 52 is_stmt 1
 478              		.loc 1 62 63 is_stmt 0
 479 02f8 17050000 		lla	a0,.LC1
 479      13050500 
 480 0300 97000000 		call	_Z11printStringPKc@plt
 480      E7800000 
 481              	.LVL56:
 482 0308 6F000004 		j	.L27
 483              	.L30:
  63:test/../test/Threads_C_API_test.hpp **** 
  64:test/../test/Threads_C_API_test.hpp ****     for (; i < 6; i++) {
  65:test/../test/Threads_C_API_test.hpp ****         printString("C: i="); printInt(i); printString("\n");
 484              		.loc 1 65 9 is_stmt 1 discriminator 1
 485              		.loc 1 65 20 is_stmt 0 discriminator 1
 486 030c 17050000 		lla	a0,.LC5
 486      13050500 
 487 0314 97000000 		call	_Z11printStringPKc@plt
 487      E7800000 
 488              	.LVL57:
 489              		.loc 1 65 31 is_stmt 1 discriminator 1
 490              		.loc 1 65 39 is_stmt 0 discriminator 1
 491 031c 13060000 		li	a2,0
 492 0320 9305A000 		li	a1,10
 493 0324 13850400 		mv	a0,s1
 494 0328 97000000 		call	_Z8printIntiii@plt
 494      E7800000 
 495              	.LVL58:
 496              		.loc 1 65 44 is_stmt 1 discriminator 1
 497              		.loc 1 65 55 is_stmt 0 discriminator 1
 498 0330 17050000 		lla	a0,.LC1
 498      13050500 
 499 0338 97000000 		call	_Z11printStringPKc@plt
 499      E7800000 
 500              	.LVL59:
  64:test/../test/Threads_C_API_test.hpp ****         printString("C: i="); printInt(i); printString("\n");
 501              		.loc 1 64 5 is_stmt 1 discriminator 1
 502 0340 9B841400 		addiw	s1,s1,1
 503              	.LVL60:
 504 0344 93F4F40F 		andi	s1,s1,0xff
 505              	.LVL61:
 506              	.L27:
  64:test/../test/Threads_C_API_test.hpp ****         printString("C: i="); printInt(i); printString("\n");
 507              		.loc 1 64 5 discriminator 2
  64:test/../test/Threads_C_API_test.hpp ****         printString("C: i="); printInt(i); printString("\n");
 508              		.loc 1 64 14 discriminator 2
 509 0348 93075000 		li	a5,5
 510 034c E3F097FC 		bleu	s1,a5,.L30
  66:test/../test/Threads_C_API_test.hpp ****     }
  67:test/../test/Threads_C_API_test.hpp **** 
  68:test/../test/Threads_C_API_test.hpp ****     printString("A finished!\n");
 511              		.loc 1 68 5
 512              		.loc 1 68 16 is_stmt 0
 513 0350 17050000 		lla	a0,.LC2
GAS LISTING /tmp/ccoedLLO.s 			page 13


 513      13050500 
 514 0358 97000000 		call	_Z11printStringPKc@plt
 514      E7800000 
 515              	.LVL62:
  69:test/../test/Threads_C_API_test.hpp ****     finishedC = true;
 516              		.loc 1 69 5 is_stmt 1
 517              		.loc 1 69 15 is_stmt 0
 518 0360 93071000 		li	a5,1
 519 0364 17070000 		sb	a5,.LANCHOR0+2,a4
 519      2300F700 
  70:test/../test/Threads_C_API_test.hpp ****     //thread_dispatch();
  71:test/../test/Threads_C_API_test.hpp ****     //thread_exit();
  72:test/../test/Threads_C_API_test.hpp **** }
 520              		.loc 1 72 1
 521 036c 83308101 		ld	ra,24(sp)
 522              		.cfi_restore 1
 523 0370 03340101 		ld	s0,16(sp)
 524              		.cfi_restore 8
 525              		.cfi_def_cfa 2, 32
 526 0374 83348100 		ld	s1,8(sp)
 527              		.cfi_restore 9
 528              	.LVL63:
 529 0378 03390100 		ld	s2,0(sp)
 530              		.cfi_restore 18
 531              	.LVL64:
 532 037c 13010102 		addi	sp,sp,32
 533              		.cfi_def_cfa_offset 0
 534 0380 67800000 		jr	ra
 535              		.cfi_endproc
 536              	.LFE3:
 538              		.section	.rodata.str1.8
 539 0065 000000   		.align	3
 540              	.LC9:
 541 0068 443A2069 		.string	"D: i="
 541      3D00
 542 006e 0000     		.align	3
 543              	.LC10:
 544 0070 443A2064 		.string	"D: dispatch\n"
 544      69737061 
 544      7463680A 
 544      00
 545 007d 000000   		.align	3
 546              	.LC11:
 547 0080 443A2066 		.string	"D: fibonaci="
 547      69626F6E 
 547      6163693D 
 547      00
 548 008d 000000   		.align	3
 549              	.LC12:
 550 0090 44206669 		.string	"D finished!\n"
 550      6E697368 
 550      6564210A 
 550      00
 551              		.text
 552              		.align	2
 553              		.globl	_Z11workerBodyDPv
 555              	_Z11workerBodyDPv:
GAS LISTING /tmp/ccoedLLO.s 			page 14


 556              	.LFB4:
  73:test/../test/Threads_C_API_test.hpp **** 
  74:test/../test/Threads_C_API_test.hpp **** void workerBodyD(void* arg) {
 557              		.loc 1 74 29 is_stmt 1
 558              		.cfi_startproc
 559              	.LVL65:
 560 0384 130101FE 		addi	sp,sp,-32
 561              		.cfi_def_cfa_offset 32
 562 0388 233C1100 		sd	ra,24(sp)
 563 038c 23388100 		sd	s0,16(sp)
 564 0390 23349100 		sd	s1,8(sp)
 565 0394 23302101 		sd	s2,0(sp)
 566              		.cfi_offset 1, -8
 567              		.cfi_offset 8, -16
 568              		.cfi_offset 9, -24
 569              		.cfi_offset 18, -32
 570 0398 13040102 		addi	s0,sp,32
 571              		.cfi_def_cfa 8, 0
  75:test/../test/Threads_C_API_test.hpp ****     uint8 i = 10;
 572              		.loc 1 75 5
 573              	.LVL66:
 574              		.loc 1 75 11 is_stmt 0
 575 039c 9304A000 		li	s1,10
 576 03a0 6F000004 		j	.L33
 577              	.LVL67:
 578              	.L37:
  76:test/../test/Threads_C_API_test.hpp ****     for (; i < 13; i++) {
  77:test/../test/Threads_C_API_test.hpp ****         printString("D: i="); printInt(i); printString("\n");
 579              		.loc 1 77 9 is_stmt 1 discriminator 1
 580              		.loc 1 77 20 is_stmt 0 discriminator 1
 581 03a4 17050000 		lla	a0,.LC9
 581      13050500 
 582 03ac 97000000 		call	_Z11printStringPKc@plt
 582      E7800000 
 583              	.LVL68:
 584              		.loc 1 77 31 is_stmt 1 discriminator 1
 585              		.loc 1 77 39 is_stmt 0 discriminator 1
 586 03b4 13060000 		li	a2,0
 587 03b8 9305A000 		li	a1,10
 588 03bc 13850400 		mv	a0,s1
 589 03c0 97000000 		call	_Z8printIntiii@plt
 589      E7800000 
 590              	.LVL69:
 591              		.loc 1 77 44 is_stmt 1 discriminator 1
 592              		.loc 1 77 55 is_stmt 0 discriminator 1
 593 03c8 17050000 		lla	a0,.LC1
 593      13050500 
 594 03d0 97000000 		call	_Z11printStringPKc@plt
 594      E7800000 
 595              	.LVL70:
  76:test/../test/Threads_C_API_test.hpp ****     for (; i < 13; i++) {
 596              		.loc 1 76 5 is_stmt 1 discriminator 1
 597 03d8 9B841400 		addiw	s1,s1,1
 598              	.LVL71:
 599 03dc 93F4F40F 		andi	s1,s1,0xff
 600              	.LVL72:
 601              	.L33:
GAS LISTING /tmp/ccoedLLO.s 			page 15


  76:test/../test/Threads_C_API_test.hpp ****     for (; i < 13; i++) {
 602              		.loc 1 76 5 discriminator 2
  76:test/../test/Threads_C_API_test.hpp ****     for (; i < 13; i++) {
 603              		.loc 1 76 14 discriminator 2
 604 03e0 9307C000 		li	a5,12
 605 03e4 E3F097FC 		bleu	s1,a5,.L37
  78:test/../test/Threads_C_API_test.hpp ****     }
  79:test/../test/Threads_C_API_test.hpp **** 
  80:test/../test/Threads_C_API_test.hpp ****     printString("D: dispatch\n");
 606              		.loc 1 80 5
 607              		.loc 1 80 16 is_stmt 0
 608 03e8 17050000 		lla	a0,.LC10
 608      13050500 
 609 03f0 97000000 		call	_Z11printStringPKc@plt
 609      E7800000 
 610              	.LVL73:
  81:test/../test/Threads_C_API_test.hpp ****     __asm__ ("li t1, 5");
 611              		.loc 1 81 5 is_stmt 1
 612              		.loc 1 81 25 is_stmt 0
 613              	#APP
 614              	# 81 "test/../test/Threads_C_API_test.hpp" 1
  82              	    thread_dispatch();
 615              		li t1, 5
 616              	# 0 "" 2
 617              		.loc 1 82 5 is_stmt 1
 618              		.loc 1 82 20 is_stmt 0
 619              	#NO_APP
 620 03fc 97000000 		call	thread_dispatch@plt
 620      E7800000 
 621              	.LVL74:
  83:test/../test/Threads_C_API_test.hpp **** 
  84:test/../test/Threads_C_API_test.hpp ****     uint64 result = fibonacci(16);
 622              		.loc 1 84 5 is_stmt 1
 623              		.loc 1 84 30 is_stmt 0
 624 0404 13050001 		li	a0,16
 625 0408 97000000 		call	_Z9fibonaccim
 625      E7800000 
 626              	.LVL75:
 627 0410 13090500 		mv	s2,a0
 628              	.LVL76:
  85:test/../test/Threads_C_API_test.hpp ****     printString("D: fibonaci="); printInt(result); printString("\n");
 629              		.loc 1 85 5 is_stmt 1
 630              		.loc 1 85 16 is_stmt 0
 631 0414 17050000 		lla	a0,.LC11
 631      13050500 
 632              	.LVL77:
 633 041c 97000000 		call	_Z11printStringPKc@plt
 633      E7800000 
 634              	.LVL78:
 635              		.loc 1 85 34 is_stmt 1
 636              		.loc 1 85 42 is_stmt 0
 637 0424 13060000 		li	a2,0
 638 0428 9305A000 		li	a1,10
 639 042c 1B050900 		sext.w	a0,s2
 640 0430 97000000 		call	_Z8printIntiii@plt
 640      E7800000 
 641              	.LVL79:
GAS LISTING /tmp/ccoedLLO.s 			page 16


 642              		.loc 1 85 52 is_stmt 1
 643              		.loc 1 85 63 is_stmt 0
 644 0438 17050000 		lla	a0,.LC1
 644      13050500 
 645 0440 97000000 		call	_Z11printStringPKc@plt
 645      E7800000 
 646              	.LVL80:
 647 0448 6F000004 		j	.L35
 648              	.L38:
  86:test/../test/Threads_C_API_test.hpp **** 
  87:test/../test/Threads_C_API_test.hpp ****     for (; i < 16; i++) {
  88:test/../test/Threads_C_API_test.hpp ****         printString("D: i="); printInt(i); printString("\n");
 649              		.loc 1 88 9 is_stmt 1 discriminator 1
 650              		.loc 1 88 20 is_stmt 0 discriminator 1
 651 044c 17050000 		lla	a0,.LC9
 651      13050500 
 652 0454 97000000 		call	_Z11printStringPKc@plt
 652      E7800000 
 653              	.LVL81:
 654              		.loc 1 88 31 is_stmt 1 discriminator 1
 655              		.loc 1 88 39 is_stmt 0 discriminator 1
 656 045c 13060000 		li	a2,0
 657 0460 9305A000 		li	a1,10
 658 0464 13850400 		mv	a0,s1
 659 0468 97000000 		call	_Z8printIntiii@plt
 659      E7800000 
 660              	.LVL82:
 661              		.loc 1 88 44 is_stmt 1 discriminator 1
 662              		.loc 1 88 55 is_stmt 0 discriminator 1
 663 0470 17050000 		lla	a0,.LC1
 663      13050500 
 664 0478 97000000 		call	_Z11printStringPKc@plt
 664      E7800000 
 665              	.LVL83:
  87:test/../test/Threads_C_API_test.hpp ****         printString("D: i="); printInt(i); printString("\n");
 666              		.loc 1 87 5 is_stmt 1 discriminator 1
 667 0480 9B841400 		addiw	s1,s1,1
 668              	.LVL84:
 669 0484 93F4F40F 		andi	s1,s1,0xff
 670              	.LVL85:
 671              	.L35:
  87:test/../test/Threads_C_API_test.hpp ****         printString("D: i="); printInt(i); printString("\n");
 672              		.loc 1 87 5 discriminator 2
  87:test/../test/Threads_C_API_test.hpp ****         printString("D: i="); printInt(i); printString("\n");
 673              		.loc 1 87 14 discriminator 2
 674 0488 9307F000 		li	a5,15
 675 048c E3F097FC 		bleu	s1,a5,.L38
  89:test/../test/Threads_C_API_test.hpp ****     }
  90:test/../test/Threads_C_API_test.hpp **** 
  91:test/../test/Threads_C_API_test.hpp ****     printString("D finished!\n");
 676              		.loc 1 91 5
 677              		.loc 1 91 16 is_stmt 0
 678 0490 17050000 		lla	a0,.LC12
 678      13050500 
 679 0498 97000000 		call	_Z11printStringPKc@plt
 679      E7800000 
 680              	.LVL86:
GAS LISTING /tmp/ccoedLLO.s 			page 17


  92:test/../test/Threads_C_API_test.hpp ****     finishedD = true;
 681              		.loc 1 92 5 is_stmt 1
 682              		.loc 1 92 15 is_stmt 0
 683 04a0 93071000 		li	a5,1
 684 04a4 17070000 		sb	a5,.LANCHOR0+3,a4
 684      2300F700 
  93:test/../test/Threads_C_API_test.hpp ****     //thread_dispatch();
  94:test/../test/Threads_C_API_test.hpp ****     //thread_exit();
  95:test/../test/Threads_C_API_test.hpp **** }
 685              		.loc 1 95 1
 686 04ac 83308101 		ld	ra,24(sp)
 687              		.cfi_restore 1
 688 04b0 03340101 		ld	s0,16(sp)
 689              		.cfi_restore 8
 690              		.cfi_def_cfa 2, 32
 691 04b4 83348100 		ld	s1,8(sp)
 692              		.cfi_restore 9
 693              	.LVL87:
 694 04b8 03390100 		ld	s2,0(sp)
 695              		.cfi_restore 18
 696              	.LVL88:
 697 04bc 13010102 		addi	sp,sp,32
 698              		.cfi_def_cfa_offset 0
 699 04c0 67800000 		jr	ra
 700              		.cfi_endproc
 701              	.LFE4:
 703              		.section	.rodata.str1.8
 704 009d 000000   		.align	3
 705              	.LC13:
 706 00a0 54687265 		.string	"ThreadA created\n"
 706      61644120 
 706      63726561 
 706      7465640A 
 706      00
 707 00b1 00000000 		.align	3
 707      000000
 708              	.LC14:
 709 00b8 54687265 		.string	"ThreadB created\n"
 709      61644220 
 709      63726561 
 709      7465640A 
 709      00
 710 00c9 00000000 		.align	3
 710      000000
 711              	.LC15:
 712 00d0 54687265 		.string	"ThreadC created\n"
 712      61644320 
 712      63726561 
 712      7465640A 
 712      00
 713 00e1 00000000 		.align	3
 713      000000
 714              	.LC16:
 715 00e8 54687265 		.string	"ThreadD created\n"
 715      61644420 
 715      63726561 
 715      7465640A 
GAS LISTING /tmp/ccoedLLO.s 			page 18


 715      00
 716              		.text
 717              		.align	2
 718              		.globl	_Z18Threads_C_API_testv
 720              	_Z18Threads_C_API_testv:
 721              	.LFB5:
  96:test/../test/Threads_C_API_test.hpp **** 
  97:test/../test/Threads_C_API_test.hpp **** 
  98:test/../test/Threads_C_API_test.hpp **** void Threads_C_API_test() {
 722              		.loc 1 98 27 is_stmt 1
 723              		.cfi_startproc
 724 04c4 130101FD 		addi	sp,sp,-48
 725              		.cfi_def_cfa_offset 48
 726 04c8 23341102 		sd	ra,40(sp)
 727 04cc 23308102 		sd	s0,32(sp)
 728              		.cfi_offset 1, -8
 729              		.cfi_offset 8, -16
 730 04d0 13040103 		addi	s0,sp,48
 731              		.cfi_def_cfa 8, 0
  99:test/../test/Threads_C_API_test.hpp ****     thread_t threads[4];
 732              		.loc 1 99 5
 100:test/../test/Threads_C_API_test.hpp ****     thread_create(&threads[0], workerBodyA, nullptr);
 733              		.loc 1 100 5
 734              		.loc 1 100 18 is_stmt 0
 735 04d4 13060000 		li	a2,0
 736 04d8 97050000 		lla	a1,_Z11workerBodyAPv
 736      93850500 
 737 04e0 130504FD 		addi	a0,s0,-48
 738 04e4 97000000 		call	thread_create@plt
 738      E7800000 
 739              	.LVL89:
 101:test/../test/Threads_C_API_test.hpp ****     printString("ThreadA created\n");
 740              		.loc 1 101 5 is_stmt 1
 741              		.loc 1 101 16 is_stmt 0
 742 04ec 17050000 		lla	a0,.LC13
 742      13050500 
 743 04f4 97000000 		call	_Z11printStringPKc@plt
 743      E7800000 
 744              	.LVL90:
 102:test/../test/Threads_C_API_test.hpp **** 
 103:test/../test/Threads_C_API_test.hpp ****     thread_create(&threads[1], workerBodyB, nullptr);
 745              		.loc 1 103 5 is_stmt 1
 746              		.loc 1 103 18 is_stmt 0
 747 04fc 13060000 		li	a2,0
 748 0500 97050000 		lla	a1,_Z11workerBodyBPv
 748      93850500 
 749 0508 130584FD 		addi	a0,s0,-40
 750 050c 97000000 		call	thread_create@plt
 750      E7800000 
 751              	.LVL91:
 104:test/../test/Threads_C_API_test.hpp ****     printString("ThreadB created\n");
 752              		.loc 1 104 5 is_stmt 1
 753              		.loc 1 104 16 is_stmt 0
 754 0514 17050000 		lla	a0,.LC14
 754      13050500 
 755 051c 97000000 		call	_Z11printStringPKc@plt
 755      E7800000 
GAS LISTING /tmp/ccoedLLO.s 			page 19


 756              	.LVL92:
 105:test/../test/Threads_C_API_test.hpp **** 
 106:test/../test/Threads_C_API_test.hpp ****     thread_create(&threads[2], workerBodyC, nullptr);
 757              		.loc 1 106 5 is_stmt 1
 758              		.loc 1 106 18 is_stmt 0
 759 0524 13060000 		li	a2,0
 760 0528 97050000 		lla	a1,_Z11workerBodyCPv
 760      93850500 
 761 0530 130504FE 		addi	a0,s0,-32
 762 0534 97000000 		call	thread_create@plt
 762      E7800000 
 763              	.LVL93:
 107:test/../test/Threads_C_API_test.hpp ****     printString("ThreadC created\n");
 764              		.loc 1 107 5 is_stmt 1
 765              		.loc 1 107 16 is_stmt 0
 766 053c 17050000 		lla	a0,.LC15
 766      13050500 
 767 0544 97000000 		call	_Z11printStringPKc@plt
 767      E7800000 
 768              	.LVL94:
 108:test/../test/Threads_C_API_test.hpp **** 
 109:test/../test/Threads_C_API_test.hpp ****     thread_create(&threads[3], workerBodyD, nullptr);
 769              		.loc 1 109 5 is_stmt 1
 770              		.loc 1 109 18 is_stmt 0
 771 054c 13060000 		li	a2,0
 772 0550 97050000 		lla	a1,_Z11workerBodyDPv
 772      93850500 
 773 0558 130584FE 		addi	a0,s0,-24
 774 055c 97000000 		call	thread_create@plt
 774      E7800000 
 775              	.LVL95:
 110:test/../test/Threads_C_API_test.hpp ****     printString("ThreadD created\n");
 776              		.loc 1 110 5 is_stmt 1
 777              		.loc 1 110 16 is_stmt 0
 778 0564 17050000 		lla	a0,.LC16
 778      13050500 
 779 056c 97000000 		call	_Z11printStringPKc@plt
 779      E7800000 
 780              	.LVL96:
 781 0574 6F00C000 		j	.L42
 782              	.L40:
 111:test/../test/Threads_C_API_test.hpp **** 
 112:test/../test/Threads_C_API_test.hpp ****     while (!(finishedA && finishedB && finishedC && finishedD)) {
 113:test/../test/Threads_C_API_test.hpp ****         thread_dispatch();
 783              		.loc 1 113 9 is_stmt 1
 784              		.loc 1 113 24 is_stmt 0
 785 0578 97000000 		call	thread_dispatch@plt
 785      E7800000 
 786              	.LVL97:
 787              	.L42:
 112:test/../test/Threads_C_API_test.hpp ****         thread_dispatch();
 788              		.loc 1 112 5 is_stmt 1
 112:test/../test/Threads_C_API_test.hpp ****         thread_dispatch();
 789              		.loc 1 112 12
 790 0580 97070000 		lbu	a5,.LANCHOR0
 790      83C70700 
 791 0588 E38807FE 		beqz	a5,.L40
GAS LISTING /tmp/ccoedLLO.s 			page 20


 112:test/../test/Threads_C_API_test.hpp ****         thread_dispatch();
 792              		.loc 1 112 24 is_stmt 0 discriminator 1
 793 058c 97070000 		lbu	a5,.LANCHOR0+1
 793      83C70700 
 794 0594 E38207FE 		beqz	a5,.L40
 112:test/../test/Threads_C_API_test.hpp ****         thread_dispatch();
 795              		.loc 1 112 37 discriminator 2
 796 0598 97070000 		lbu	a5,.LANCHOR0+2
 796      83C70700 
 797 05a0 E38C07FC 		beqz	a5,.L40
 112:test/../test/Threads_C_API_test.hpp ****         thread_dispatch();
 798              		.loc 1 112 12 discriminator 3
 799 05a4 97070000 		lbu	a5,.LANCHOR0+3
 799      83C70700 
 800 05ac E38607FC 		beqz	a5,.L40
 114:test/../test/Threads_C_API_test.hpp ****     }
 115:test/../test/Threads_C_API_test.hpp **** }
 801              		.loc 1 115 1
 802 05b0 83308102 		ld	ra,40(sp)
 803              		.cfi_restore 1
 804 05b4 03340102 		ld	s0,32(sp)
 805              		.cfi_restore 8
 806              		.cfi_def_cfa 2, 48
 807 05b8 13010103 		addi	sp,sp,48
 808              		.cfi_def_cfa_offset 0
 809 05bc 67800000 		jr	ra
 810              		.cfi_endproc
 811              	.LFE5:
 813              		.section	.rodata.str1.8
 814 00f9 00000000 		.align	3
 814      000000
 815              	.LC17:
 816 0100 4920616D 		.string	"I am here!\n"
 816      20686572 
 816      65210A00 
 817 010c 00000000 		.align	3
 818              	.LC18:
 819 0110 4920616D 		.string	"I am here again!\n"
 819      20686572 
 819      65206167 
 819      61696E21 
 819      0A00
 820              		.text
 821              		.align	2
 822              		.globl	_Z8userMainv
 824              	_Z8userMainv:
 825              	.LFB29:
 826              		.file 2 "test/userMain.cpp"
   1:test/userMain.cpp **** #include "../test/Threads_C_API_test.hpp" // zadatak 2, niti C API i sinhrona promena konteksta
   2:test/userMain.cpp **** //#include "../test/Threads_CPP_API_test.hpp" // zadatak 2., niti CPP API i sinhrona promena kontek
   3:test/userMain.cpp **** 
   4:test/userMain.cpp **** //#include "../test/ConsumerProducer_C_API_test.h" // zadatak 3., kompletan C API sa semaforima, si
   5:test/userMain.cpp **** //#include "../test/ConsumerProducer_CPP_Sync_API_test.hpp" // zadatak 3., kompletan CPP API sa sem
   6:test/userMain.cpp **** 
   7:test/userMain.cpp **** //#include "../test/ThreadSleep_C_API_test.hpp" // thread_sleep test C API
   8:test/userMain.cpp **** //#include "../test/ConsumerProducer_CPP_API_test.hpp" // zadatak 4. CPP API i asinhrona promena ko
   9:test/userMain.cpp **** 
GAS LISTING /tmp/ccoedLLO.s 			page 21


  10:test/userMain.cpp **** #include "../h/print.hpp"
  11:test/userMain.cpp **** #include "../h/tcb.hpp"
  12:test/userMain.cpp **** #include "../h/syscall_c.h"
  13:test/userMain.cpp **** 
  14:test/userMain.cpp **** void userMain() {
 827              		.loc 2 14 17 is_stmt 1
 828              		.cfi_startproc
 829 05c0 130101FF 		addi	sp,sp,-16
 830              		.cfi_def_cfa_offset 16
 831 05c4 23341100 		sd	ra,8(sp)
 832 05c8 23308100 		sd	s0,0(sp)
 833              		.cfi_offset 1, -8
 834              		.cfi_offset 8, -16
 835 05cc 13040101 		addi	s0,sp,16
 836              		.cfi_def_cfa 8, 0
  15:test/userMain.cpp ****     __print_string("I am here!\n");
 837              		.loc 2 15 5
 838              		.loc 2 15 19 is_stmt 0
 839 05d0 17050000 		lla	a0,.LC17
 839      13050500 
 840 05d8 97000000 		call	_Z14__print_stringPKc@plt
 840      E7800000 
 841              	.LVL98:
  16:test/userMain.cpp ****     //printString("I am here!");
  17:test/userMain.cpp ****     Threads_C_API_test(); // zadatak 2., niti C API i sinhrona promena konteksta
 842              		.loc 2 17 5 is_stmt 1
 843              		.loc 2 17 23 is_stmt 0
 844 05e0 97000000 		call	_Z18Threads_C_API_testv
 844      E7800000 
 845              	.LVL99:
  18:test/userMain.cpp ****     //Threads_CPP_API_test(); // zadatak 2., niti CPP API i sinhrona promena konteksta
  19:test/userMain.cpp **** 
  20:test/userMain.cpp ****     //producerConsumer_C_API(); // zadatak 3., kompletan C API sa semaforima, sinhrona promena kont
  21:test/userMain.cpp ****     //producerConsumer_CPP_Sync_API(); // zadatak 3., kompletan CPP API sa semaforima, sinhrona pro
  22:test/userMain.cpp **** 
  23:test/userMain.cpp ****     //testSleeping(); // thread_sleep test C API
  24:test/userMain.cpp ****     //ConsumerProducerCPP::testConsumerProducer(); // zadatak 4. CPP API i asinhrona promena kontek
  25:test/userMain.cpp **** 
  26:test/userMain.cpp ****     //__print_string("I am here too!\n");
  27:test/userMain.cpp ****     //thread_dispatch();
  28:test/userMain.cpp ****     __print_string("I am here again!\n");
 846              		.loc 2 28 5 is_stmt 1
 847              		.loc 2 28 19 is_stmt 0
 848 05e8 17050000 		lla	a0,.LC18
 848      13050500 
 849 05f0 97000000 		call	_Z14__print_stringPKc@plt
 849      E7800000 
 850              	.LVL100:
  29:test/userMain.cpp ****     //thread_exit();
  30:test/userMain.cpp ****     /*TCB::running->setFinished(true);
  31:test/userMain.cpp ****     thread_dispatch();*/
  32:test/userMain.cpp **** }...
 851              		.loc 2 32 1
 852 05f8 83308100 		ld	ra,8(sp)
 853              		.cfi_restore 1
 854 05fc 03340100 		ld	s0,0(sp)
 855              		.cfi_restore 8
GAS LISTING /tmp/ccoedLLO.s 			page 22


 856              		.cfi_def_cfa 2, 16
 857 0600 13010101 		addi	sp,sp,16
 858              		.cfi_def_cfa_offset 0
 859 0604 67800000 		jr	ra
 860              		.cfi_endproc
 861              	.LFE29:
 863              		.globl	finishedD
 864              		.globl	finishedC
 865              		.globl	finishedB
 866              		.globl	finishedA
 867              		.bss
 868              		.set	.LANCHOR0,. + 0
 871              	finishedA:
 872 0000 00       		.zero	1
 875              	finishedB:
 876 0001 00       		.zero	1
 879              	finishedC:
 880 0002 00       		.zero	1
 883              	finishedD:
 884 0003 00       		.zero	1
 885              		.text
 886              	.Letext0:
 887              		.file 3 "test/../test/../h/../lib/hw.h"
 888              		.file 4 "test/../test/../h/syscall_c.h"
 889              		.file 5 "test/../h/tcb.hpp"
 890              		.file 6 "test/../h/print.hpp"
 891              		.file 7 "test/../test/printing.hpp"
GAS LISTING /tmp/ccoedLLO.s 			page 23

